GAS LISTING /tmp/ccT1kfMR.s 			page 1


   1               		.file	"projet.cpp"
   2               	__SP_H__ = 0x3e
   3               	__SP_L__ = 0x3d
   4               	__SREG__ = 0x3f
   5               	__tmp_reg__ = 0
   6               	__zero_reg__ = 1
   7               		.stabs	"/usagers/damaib/Documents/Session3/inf1995/inf1995-20/equipe/inf1995-1620/codeCommun/Tp/pr
   8               		.stabs	"projet.cpp",100,0,4,.Ltext0
   9               		.text
  10               	.Ltext0:
  11               		.stabs	"gcc2_compiled.",60,0,0,0
  12               		.stabs	"__uint24:t(0,1)=@s24;r(0,1);0;077777777;",128,0,0,0
  13               		.stabs	"__int24:t(0,2)=@s24;r(0,2);040000000;037777777;",128,0,0,0
  14               		.stabs	"__builtin_va_list:t(0,3)=*(0,4)=(0,4)",128,0,0,0
  15               		.stabs	"complex long double:t(0,5)=R3;8;0;",128,0,0,0
  16               		.stabs	"complex double:t(0,6)=R3;8;0;",128,0,0,0
  17               		.stabs	"complex float:t(0,7)=R3;8;0;",128,0,0,0
  18               		.stabs	"complex int:t(0,8)=s4real:(0,9)=r(0,9);-32768;32767;,0,16;imag:(0,9),16,16;;",128,0,0,0
  19               		.stabs	"long long unsigned int:t(0,10)=@s64;r(0,10);0;01777777777777777777777;",128,0,0,0
  20               		.stabs	"long unsigned int:t(0,11)=@s32;r(0,11);0;037777777777;",128,0,0,0
  21               		.stabs	"unsigned int:t(0,12)=r(0,12);0;0177777;",128,0,0,0
  22               		.stabs	"unsigned char:t(0,13)=@s8;r(0,13);0;255;",128,0,0,0
  23               		.stabs	"long long int:t(0,14)=@s64;r(0,14);01000000000000000000000;0777777777777777777777;",128,0,
  24               		.stabs	"long int:t(0,15)=@s32;r(0,15);020000000000;017777777777;",128,0,0,0
  25               		.stabs	"int:t(0,9)",128,0,0,0
  26               		.stabs	"signed char:t(0,16)=@s8;r(0,16);-128;127;",128,0,0,0
  27               		.stabs	"char:t(0,17)=@s8;r(0,17);0;255;",128,0,0,0
  28               		.stabs	"signed:t(0,9)",128,0,0,0
  29               		.stabs	"unsigned long:t(0,11)",128,0,0,0
  30               		.stabs	"long long unsigned:t(0,10)",128,0,0,0
  31               		.stabs	"short int:t(0,18)=r(0,18);-32768;32767;",128,0,0,0
  32               		.stabs	"short unsigned int:t(0,19)=r(0,19);0;0177777;",128,0,0,0
  33               		.stabs	"unsigned short:t(0,19)",128,0,0,0
  34               		.stabs	"float:t(0,20)=r(0,9);4;0;",128,0,0,0
  35               		.stabs	"double:t(0,21)=r(0,9);4;0;",128,0,0,0
  36               		.stabs	"long double:t(0,22)=r(0,9);4;0;",128,0,0,0
  37               		.stabs	"void:t(0,4)",128,0,0,0
  38               		.stabs	"wchar_t:t(0,23)=r(0,23);-32768;32767;",128,0,0,0
  39               		.stabs	"bool:t(0,24)=@s8;-16;",128,0,0,0
  40               		.stabs	"__vtbl_ptr_type:t(0,25)=*(0,26)=f(0,9)",128,0,0,0
  41               		.stabs	"decltype(nullptr):t(0,27)=(0,27)",128,0,0,0
  42               		.stabs	"int8_t:t(0,28)=(0,16)",128,0,121,0
  43               		.stabs	"uint8_t:t(0,29)=(0,13)",128,0,122,0
  44               		.stabs	"int16_t:t(0,30)=(0,9)",128,0,123,0
  45               		.stabs	"uint16_t:t(0,31)=(0,12)",128,0,124,0
  46               		.stabs	"int32_t:t(0,32)=(0,15)",128,0,125,0
  47               		.stabs	"uint32_t:t(0,33)=(0,11)",128,0,126,0
  48               		.stabs	"int64_t:t(0,34)=(0,14)",128,0,128,0
  49               		.stabs	"uint64_t:t(0,35)=(0,10)",128,0,129,0
  50               		.stabs	"intptr_t:t(0,36)=(0,30)",128,0,142,0
  51               		.stabs	"uintptr_t:t(0,37)=(0,31)",128,0,147,0
  52               		.stabs	"int_least8_t:t(0,38)=(0,28)",128,0,159,0
  53               		.stabs	"uint_least8_t:t(0,39)=(0,29)",128,0,164,0
  54               		.stabs	"int_least16_t:t(0,40)=(0,30)",128,0,169,0
  55               		.stabs	"uint_least16_t:t(0,41)=(0,31)",128,0,174,0
  56               		.stabs	"int_least32_t:t(0,42)=(0,32)",128,0,179,0
  57               		.stabs	"uint_least32_t:t(0,43)=(0,33)",128,0,184,0
GAS LISTING /tmp/ccT1kfMR.s 			page 2


  58               		.stabs	"int_least64_t:t(0,44)=(0,34)",128,0,192,0
  59               		.stabs	"uint_least64_t:t(0,45)=(0,35)",128,0,199,0
  60               		.stabs	"int_fast8_t:t(0,46)=(0,28)",128,0,213,0
  61               		.stabs	"uint_fast8_t:t(0,47)=(0,29)",128,0,218,0
  62               		.stabs	"int_fast16_t:t(0,48)=(0,30)",128,0,223,0
  63               		.stabs	"uint_fast16_t:t(0,49)=(0,31)",128,0,228,0
  64               		.stabs	"int_fast32_t:t(0,50)=(0,32)",128,0,233,0
  65               		.stabs	"uint_fast32_t:t(0,51)=(0,33)",128,0,238,0
  66               		.stabs	"int_fast64_t:t(0,52)=(0,34)",128,0,246,0
  67               		.stabs	"uint_fast64_t:t(0,53)=(0,35)",128,0,253,0
  68               		.stabs	"intmax_t:t(0,54)=(0,34)",128,0,273,0
  69               		.stabs	"uintmax_t:t(0,55)=(0,35)",128,0,278,0
  70               		.stabs	"int_farptr_t:t(0,56)=(0,32)",128,0,77,0
  71               		.stabs	"uint_farptr_t:t(0,57)=(0,33)",128,0,81,0
  72               		.stabs	"._0:Tt(0,58)=s3low:(0,13),0,8;high:(0,13),8,8;extended:(0,13),16,8;;",128,0,240,0
  73               		.stabs	"__fuse_t:t(0,58)",128,0,244,0
  74               		.stabs	"LibRobot:Tt(0,59)=s1debut_:/2(0,24):_ZN8LibRobot6debut_E;fin_:/2(0,24):_ZN8LibRobot4fin_E;
  75               		.stabs	"Memoire24CXXX:Tt(0,77)=s1m_adresse_peripherique:/0(0,29):_ZN13Memoire24CXXX22m_adresse_per
  76               		.stabs	"can:Tt(0,86)=s1__base_ctor ::(0,87)=#(0,86),(0,4),(0,88)=*(0,86),(0,4);:_ZN3canC2Ev;2A.;__
  77               		.stabs	"_Z12capteurDroitv:F(0,24)",36,0,146,_Z12capteurDroitv
  78               	.global	_Z12capteurDroitv
  79               		.type	_Z12capteurDroitv, @function
  80               	_Z12capteurDroitv:
  81               		.stabd	46,0,0
   1:projet.cpp    **** /****************************************************************************
   2:projet.cpp    ****  * Fichier: projet.cpp
   3:projet.cpp    ****  * Auteur: David Mainville
   4:projet.cpp    ****  * Date: 
   5:projet.cpp    ****  * DESCRIPTION : Souris.
   6:projet.cpp    ****  ****************************************************************************/
   7:projet.cpp    **** 
   8:projet.cpp    **** /* Information sur branchements */
   9:projet.cpp    **** 
  10:projet.cpp    **** /* Port A0 branch√© sur capteur lumiere gauche*/
  11:projet.cpp    **** /* Port A1 branch√© sur capteur lumiere droit*/
  12:projet.cpp    **** /* Port A2 branch√© sur capteur ligne gauche*/
  13:projet.cpp    **** /* Port A4 branch√© sur capteur ligne milieu*/
  14:projet.cpp    **** /* Port A6 branch√© sur capteur ligne droit*/
  15:projet.cpp    **** 
  16:projet.cpp    **** /* Port B0 branch√© sur +        DEL*/
  17:projet.cpp    **** /* Port B1 branch√© sur -        DEL*/
  18:projet.cpp    **** 
  19:projet.cpp    **** /* Port C0 branch√© sur module de son*/
  20:projet.cpp    **** 
  21:projet.cpp    **** /* Port D4 branch√© sur enable moteur gauche*/
  22:projet.cpp    **** /* Port D6 branch√© sur sens moteur gauche*/
  23:projet.cpp    **** 
  24:projet.cpp    **** /* Port D5 branch√© sur enable moteur droit*/
  25:projet.cpp    **** /* Port D7 branch√© sur sens moteur droit*/
  26:projet.cpp    **** 
  27:projet.cpp    **** // F_CPU permet de d√©finir la vitesse du micro-controleur soit 8MHz
  28:projet.cpp    **** #define F_CPU 8000000UL
  29:projet.cpp    **** #include <avr/io.h>
  30:projet.cpp    **** #include <util/delay.h>
  31:projet.cpp    **** #include "lib/libRobot.h"
  32:projet.cpp    **** #include "memoire_24.h"
  33:projet.cpp    **** #include "can.h"
GAS LISTING /tmp/ccT1kfMR.s 			page 3


  34:projet.cpp    **** 
  35:projet.cpp    **** //-----------------------------
  36:projet.cpp    **** //Lib et utils
  37:projet.cpp    **** //-----------------------------
  38:projet.cpp    **** LibRobot r;
  39:projet.cpp    **** volatile uint8_t& portDEL = PORTB;
  40:projet.cpp    **** uint8_t pinCouleur  = _BV(PORTB0);
  41:projet.cpp    **** uint8_t pinCouleur2  = _BV(PORTB1);
  42:projet.cpp    **** 
  43:projet.cpp    **** //-----------------------------
  44:projet.cpp    **** //Mode de d√©placement, prise de d√©cision
  45:projet.cpp    **** //-----------------------------
  46:projet.cpp    **** bool modeLigneDroite;
  47:projet.cpp    **** bool modeIntersection;
  48:projet.cpp    **** bool modeVirageGauche;
  49:projet.cpp    **** bool modeVirageDroite;
  50:projet.cpp    **** bool modeReculer;
  51:projet.cpp    **** 
  52:projet.cpp    **** //-----------------------------
  53:projet.cpp    **** //Constante et variable pour virage
  54:projet.cpp    **** //-----------------------------
  55:projet.cpp    **** int8_t vitesseVirage;
  56:projet.cpp    **** bool virageForce; //Si le mode d√©tection est provoquer par le temps
  57:projet.cpp    **** bool detecteurEnabled; 	//Est a vrai si le detecteur peut signuifier la fin d'un virage
  58:projet.cpp    **** 			//Pour etre valide le d√©tecteur doit √™tre √©teint au moins une fois pendant un virage
  59:projet.cpp    **** 			//Permet d'√©viter de concid√®rer un ligne droite comme un tournant lors d'un virage
  60:projet.cpp    **** 
  61:projet.cpp    **** int8_t varianceVitesseVirage; 			//Utiliser pour faire varier la vitesse du virage pendant le virag
  62:projet.cpp    **** int8_t varianceVitesseVirageDeceleration; 	//Cependant √©tant donn√© que le moteur ne peut aller en
  63:projet.cpp    **** int8_t varianceVitesseVirageMax;		//vitesse au maximum par moment, la vitesse ocille donc, entre vi
  64:projet.cpp    **** int8_t varianceVitesseVirageMin;		//vitesseVirage + varianceVitesseVirageMin
  65:projet.cpp    **** 
  66:projet.cpp    **** 
  67:projet.cpp    **** //-----------------------------
  68:projet.cpp    **** //Constante et variable pour determinerTypeIntersection
  69:projet.cpp    **** //-----------------------------
  70:projet.cpp    **** bool franchieGauche;
  71:projet.cpp    **** bool franchieMilieu;
  72:projet.cpp    **** bool franchieDroite;
  73:projet.cpp    **** 
  74:projet.cpp    **** bool gaucheExiste; //On peut tourner a gauche
  75:projet.cpp    **** bool droiteExiste;
  76:projet.cpp    **** bool milieuExiste;
  77:projet.cpp    **** 
  78:projet.cpp    **** uint16_t tempsIntersection;
  79:projet.cpp    **** uint16_t tempsIntersectionMax; //Temps maximum pour d√©tecter le type d'intersection
  80:projet.cpp    **** uint16_t tempsActif;
  81:projet.cpp    **** uint16_t seuilTempsActifToutDroit; //Temps actif minimum pour pouvoir continuer tout droit
  82:projet.cpp    **** 
  83:projet.cpp    **** uint8_t dernierCapteurIntersection; //1 gauche, 2 milieu, 3 droite, 0 rien
  84:projet.cpp    **** 
  85:projet.cpp    **** //-----------------------------
  86:projet.cpp    **** //Constante et variable pour avancerLigneDroite
  87:projet.cpp    **** //-----------------------------
  88:projet.cpp    **** uint8_t dernierCapteur; //1 gauche, 2 milieu, 3 droite, 0 rien
  89:projet.cpp    **** uint8_t vitesseBase;
  90:projet.cpp    **** int8_t ajustementGauche;
GAS LISTING /tmp/ccT1kfMR.s 			page 4


  91:projet.cpp    **** int8_t ajustementDroit;
  92:projet.cpp    **** int8_t ajustementMax;
  93:projet.cpp    **** int8_t ajustementMin;
  94:projet.cpp    **** int8_t ajustementRetour; //Lorsque l'on revient au centre, aujustement pour remttre le robot droit 
  95:projet.cpp    **** int8_t ajustementVirageLeger; //Ajustement de la vitesse lors d'une stabilisation
  96:projet.cpp    **** int8_t ajustementVirageMoyen;
  97:projet.cpp    **** uint16_t delaisLigneDroite;
  98:projet.cpp    **** uint16_t delaisMaxLigneDroite;
  99:projet.cpp    **** 
 100:projet.cpp    **** int16_t delaisAjustementTemporaire;
 101:projet.cpp    **** int8_t ajustementTemporaireG;
 102:projet.cpp    **** int8_t ajustementTemporaireD;
 103:projet.cpp    **** int8_t ajustementTournant;
 104:projet.cpp    **** int8_t ajustementLigneDroite;
 105:projet.cpp    **** uint8_t dureeAjustementTournant;
 106:projet.cpp    **** uint8_t dureeAjustementLigneDroite;
 107:projet.cpp    **** 
 108:projet.cpp    **** uint16_t tempsDepuisIntersection;
 109:projet.cpp    **** uint16_t tempsAttenteMaxIntersection; //Temps d'attente maximal, avant de d√©clancher un intersecti
 110:projet.cpp    **** 
 111:projet.cpp    **** //-----------------------------
 112:projet.cpp    **** //Constante et variable pour reculer
 113:projet.cpp    **** //-----------------------------
 114:projet.cpp    **** uint8_t vitesseReculer;
 115:projet.cpp    **** int8_t tempsReculActif;
 116:projet.cpp    **** int8_t tempsReculActifMax;
 117:projet.cpp    **** bool finRecul; //Utiliser pour faire reculer un peu plus apres avoir retrouv√© la ligne
 118:projet.cpp    **** int8_t tempsReculExtra;
 119:projet.cpp    **** int8_t tempsReculExtraMax;
 120:projet.cpp    **** 
 121:projet.cpp    **** //-----------------------------
 122:projet.cpp    **** //Constante et variable pour capteur lumi√®res
 123:projet.cpp    **** //-----------------------------
 124:projet.cpp    **** uint8_t seuilEclaire;	//Valeur √† partir de laquelle on d√©tecte que le robot a √©t√© √©clair√©
 125:projet.cpp    **** uint8_t coteForce;	//0 = aucun c√¥t√© forc√©, 1 = gauche forc√©, 2 = droite forc√©
 126:projet.cpp    **** uint8_t delaiLumiereMax;  //Utiliser pour √©viter de d√©tecter a chaque coup de boucle
 127:projet.cpp    **** uint8_t delaiLumiereCourrant;
 128:projet.cpp    **** 
 129:projet.cpp    **** 
 130:projet.cpp    **** //-----------------------------
 131:projet.cpp    **** //Constante et variable pour √©viter de tomber
 132:projet.cpp    **** //-----------------------------
 133:projet.cpp    **** //V√©rifier le % de temps actif dans un delai recent pour s'assurer qu'on n'est pas dans le vide
 134:projet.cpp    **** //La v√©rification de la limite sera faite lors des d√©clenchement de delai max atteint
 135:projet.cpp    **** uint16_t tempsLigneDroiteActive;
 136:projet.cpp    **** uint16_t tempsLigneDroiteDepuisIntersection;
 137:projet.cpp    **** uint16_t tempsLigneDroiteActiveMax;
 138:projet.cpp    **** uint16_t tempsLigneDroiteActiveSeuil;
 139:projet.cpp    **** 
 140:projet.cpp    **** //V√©rification du temps sans capteur (qui est reset chaque fois qu'un capteur est atteint)
 141:projet.cpp    **** uint16_t tempsActifSansCapteur;
 142:projet.cpp    **** uint16_t tempsActifSansCapteurMax;
 143:projet.cpp    **** 
 144:projet.cpp    **** bool debug = false;
 145:projet.cpp    **** 
 146:projet.cpp    **** bool capteurDroit()
 147:projet.cpp    **** {
GAS LISTING /tmp/ccT1kfMR.s 			page 5


  82               		.stabn	68,0,147,.LM0-.LFBB1
  83               	.LM0:
  84               	.LFBB1:
  85               	/* prologue: function */
  86               	/* frame size = 0 */
  87               	/* stack size = 0 */
  88               	.L__stack_usage = 0
 148:projet.cpp    **** 	return !(PINA & _BV(PORTA6));
  89               		.stabn	68,0,148,.LM1-.LFBB1
  90               	.LM1:
  91 0000 80B1      		in r24,0
  92 0002 86FB      		bst r24,6
  93 0004 8827      		clr r24
  94 0006 80F9      		bld r24,0
 149:projet.cpp    **** }
  95               		.stabn	68,0,149,.LM2-.LFBB1
  96               	.LM2:
  97 0008 91E0      		ldi r25,lo8(1)
  98 000a 8927      		eor r24,r25
  99 000c 0895      		ret
 100               		.size	_Z12capteurDroitv, .-_Z12capteurDroitv
 101               	.Lscope1:
 102               		.stabs	"",36,0,0,.Lscope1-.LFBB1
 103               		.stabd	78,0,0
 104               		.stabs	"_Z13capteurMilieuv:F(0,24)",36,0,150,_Z13capteurMilieuv
 105               	.global	_Z13capteurMilieuv
 106               		.type	_Z13capteurMilieuv, @function
 107               	_Z13capteurMilieuv:
 108               		.stabd	46,0,0
 150:projet.cpp    **** bool capteurMilieu()
 151:projet.cpp    **** {
 109               		.stabn	68,0,151,.LM3-.LFBB2
 110               	.LM3:
 111               	.LFBB2:
 112               	/* prologue: function */
 113               	/* frame size = 0 */
 114               	/* stack size = 0 */
 115               	.L__stack_usage = 0
 152:projet.cpp    **** 	return !(PINA & _BV(PORTA4));
 116               		.stabn	68,0,152,.LM4-.LFBB2
 117               	.LM4:
 118 000e 80B1      		in r24,0
 119 0010 8295      		swap r24
 120 0012 8170      		andi r24,1
 153:projet.cpp    **** }
 121               		.stabn	68,0,153,.LM5-.LFBB2
 122               	.LM5:
 123 0014 91E0      		ldi r25,lo8(1)
 124 0016 8927      		eor r24,r25
 125 0018 0895      		ret
 126               		.size	_Z13capteurMilieuv, .-_Z13capteurMilieuv
 127               	.Lscope2:
 128               		.stabs	"",36,0,0,.Lscope2-.LFBB2
 129               		.stabd	78,0,0
 130               		.stabs	"_Z13capteurGauchev:F(0,24)",36,0,154,_Z13capteurGauchev
 131               	.global	_Z13capteurGauchev
 132               		.type	_Z13capteurGauchev, @function
GAS LISTING /tmp/ccT1kfMR.s 			page 6


 133               	_Z13capteurGauchev:
 134               		.stabd	46,0,0
 154:projet.cpp    **** bool capteurGauche()
 155:projet.cpp    **** {
 135               		.stabn	68,0,155,.LM6-.LFBB3
 136               	.LM6:
 137               	.LFBB3:
 138               	/* prologue: function */
 139               	/* frame size = 0 */
 140               	/* stack size = 0 */
 141               	.L__stack_usage = 0
 156:projet.cpp    **** 	return !(PINA & _BV(PORTA2));
 142               		.stabn	68,0,156,.LM7-.LFBB3
 143               	.LM7:
 144 001a 80B1      		in r24,0
 145 001c 82FB      		bst r24,2
 146 001e 8827      		clr r24
 147 0020 80F9      		bld r24,0
 157:projet.cpp    **** }
 148               		.stabn	68,0,157,.LM8-.LFBB3
 149               	.LM8:
 150 0022 91E0      		ldi r25,lo8(1)
 151 0024 8927      		eor r24,r25
 152 0026 0895      		ret
 153               		.size	_Z13capteurGauchev, .-_Z13capteurGauchev
 154               	.Lscope3:
 155               		.stabs	"",36,0,0,.Lscope3-.LFBB3
 156               		.stabd	78,0,0
 157               		.stabs	"_Z21desactiveLumiereForcev:F(0,4)",36,0,159,_Z21desactiveLumiereForcev
 158               	.global	_Z21desactiveLumiereForcev
 159               		.type	_Z21desactiveLumiereForcev, @function
 160               	_Z21desactiveLumiereForcev:
 161               		.stabd	46,0,0
 158:projet.cpp    **** 
 159:projet.cpp    **** void desactiveLumiereForce()
 160:projet.cpp    **** {
 162               		.stabn	68,0,160,.LM9-.LFBB4
 163               	.LM9:
 164               	.LFBB4:
 165               	/* prologue: function */
 166               	/* frame size = 0 */
 167               	/* stack size = 0 */
 168               	.L__stack_usage = 0
 161:projet.cpp    **** 	coteForce = 0;
 169               		.stabn	68,0,161,.LM10-.LFBB4
 170               	.LM10:
 171 0028 1092 0000 		sts coteForce,__zero_reg__
 162:projet.cpp    **** 	r.eteindreDEL(portDEL, pinCouleur, pinCouleur2);
 172               		.stabn	68,0,162,.LM11-.LFBB4
 173               	.LM11:
 174 002c 4091 0000 		lds r20,pinCouleur2
 175 0030 6091 0000 		lds r22,pinCouleur
 176 0034 85E2      		ldi r24,lo8(37)
 177 0036 90E0      		ldi r25,0
 178 0038 0C94 0000 		jmp _ZN8LibRobot11eteindreDELERVhhh
 179               		.size	_Z21desactiveLumiereForcev, .-_Z21desactiveLumiereForcev
 180               	.Lscope4:
GAS LISTING /tmp/ccT1kfMR.s 			page 7


 181               		.stabs	"",36,0,0,.Lscope4-.LFBB4
 182               		.stabd	78,0,0
 183               		.stabs	"_Z15ajusterFranchiev:F(0,4)",36,0,165,_Z15ajusterFranchiev
 184               	.global	_Z15ajusterFranchiev
 185               		.type	_Z15ajusterFranchiev, @function
 186               	_Z15ajusterFranchiev:
 187               		.stabd	46,0,0
 163:projet.cpp    **** }
 164:projet.cpp    **** 
 165:projet.cpp    **** void ajusterFranchie()//Ajuste les variables de franchissement
 166:projet.cpp    **** {
 188               		.stabn	68,0,166,.LM12-.LFBB5
 189               	.LM12:
 190               	.LFBB5:
 191               	/* prologue: function */
 192               	/* frame size = 0 */
 193               	/* stack size = 0 */
 194               	.L__stack_usage = 0
 167:projet.cpp    **** 	if(capteurGauche())
 195               		.stabn	68,0,167,.LM13-.LFBB5
 196               	.LM13:
 197 003c 0E94 0000 		call _Z13capteurGauchev
 198 0040 8823      		tst r24
 199 0042 01F0      		breq .L6
 168:projet.cpp    **** 		franchieGauche = true;
 200               		.stabn	68,0,168,.LM14-.LFBB5
 201               	.LM14:
 202 0044 81E0      		ldi r24,lo8(1)
 203 0046 8093 0000 		sts franchieGauche,r24
 204               	.L6:
 169:projet.cpp    **** 	if(capteurMilieu())
 205               		.stabn	68,0,169,.LM15-.LFBB5
 206               	.LM15:
 207 004a 0E94 0000 		call _Z13capteurMilieuv
 208 004e 8823      		tst r24
 209 0050 01F0      		breq .L7
 170:projet.cpp    **** 		franchieMilieu = true;
 210               		.stabn	68,0,170,.LM16-.LFBB5
 211               	.LM16:
 212 0052 81E0      		ldi r24,lo8(1)
 213 0054 8093 0000 		sts franchieMilieu,r24
 214               	.L7:
 171:projet.cpp    **** 	if(capteurDroit())
 215               		.stabn	68,0,171,.LM17-.LFBB5
 216               	.LM17:
 217 0058 0E94 0000 		call _Z12capteurDroitv
 218 005c 8823      		tst r24
 219 005e 01F0      		breq .L5
 172:projet.cpp    **** 		franchieDroite = true;
 220               		.stabn	68,0,172,.LM18-.LFBB5
 221               	.LM18:
 222 0060 81E0      		ldi r24,lo8(1)
 223 0062 8093 0000 		sts franchieDroite,r24
 224               	.L5:
 225 0066 0895      		ret
 226               		.size	_Z15ajusterFranchiev, .-_Z15ajusterFranchiev
 227               	.Lscope5:
GAS LISTING /tmp/ccT1kfMR.s 			page 8


 228               		.stabs	"",36,0,0,.Lscope5-.LFBB5
 229               		.stabd	78,0,0
 230               		.stabs	"_Z30ajusterPossibiliteIntersectionv:F(0,4)",36,0,175,_Z30ajusterPossibiliteIntersectionv
 231               	.global	_Z30ajusterPossibiliteIntersectionv
 232               		.type	_Z30ajusterPossibiliteIntersectionv, @function
 233               	_Z30ajusterPossibiliteIntersectionv:
 234               		.stabd	46,0,0
 173:projet.cpp    **** }
 174:projet.cpp    **** 
 175:projet.cpp    **** void ajusterPossibiliteIntersection()//Ajuste les variables de tournant possible
 176:projet.cpp    **** {
 235               		.stabn	68,0,176,.LM19-.LFBB6
 236               	.LM19:
 237               	.LFBB6:
 238 0068 CF93      		push r28
 239               	/* prologue: function */
 240               	/* frame size = 0 */
 241               	/* stack size = 1 */
 242               	.L__stack_usage = 1
 177:projet.cpp    **** 	
 178:projet.cpp    **** 	//La gauche et la droite sont disponible si ils le sont en m√™me temps que le milieu
 179:projet.cpp    **** 	//Sauf dans les cas ou l'on est d√©call√© du c√¥t√© inverse (autrement dit, si l'on est d√©call√© 
 180:projet.cpp    **** 	//	 a le capteur milieu et le capteur gauche, on ne peut rien conclure)
 181:projet.cpp    **** 	if(capteurMilieu() && dernierCapteurIntersection == 2)
 243               		.stabn	68,0,181,.LM20-.LFBB6
 244               	.LM20:
 245 006a 0E94 0000 		call _Z13capteurMilieuv
 246 006e 8823      		tst r24
 247 0070 01F0      		breq .L20
 248               		.stabn	68,0,181,.LM21-.LFBB6
 249               	.LM21:
 250 0072 8091 0000 		lds r24,dernierCapteurIntersection
 251 0076 8230      		cpi r24,lo8(2)
 252 0078 01F4      		brne .L20
 253 007a 00C0      		rjmp .L21
 254               	.L27:
 182:projet.cpp    **** 	{
 183:projet.cpp    **** 		if(capteurGauche())
 184:projet.cpp    **** 			gaucheExiste = true;
 255               		.stabn	68,0,184,.LM22-.LFBB6
 256               	.LM22:
 257 007c 81E0      		ldi r24,lo8(1)
 258 007e 8093 0000 		sts gaucheExiste,r24
 259               	.L28:
 185:projet.cpp    **** 		if(capteurDroit())
 260               		.stabn	68,0,185,.LM23-.LFBB6
 261               	.LM23:
 262 0082 0E94 0000 		call _Z12capteurDroitv
 263 0086 8823      		tst r24
 264 0088 01F0      		breq .L20
 186:projet.cpp    **** 			droiteExiste = true;
 265               		.stabn	68,0,186,.LM24-.LFBB6
 266               	.LM24:
 267 008a 81E0      		ldi r24,lo8(1)
 268 008c 8093 0000 		sts droiteExiste,r24
 269               	.L20:
 187:projet.cpp    **** 	}
GAS LISTING /tmp/ccT1kfMR.s 			page 9


 188:projet.cpp    **** 
 189:projet.cpp    **** 
 190:projet.cpp    **** 	if(dernierCapteurIntersection == 1) //On est a droite de la ligne, puisque le dernier capteur est 
 270               		.stabn	68,0,190,.LM25-.LFBB6
 271               	.LM25:
 272 0090 C091 0000 		lds r28,dernierCapteurIntersection
 273 0094 C130      		cpi r28,lo8(1)
 274 0096 01F4      		brne .L23
 191:projet.cpp    **** 	{
 192:projet.cpp    **** 		//Lorsqu'on est d√©ja d√©call√© a droite, le simple fait d'activer le capteut droit signifie que 
 193:projet.cpp    **** 		if(capteurDroit())
 275               		.stabn	68,0,193,.LM26-.LFBB6
 276               	.LM26:
 277 0098 0E94 0000 		call _Z12capteurDroitv
 278 009c 8823      		tst r24
 279 009e 01F0      		breq .L18
 194:projet.cpp    **** 			droiteExiste = true;
 280               		.stabn	68,0,194,.LM27-.LFBB6
 281               	.LM27:
 282 00a0 C093 0000 		sts droiteExiste,r28
 283 00a4 00C0      		rjmp .L18
 284               	.L23:
 195:projet.cpp    **** 
 196:projet.cpp    **** 		//Pour pouvoir d√©terminer si le milieu existe, 
 197:projet.cpp    **** 	}
 198:projet.cpp    **** 	else if(dernierCapteurIntersection == 3)//On est a gauche de la ligne
 285               		.stabn	68,0,198,.LM28-.LFBB6
 286               	.LM28:
 287 00a6 C330      		cpi r28,lo8(3)
 288 00a8 01F4      		brne .L18
 199:projet.cpp    **** 	{
 200:projet.cpp    **** 		//Lorsqu'on est d√©ja d√©call√© a gauche, le simple fait d'activer le capteut gauche signifie que
 201:projet.cpp    **** 		if(capteurGauche())
 289               		.stabn	68,0,201,.LM29-.LFBB6
 290               	.LM29:
 291 00aa 0E94 0000 		call _Z13capteurGauchev
 292 00ae 8823      		tst r24
 293 00b0 01F0      		breq .L18
 202:projet.cpp    **** 			gaucheExiste = true;
 294               		.stabn	68,0,202,.LM30-.LFBB6
 295               	.LM30:
 296 00b2 81E0      		ldi r24,lo8(1)
 297 00b4 8093 0000 		sts gaucheExiste,r24
 298 00b8 00C0      		rjmp .L18
 299               	.L21:
 183:projet.cpp    **** 		if(capteurGauche())
 300               		.stabn	68,0,183,.LM31-.LFBB6
 301               	.LM31:
 302 00ba 0E94 0000 		call _Z13capteurGauchev
 303 00be 8111      		cpse r24,__zero_reg__
 304 00c0 00C0      		rjmp .L27
 305 00c2 00C0      		rjmp .L28
 306               	.L18:
 307               	/* epilogue start */
 203:projet.cpp    **** 	}
 204:projet.cpp    **** }
 308               		.stabn	68,0,204,.LM32-.LFBB6
GAS LISTING /tmp/ccT1kfMR.s 			page 10


 309               	.LM32:
 310 00c4 CF91      		pop r28
 311 00c6 0895      		ret
 312               		.size	_Z30ajusterPossibiliteIntersectionv, .-_Z30ajusterPossibiliteIntersectionv
 313               	.Lscope6:
 314               		.stabs	"",36,0,0,.Lscope6-.LFBB6
 315               		.stabd	78,0,0
 316               		.stabs	"_Z20detecterIntersectionv:F(0,24)",36,0,207,_Z20detecterIntersectionv
 317               	.global	_Z20detecterIntersectionv
 318               		.type	_Z20detecterIntersectionv, @function
 319               	_Z20detecterIntersectionv:
 320               		.stabd	46,0,0
 205:projet.cpp    **** 
 206:projet.cpp    **** 
 207:projet.cpp    **** bool detecterIntersection() //Return true si une intersection est trouv√©
 208:projet.cpp    **** {
 321               		.stabn	68,0,208,.LM33-.LFBB7
 322               	.LM33:
 323               	.LFBB7:
 324               	/* prologue: function */
 325               	/* frame size = 0 */
 326               	/* stack size = 0 */
 327               	.L__stack_usage = 0
 209:projet.cpp    **** 	return (capteurMilieu() && (capteurGauche() || capteurDroit()));
 328               		.stabn	68,0,209,.LM34-.LFBB7
 329               	.LM34:
 330 00c8 0E94 0000 		call _Z13capteurMilieuv
 331 00cc 8823      		tst r24
 332 00ce 01F0      		breq .L37
 333               		.stabn	68,0,209,.LM35-.LFBB7
 334               	.LM35:
 335 00d0 0E94 0000 		call _Z13capteurGauchev
 336 00d4 8111      		cpse r24,__zero_reg__
 337 00d6 00C0      		rjmp .L38
 338               	.LBB7:
 339               	.LBB8:
 340               		.stabn	68,0,209,.LM36-.LFBB7
 341               	.LM36:
 342 00d8 0C94 0000 		jmp _Z12capteurDroitv
 343               	.L37:
 344               	.LBE8:
 345               	.LBE7:
 346 00dc 80E0      		ldi r24,0
 347 00de 0895      		ret
 348               	.L38:
 349 00e0 81E0      		ldi r24,lo8(1)
 210:projet.cpp    **** }
 350               		.stabn	68,0,210,.LM37-.LFBB7
 351               	.LM37:
 352 00e2 0895      		ret
 353               		.size	_Z20detecterIntersectionv, .-_Z20detecterIntersectionv
 354               	.Lscope7:
 355               		.stabs	"",36,0,0,.Lscope7-.LFBB7
 356               		.stabd	78,0,0
 357               		.stabs	"_Z6perduev:F(0,24)",36,0,212,_Z6perduev
 358               	.global	_Z6perduev
 359               		.type	_Z6perduev, @function
GAS LISTING /tmp/ccT1kfMR.s 			page 11


 360               	_Z6perduev:
 361               		.stabd	46,0,0
 211:projet.cpp    **** 
 212:projet.cpp    **** bool perdue()
 213:projet.cpp    **** {
 362               		.stabn	68,0,213,.LM38-.LFBB8
 363               	.LM38:
 364               	.LFBB8:
 365               	/* prologue: function */
 366               	/* frame size = 0 */
 367               	/* stack size = 0 */
 368               	.L__stack_usage = 0
 214:projet.cpp    **** 	return (!capteurDroit() && !capteurMilieu() && !capteurGauche());
 369               		.stabn	68,0,214,.LM39-.LFBB8
 370               	.LM39:
 371 00e4 0E94 0000 		call _Z12capteurDroitv
 372 00e8 8823      		tst r24
 373 00ea 01F0      		breq .L40
 374               	.L42:
 375 00ec 90E0      		ldi r25,0
 376 00ee 00C0      		rjmp .L41
 377               	.L40:
 378               		.stabn	68,0,214,.LM40-.LFBB8
 379               	.LM40:
 380 00f0 0E94 0000 		call _Z13capteurMilieuv
 381 00f4 8111      		cpse r24,__zero_reg__
 382 00f6 00C0      		rjmp .L42
 383               	.LBB11:
 384               	.LBB12:
 385               		.stabn	68,0,214,.LM41-.LFBB8
 386               	.LM41:
 387 00f8 0E94 0000 		call _Z13capteurGauchev
 388 00fc 91E0      		ldi r25,lo8(1)
 389 00fe 9827      		eor r25,r24
 390               	.L41:
 391               	.LBE12:
 392               	.LBE11:
 215:projet.cpp    **** }
 393               		.stabn	68,0,215,.LM42-.LFBB8
 394               	.LM42:
 395 0100 892F      		mov r24,r25
 396 0102 0895      		ret
 397               		.size	_Z6perduev, .-_Z6perduev
 398               	.Lscope8:
 399               		.stabs	"",36,0,0,.Lscope8-.LFBB8
 400               		.stabd	78,0,0
 401               		.stabs	"_Z37tomberEnModerDetecterTypeIntersectionb:F(0,4)",36,0,217,_Z37tomberEnModerDetecterTypeI
 402               		.stabs	"force:P(0,24)",64,0,217,24
 403               	.global	_Z37tomberEnModerDetecterTypeIntersectionb
 404               		.type	_Z37tomberEnModerDetecterTypeIntersectionb, @function
 405               	_Z37tomberEnModerDetecterTypeIntersectionb:
 406               		.stabd	46,0,0
 216:projet.cpp    **** 
 217:projet.cpp    **** void tomberEnModerDetecterTypeIntersection(bool force) //bool force, d√©termine si on est en d√©tec
 218:projet.cpp    **** {
 407               		.stabn	68,0,218,.LM43-.LFBB9
 408               	.LM43:
GAS LISTING /tmp/ccT1kfMR.s 			page 12


 409               	.LFBB9:
 410               	/* prologue: function */
 411               	/* frame size = 0 */
 412               	/* stack size = 0 */
 413               	.L__stack_usage = 0
 219:projet.cpp    **** 	virageForce = force;
 414               		.stabn	68,0,219,.LM44-.LFBB9
 415               	.LM44:
 416 0104 8093 0000 		sts virageForce,r24
 220:projet.cpp    **** 	tempsDepuisIntersection = 0;
 417               		.stabn	68,0,220,.LM45-.LFBB9
 418               	.LM45:
 419 0108 1092 0000 		sts tempsDepuisIntersection+1,__zero_reg__
 420 010c 1092 0000 		sts tempsDepuisIntersection,__zero_reg__
 221:projet.cpp    **** 	tempsLigneDroiteActive = 0;
 421               		.stabn	68,0,221,.LM46-.LFBB9
 422               	.LM46:
 423 0110 1092 0000 		sts tempsLigneDroiteActive+1,__zero_reg__
 424 0114 1092 0000 		sts tempsLigneDroiteActive,__zero_reg__
 222:projet.cpp    **** 	tempsLigneDroiteDepuisIntersection = 0;
 425               		.stabn	68,0,222,.LM47-.LFBB9
 426               	.LM47:
 427 0118 1092 0000 		sts tempsLigneDroiteDepuisIntersection+1,__zero_reg__
 428 011c 1092 0000 		sts tempsLigneDroiteDepuisIntersection,__zero_reg__
 223:projet.cpp    **** 	tempsActifSansCapteur = 0;
 429               		.stabn	68,0,223,.LM48-.LFBB9
 430               	.LM48:
 431 0120 1092 0000 		sts tempsActifSansCapteur+1,__zero_reg__
 432 0124 1092 0000 		sts tempsActifSansCapteur,__zero_reg__
 224:projet.cpp    **** 	varianceVitesseVirage = 0;
 433               		.stabn	68,0,224,.LM49-.LFBB9
 434               	.LM49:
 435 0128 1092 0000 		sts varianceVitesseVirage,__zero_reg__
 225:projet.cpp    **** 	
 226:projet.cpp    **** 	//Changer en mode Trouver intersection
 227:projet.cpp    **** 	modeLigneDroite = false;
 436               		.stabn	68,0,227,.LM50-.LFBB9
 437               	.LM50:
 438 012c 1092 0000 		sts modeLigneDroite,__zero_reg__
 228:projet.cpp    **** 	modeIntersection = true;
 439               		.stabn	68,0,228,.LM51-.LFBB9
 440               	.LM51:
 441 0130 81E0      		ldi r24,lo8(1)
 442 0132 8093 0000 		sts modeIntersection,r24
 229:projet.cpp    **** 
 230:projet.cpp    **** 	franchieGauche = false;
 443               		.stabn	68,0,230,.LM52-.LFBB9
 444               	.LM52:
 445 0136 1092 0000 		sts franchieGauche,__zero_reg__
 231:projet.cpp    **** 	franchieMilieu = false;
 446               		.stabn	68,0,231,.LM53-.LFBB9
 447               	.LM53:
 448 013a 1092 0000 		sts franchieMilieu,__zero_reg__
 232:projet.cpp    **** 	franchieDroite = false;
 449               		.stabn	68,0,232,.LM54-.LFBB9
 450               	.LM54:
 451 013e 1092 0000 		sts franchieDroite,__zero_reg__
GAS LISTING /tmp/ccT1kfMR.s 			page 13


 233:projet.cpp    **** 
 234:projet.cpp    **** 	gaucheExiste = false;
 452               		.stabn	68,0,234,.LM55-.LFBB9
 453               	.LM55:
 454 0142 1092 0000 		sts gaucheExiste,__zero_reg__
 235:projet.cpp    **** 	droiteExiste = false;
 455               		.stabn	68,0,235,.LM56-.LFBB9
 456               	.LM56:
 457 0146 1092 0000 		sts droiteExiste,__zero_reg__
 236:projet.cpp    **** 	milieuExiste = false;
 458               		.stabn	68,0,236,.LM57-.LFBB9
 459               	.LM57:
 460 014a 1092 0000 		sts milieuExiste,__zero_reg__
 237:projet.cpp    **** 
 238:projet.cpp    **** 	tempsIntersection = 0;
 461               		.stabn	68,0,238,.LM58-.LFBB9
 462               	.LM58:
 463 014e 1092 0000 		sts tempsIntersection+1,__zero_reg__
 464 0152 1092 0000 		sts tempsIntersection,__zero_reg__
 239:projet.cpp    **** 	tempsActif = 0;
 465               		.stabn	68,0,239,.LM59-.LFBB9
 466               	.LM59:
 467 0156 1092 0000 		sts tempsActif+1,__zero_reg__
 468 015a 1092 0000 		sts tempsActif,__zero_reg__
 240:projet.cpp    **** 	dernierCapteurIntersection = dernierCapteur;
 469               		.stabn	68,0,240,.LM60-.LFBB9
 470               	.LM60:
 471 015e 8091 0000 		lds r24,dernierCapteur
 472 0162 8093 0000 		sts dernierCapteurIntersection,r24
 473 0166 0895      		ret
 474               		.size	_Z37tomberEnModerDetecterTypeIntersectionb, .-_Z37tomberEnModerDetecterTypeIntersectionb
 475               	.Lscope9:
 476               		.stabs	"",36,0,0,.Lscope9-.LFBB9
 477               		.stabd	78,0,0
 478               		.stabs	"_Z26determinerTypeIntersectionv:F(0,24)",36,0,243,_Z26determinerTypeIntersectionv
 479               	.global	_Z26determinerTypeIntersectionv
 480               		.type	_Z26determinerTypeIntersectionv, @function
 481               	_Z26determinerTypeIntersectionv:
 482               		.stabd	46,0,0
 241:projet.cpp    **** }
 242:projet.cpp    **** 
 243:projet.cpp    **** bool determinerTypeIntersection() //return true si le type est trouv√©, false sinon
 244:projet.cpp    **** {
 483               		.stabn	68,0,244,.LM61-.LFBB10
 484               	.LM61:
 485               	.LFBB10:
 486               	/* prologue: function */
 487               	/* frame size = 0 */
 488               	/* stack size = 0 */
 489               	.L__stack_usage = 0
 245:projet.cpp    **** 	//V√©rifier si on passe en mode detecter intersection normale
 246:projet.cpp    **** 	if(virageForce && detecterIntersection()) //Dans quel cas, on retourne en mode detecter intersecti
 490               		.stabn	68,0,246,.LM62-.LFBB10
 491               	.LM62:
 492 0168 8091 0000 		lds r24,virageForce
 493 016c 8823      		tst r24
 494 016e 01F0      		breq .L54
GAS LISTING /tmp/ccT1kfMR.s 			page 14


 495               		.stabn	68,0,246,.LM63-.LFBB10
 496               	.LM63:
 497 0170 0E94 0000 		call _Z20detecterIntersectionv
 498 0174 8111      		cpse r24,__zero_reg__
 499 0176 00C0      		rjmp .L46
 500               	.L54:
 247:projet.cpp    **** 	{
 248:projet.cpp    **** 		//Reseter la d√©tection d'intersection
 249:projet.cpp    **** 		tomberEnModerDetecterTypeIntersection(false);		
 250:projet.cpp    **** 	}
 251:projet.cpp    **** 
 252:projet.cpp    **** 	tempsIntersection += 10;
 501               		.stabn	68,0,252,.LM64-.LFBB10
 502               	.LM64:
 503 0178 8091 0000 		lds r24,tempsIntersection
 504 017c 9091 0000 		lds r25,tempsIntersection+1
 505 0180 0A96      		adiw r24,10
 506 0182 9093 0000 		sts tempsIntersection+1,r25
 507 0186 8093 0000 		sts tempsIntersection,r24
 253:projet.cpp    **** 	if(!perdue())	//Si au moins 1 capteurs actif augmenter le temps actif
 508               		.stabn	68,0,253,.LM65-.LFBB10
 509               	.LM65:
 510 018a 0E94 0000 		call _Z6perduev
 511 018e 8111      		cpse r24,__zero_reg__
 512 0190 00C0      		rjmp .L47
 254:projet.cpp    **** 		tempsActif +=10;
 513               		.stabn	68,0,254,.LM66-.LFBB10
 514               	.LM66:
 515 0192 8091 0000 		lds r24,tempsActif
 516 0196 9091 0000 		lds r25,tempsActif+1
 517 019a 0A96      		adiw r24,10
 518 019c 9093 0000 		sts tempsActif+1,r25
 519 01a0 8093 0000 		sts tempsActif,r24
 520               	.L47:
 255:projet.cpp    **** 
 256:projet.cpp    **** 	if(tempsActif >= seuilTempsActifToutDroit)
 521               		.stabn	68,0,256,.LM67-.LFBB10
 522               	.LM67:
 523 01a4 2091 0000 		lds r18,tempsActif
 524 01a8 3091 0000 		lds r19,tempsActif+1
 525 01ac 8091 0000 		lds r24,seuilTempsActifToutDroit
 526 01b0 9091 0000 		lds r25,seuilTempsActifToutDroit+1
 527 01b4 2817      		cp r18,r24
 528 01b6 3907      		cpc r19,r25
 529 01b8 00F0      		brlo .L48
 257:projet.cpp    **** 		milieuExiste = true;
 530               		.stabn	68,0,257,.LM68-.LFBB10
 531               	.LM68:
 532 01ba 81E0      		ldi r24,lo8(1)
 533 01bc 8093 0000 		sts milieuExiste,r24
 534               	.L48:
 258:projet.cpp    **** 
 259:projet.cpp    **** 	//Si au moins la moiti√© du temps a √©t√© pass√©, qu'on est en virage forc√©, qu'aucun capteur est
 260:projet.cpp    **** 	//prendre une d√©cision tout de suite
 261:projet.cpp    **** 	if(perdue() && tempsActif < 120 && tempsIntersection > tempsIntersectionMax>>1 && virageForce)
 535               		.stabn	68,0,261,.LM69-.LFBB10
 536               	.LM69:
GAS LISTING /tmp/ccT1kfMR.s 			page 15


 537 01c0 0E94 0000 		call _Z6perduev
 538 01c4 4091 0000 		lds r20,tempsIntersection
 539 01c8 5091 0000 		lds r21,tempsIntersection+1
 540 01cc 2091 0000 		lds r18,tempsIntersectionMax
 541 01d0 3091 0000 		lds r19,tempsIntersectionMax+1
 542 01d4 8823      		tst r24
 543 01d6 01F4      		brne .+2
 544 01d8 00C0      		rjmp .L49
 545               		.stabn	68,0,261,.LM70-.LFBB10
 546               	.LM70:
 547 01da 8091 0000 		lds r24,tempsActif
 548 01de 9091 0000 		lds r25,tempsActif+1
 549 01e2 8837      		cpi r24,120
 550 01e4 9105      		cpc r25,__zero_reg__
 551 01e6 00F4      		brsh .L49
 552               		.stabn	68,0,261,.LM71-.LFBB10
 553               	.LM71:
 554 01e8 C901      		movw r24,r18
 555 01ea 9695      		lsr r25
 556 01ec 8795      		ror r24
 557 01ee 8417      		cp r24,r20
 558 01f0 9507      		cpc r25,r21
 559 01f2 00F4      		brsh .L49
 560               		.stabn	68,0,261,.LM72-.LFBB10
 561               	.LM72:
 562 01f4 8091 0000 		lds r24,virageForce
 563 01f8 8111      		cpse r24,__zero_reg__
 564 01fa 00C0      		rjmp .L50
 565 01fc 00C0      		rjmp .L49
 566               	.L55:
 262:projet.cpp    **** 	{
 263:projet.cpp    **** 		//Ici on recule peu importe, √©tant donn√© qu'aucune intersection n'a √©t√© d√©tect√©, sans quoi 
 264:projet.cpp    **** 		franchieDroite = false;
 265:projet.cpp    **** 		franchieGauche = false;
 266:projet.cpp    **** 		franchieMilieu = false;
 267:projet.cpp    **** 		return true;
 268:projet.cpp    **** 	}
 269:projet.cpp    **** 
 270:projet.cpp    **** 	if(tempsIntersection >= tempsIntersectionMax) //Le temps est √©coul√©, prendre une decision
 271:projet.cpp    **** 	{
 272:projet.cpp    **** 
 273:projet.cpp    **** 		if(!franchieDroite)
 567               		.stabn	68,0,273,.LM73-.LFBB10
 568               	.LM73:
 569 01fe 8091 0000 		lds r24,franchieDroite
 570 0202 8111      		cpse r24,__zero_reg__
 571 0204 00C0      		rjmp .L51
 274:projet.cpp    **** 		{	
 275:projet.cpp    **** 			droiteExiste = false;
 572               		.stabn	68,0,275,.LM74-.LFBB10
 573               	.LM74:
 574 0206 1092 0000 		sts droiteExiste,__zero_reg__
 276:projet.cpp    **** 			gaucheExiste = true;
 575               		.stabn	68,0,276,.LM75-.LFBB10
 576               	.LM75:
 577 020a 81E0      		ldi r24,lo8(1)
 578 020c 8093 0000 		sts gaucheExiste,r24
GAS LISTING /tmp/ccT1kfMR.s 			page 16


 579 0210 0895      		ret
 580               	.L51:
 277:projet.cpp    **** 		}
 278:projet.cpp    **** 		else if(!franchieGauche)
 581               		.stabn	68,0,278,.LM76-.LFBB10
 582               	.LM76:
 583 0212 8091 0000 		lds r24,franchieGauche
 584 0216 8111      		cpse r24,__zero_reg__
 585 0218 00C0      		rjmp .L73
 279:projet.cpp    **** 		{	
 280:projet.cpp    **** 			droiteExiste = true;
 586               		.stabn	68,0,280,.LM77-.LFBB10
 587               	.LM77:
 588 021a 81E0      		ldi r24,lo8(1)
 589 021c 8093 0000 		sts droiteExiste,r24
 281:projet.cpp    **** 			gaucheExiste = false;
 590               		.stabn	68,0,281,.LM78-.LFBB10
 591               	.LM78:
 592 0220 1092 0000 		sts gaucheExiste,__zero_reg__
 593 0224 0895      		ret
 594               	.L72:
 282:projet.cpp    **** 		}
 283:projet.cpp    **** 
 284:projet.cpp    **** 		return true;
 285:projet.cpp    **** 	}
 286:projet.cpp    **** 
 287:projet.cpp    **** 	if(gaucheExiste && milieuExiste && droiteExiste)//Si tous le type d'intersection sont permis, arr√
 595               		.stabn	68,0,287,.LM79-.LFBB10
 596               	.LM79:
 597 0226 8091 0000 		lds r24,gaucheExiste
 598 022a 8823      		tst r24
 599 022c 01F0      		breq .L53
 600               		.stabn	68,0,287,.LM80-.LFBB10
 601               	.LM80:
 602 022e 8091 0000 		lds r24,milieuExiste
 603 0232 8823      		tst r24
 604 0234 01F0      		breq .L53
 605               		.stabn	68,0,287,.LM81-.LFBB10
 606               	.LM81:
 607 0236 8091 0000 		lds r24,droiteExiste
 608 023a 8111      		cpse r24,__zero_reg__
 609 023c 00C0      		rjmp .L73
 610               	.L53:
 288:projet.cpp    **** 	{
 289:projet.cpp    **** 		return true;
 290:projet.cpp    **** 	}
 291:projet.cpp    **** 
 292:projet.cpp    **** 	ajusterFranchie();
 611               		.stabn	68,0,292,.LM82-.LFBB10
 612               	.LM82:
 613 023e 0E94 0000 		call _Z15ajusterFranchiev
 293:projet.cpp    **** 	ajusterPossibiliteIntersection();
 614               		.stabn	68,0,293,.LM83-.LFBB10
 615               	.LM83:
 616 0242 0E94 0000 		call _Z30ajusterPossibiliteIntersectionv
 294:projet.cpp    **** 
 295:projet.cpp    **** 	return false;
GAS LISTING /tmp/ccT1kfMR.s 			page 17


 617               		.stabn	68,0,295,.LM84-.LFBB10
 618               	.LM84:
 619 0246 80E0      		ldi r24,0
 620 0248 0895      		ret
 621               	.L46:
 249:projet.cpp    **** 		tomberEnModerDetecterTypeIntersection(false);		
 622               		.stabn	68,0,249,.LM85-.LFBB10
 623               	.LM85:
 624 024a 80E0      		ldi r24,0
 625 024c 0E94 0000 		call _Z37tomberEnModerDetecterTypeIntersectionb
 626 0250 00C0      		rjmp .L54
 627               	.L50:
 264:projet.cpp    **** 		franchieDroite = false;
 628               		.stabn	68,0,264,.LM86-.LFBB10
 629               	.LM86:
 630 0252 1092 0000 		sts franchieDroite,__zero_reg__
 265:projet.cpp    **** 		franchieGauche = false;
 631               		.stabn	68,0,265,.LM87-.LFBB10
 632               	.LM87:
 633 0256 1092 0000 		sts franchieGauche,__zero_reg__
 266:projet.cpp    **** 		franchieMilieu = false;
 634               		.stabn	68,0,266,.LM88-.LFBB10
 635               	.LM88:
 636 025a 1092 0000 		sts franchieMilieu,__zero_reg__
 637               	.L73:
 267:projet.cpp    **** 		return true;
 638               		.stabn	68,0,267,.LM89-.LFBB10
 639               	.LM89:
 640 025e 81E0      		ldi r24,lo8(1)
 641 0260 0895      		ret
 642               	.L49:
 270:projet.cpp    **** 	if(tempsIntersection >= tempsIntersectionMax) //Le temps est √©coul√©, prendre une decision
 643               		.stabn	68,0,270,.LM90-.LFBB10
 644               	.LM90:
 645 0262 4217      		cp r20,r18
 646 0264 5307      		cpc r21,r19
 647 0266 00F4      		brsh .L55
 648 0268 00C0      		rjmp .L72
 649               		.size	_Z26determinerTypeIntersectionv, .-_Z26determinerTypeIntersectionv
 650               	.Lscope10:
 651               		.stabs	"",36,0,0,.Lscope10-.LFBB10
 652               		.stabd	78,0,0
 653               		.stabs	"_Z21ajusterDernierCapteurv:F(0,4)",36,0,298,_Z21ajusterDernierCapteurv
 654               	.global	_Z21ajusterDernierCapteurv
 655               		.type	_Z21ajusterDernierCapteurv, @function
 656               	_Z21ajusterDernierCapteurv:
 657               		.stabd	46,0,0
 296:projet.cpp    **** }
 297:projet.cpp    **** 
 298:projet.cpp    **** void ajusterDernierCapteur()
 299:projet.cpp    **** {
 658               		.stabn	68,0,299,.LM91-.LFBB11
 659               	.LM91:
 660               	.LFBB11:
 661               	/* prologue: function */
 662               	/* frame size = 0 */
 663               	/* stack size = 0 */
GAS LISTING /tmp/ccT1kfMR.s 			page 18


 664               	.L__stack_usage = 0
 300:projet.cpp    **** 	if(capteurDroit())
 665               		.stabn	68,0,300,.LM92-.LFBB11
 666               	.LM92:
 667 026a 0E94 0000 		call _Z12capteurDroitv
 668 026e 8823      		tst r24
 669 0270 01F0      		breq .L75
 301:projet.cpp    **** 		dernierCapteur = 3;
 670               		.stabn	68,0,301,.LM93-.LFBB11
 671               	.LM93:
 672 0272 83E0      		ldi r24,lo8(3)
 673 0274 8093 0000 		sts dernierCapteur,r24
 674               	.L75:
 302:projet.cpp    **** 	if(capteurMilieu())
 675               		.stabn	68,0,302,.LM94-.LFBB11
 676               	.LM94:
 677 0278 0E94 0000 		call _Z13capteurMilieuv
 678 027c 8823      		tst r24
 679 027e 01F0      		breq .L76
 303:projet.cpp    **** 		dernierCapteur = 2;
 680               		.stabn	68,0,303,.LM95-.LFBB11
 681               	.LM95:
 682 0280 82E0      		ldi r24,lo8(2)
 683 0282 8093 0000 		sts dernierCapteur,r24
 684               	.L76:
 304:projet.cpp    **** 	if(capteurGauche())
 685               		.stabn	68,0,304,.LM96-.LFBB11
 686               	.LM96:
 687 0286 0E94 0000 		call _Z13capteurGauchev
 688 028a 8823      		tst r24
 689 028c 01F0      		breq .L74
 305:projet.cpp    **** 		dernierCapteur = 1;	
 690               		.stabn	68,0,305,.LM97-.LFBB11
 691               	.LM97:
 692 028e 81E0      		ldi r24,lo8(1)
 693 0290 8093 0000 		sts dernierCapteur,r24
 694               	.L74:
 695 0294 0895      		ret
 696               		.size	_Z21ajusterDernierCapteurv, .-_Z21ajusterDernierCapteurv
 697               	.Lscope11:
 698               		.stabs	"",36,0,0,.Lscope11-.LFBB11
 699               		.stabd	78,0,0
 700               		.stabs	"_Z17limiterAjustementv:F(0,4)",36,0,308,_Z17limiterAjustementv
 701               	.global	_Z17limiterAjustementv
 702               		.type	_Z17limiterAjustementv, @function
 703               	_Z17limiterAjustementv:
 704               		.stabd	46,0,0
 306:projet.cpp    **** }
 307:projet.cpp    **** 
 308:projet.cpp    **** void limiterAjustement()
 309:projet.cpp    **** {
 705               		.stabn	68,0,309,.LM98-.LFBB12
 706               	.LM98:
 707               	.LFBB12:
 708               	/* prologue: function */
 709               	/* frame size = 0 */
 710               	/* stack size = 0 */
GAS LISTING /tmp/ccT1kfMR.s 			page 19


 711               	.L__stack_usage = 0
 310:projet.cpp    **** 	if(ajustementGauche > ajustementMax)
 712               		.stabn	68,0,310,.LM99-.LFBB12
 713               	.LM99:
 714 0296 8091 0000 		lds r24,ajustementMax
 715 029a 9091 0000 		lds r25,ajustementGauche
 716 029e 8917      		cp r24,r25
 717 02a0 04F4      		brge .L88
 311:projet.cpp    **** 		ajustementGauche = ajustementMax;
 718               		.stabn	68,0,311,.LM100-.LFBB12
 719               	.LM100:
 720 02a2 8093 0000 		sts ajustementGauche,r24
 721               	.L88:
 312:projet.cpp    **** 	if(ajustementDroit > ajustementMax)
 722               		.stabn	68,0,312,.LM101-.LFBB12
 723               	.LM101:
 724 02a6 9091 0000 		lds r25,ajustementDroit
 725 02aa 8917      		cp r24,r25
 726 02ac 04F4      		brge .L89
 313:projet.cpp    **** 		ajustementDroit = ajustementMax;
 727               		.stabn	68,0,313,.LM102-.LFBB12
 728               	.LM102:
 729 02ae 8093 0000 		sts ajustementDroit,r24
 730               	.L89:
 314:projet.cpp    **** 
 315:projet.cpp    **** 	if(ajustementGauche < ajustementMin)
 731               		.stabn	68,0,315,.LM103-.LFBB12
 732               	.LM103:
 733 02b2 8091 0000 		lds r24,ajustementMin
 734 02b6 9091 0000 		lds r25,ajustementGauche
 735 02ba 9817      		cp r25,r24
 736 02bc 04F4      		brge .L90
 316:projet.cpp    **** 		ajustementGauche = ajustementMin;
 737               		.stabn	68,0,316,.LM104-.LFBB12
 738               	.LM104:
 739 02be 8093 0000 		sts ajustementGauche,r24
 740               	.L90:
 317:projet.cpp    **** 	if(ajustementDroit < ajustementMin)
 741               		.stabn	68,0,317,.LM105-.LFBB12
 742               	.LM105:
 743 02c2 9091 0000 		lds r25,ajustementDroit
 744 02c6 9817      		cp r25,r24
 745 02c8 04F4      		brge .L87
 318:projet.cpp    **** 		ajustementDroit = ajustementMin;
 746               		.stabn	68,0,318,.LM106-.LFBB12
 747               	.LM106:
 748 02ca 8093 0000 		sts ajustementDroit,r24
 749               	.L87:
 750 02ce 0895      		ret
 751               		.size	_Z17limiterAjustementv, .-_Z17limiterAjustementv
 752               	.Lscope12:
 753               		.stabs	"",36,0,0,.Lscope12-.LFBB12
 754               		.stabd	78,0,0
 755               		.stabs	"_Z17ajustementVitesseb:F(0,4)",36,0,321,_Z17ajustementVitesseb
 756               		.stabs	"sens:P(0,24)",64,0,321,24
 757               	.global	_Z17ajustementVitesseb
 758               		.type	_Z17ajustementVitesseb, @function
GAS LISTING /tmp/ccT1kfMR.s 			page 20


 759               	_Z17ajustementVitesseb:
 760               		.stabd	46,0,0
 319:projet.cpp    **** }
 320:projet.cpp    **** 
 321:projet.cpp    **** void ajustementVitesse(bool sens)
 322:projet.cpp    **** {
 761               		.stabn	68,0,322,.LM107-.LFBB13
 762               	.LM107:
 763               	.LFBB13:
 764               	/* prologue: function */
 765               	/* frame size = 0 */
 766               	/* stack size = 0 */
 767               	.L__stack_usage = 0
 323:projet.cpp    **** 	delaisLigneDroite++;
 768               		.stabn	68,0,323,.LM108-.LFBB13
 769               	.LM108:
 770 02d0 2091 0000 		lds r18,delaisLigneDroite
 771 02d4 3091 0000 		lds r19,delaisLigneDroite+1
 772 02d8 2F5F      		subi r18,-1
 773 02da 3F4F      		sbci r19,-1
 774 02dc 3093 0000 		sts delaisLigneDroite+1,r19
 775 02e0 2093 0000 		sts delaisLigneDroite,r18
 324:projet.cpp    **** 	if(delaisLigneDroite >= delaisMaxLigneDroite)
 776               		.stabn	68,0,324,.LM109-.LFBB13
 777               	.LM109:
 778 02e4 4091 0000 		lds r20,delaisMaxLigneDroite
 779 02e8 5091 0000 		lds r21,delaisMaxLigneDroite+1
 780 02ec 2417      		cp r18,r20
 781 02ee 3507      		cpc r19,r21
 782 02f0 00F0      		brlo .L92
 325:projet.cpp    **** 	{
 326:projet.cpp    **** 		delaisLigneDroite = 0;
 783               		.stabn	68,0,326,.LM110-.LFBB13
 784               	.LM110:
 785 02f2 1092 0000 		sts delaisLigneDroite+1,__zero_reg__
 786 02f6 1092 0000 		sts delaisLigneDroite,__zero_reg__
 787 02fa 2091 0000 		lds r18,ajustementGauche
 788 02fe 9091 0000 		lds r25,ajustementDroit
 327:projet.cpp    **** 		if(sens)
 789               		.stabn	68,0,327,.LM111-.LFBB13
 790               	.LM111:
 791 0302 8823      		tst r24
 792 0304 01F0      		breq .L94
 793               	.LBB15:
 794               	.LBB16:
 328:projet.cpp    **** 		{
 329:projet.cpp    **** 			ajustementGauche++;
 795               		.stabn	68,0,329,.LM112-.LFBB13
 796               	.LM112:
 797 0306 2F5F      		subi r18,lo8(-(1))
 798 0308 2093 0000 		sts ajustementGauche,r18
 330:projet.cpp    **** 			ajustementDroit--;
 799               		.stabn	68,0,330,.LM113-.LFBB13
 800               	.LM113:
 801 030c 9150      		subi r25,lo8(-(-1))
 802 030e 00C0      		rjmp .L95
 803               	.L94:
GAS LISTING /tmp/ccT1kfMR.s 			page 21


 804               	.LBE16:
 805               	.LBE15:
 331:projet.cpp    **** 			limiterAjustement();
 332:projet.cpp    **** 		}
 333:projet.cpp    **** 		else
 334:projet.cpp    **** 		{
 335:projet.cpp    **** 			ajustementGauche--;
 806               		.stabn	68,0,335,.LM114-.LFBB13
 807               	.LM114:
 808 0310 2150      		subi r18,lo8(-(-1))
 809 0312 2093 0000 		sts ajustementGauche,r18
 336:projet.cpp    **** 			ajustementDroit++;
 810               		.stabn	68,0,336,.LM115-.LFBB13
 811               	.LM115:
 812 0316 9F5F      		subi r25,lo8(-(1))
 813               	.L95:
 814 0318 9093 0000 		sts ajustementDroit,r25
 337:projet.cpp    **** 			limiterAjustement();
 815               		.stabn	68,0,337,.LM116-.LFBB13
 816               	.LM116:
 817 031c 0C94 0000 		jmp _Z17limiterAjustementv
 818               	.L92:
 819 0320 0895      		ret
 820               		.size	_Z17ajustementVitesseb, .-_Z17ajustementVitesseb
 821               	.Lscope13:
 822               		.stabs	"",36,0,0,.Lscope13-.LFBB13
 823               		.stabd	78,0,0
 824               		.stabs	"_Z21avancerAvecAjustementii:F(0,4)",36,0,342,_Z21avancerAvecAjustementii
 825               	.global	_Z21avancerAvecAjustementii
 826               		.type	_Z21avancerAvecAjustementii, @function
 827               	_Z21avancerAvecAjustementii:
 828               		.stabd	46,0,0
 338:projet.cpp    **** 		}
 339:projet.cpp    **** 	}
 340:projet.cpp    **** }
 341:projet.cpp    **** 
 342:projet.cpp    **** void avancerAvecAjustement(int16_t vG, int16_t vD)
 343:projet.cpp    **** {
 829               		.stabn	68,0,343,.LM117-.LFBB14
 830               	.LM117:
 831               	.LFBB14:
 832               	/* prologue: function */
 833               	/* frame size = 0 */
 834               	/* stack size = 0 */
 835               	.L__stack_usage = 0
 344:projet.cpp    **** 	if(delaisAjustementTemporaire > 0)
 836               		.stabn	68,0,344,.LM118-.LFBB14
 837               	.LM118:
 838 0322 2091 0000 		lds r18,delaisAjustementTemporaire
 839 0326 3091 0000 		lds r19,delaisAjustementTemporaire+1
 840 032a 1216      		cp __zero_reg__,r18
 841 032c 1306      		cpc __zero_reg__,r19
 842 032e 04F4      		brge .L97
 345:projet.cpp    **** 	{
 346:projet.cpp    **** 		r.avancer(vG,vD,ajustementGauche+ajustementTemporaireG, ajustementDroit+ajustementTemporaireD);
 843               		.stabn	68,0,346,.LM119-.LFBB14
 844               	.LM119:
GAS LISTING /tmp/ccT1kfMR.s 			page 22


 845 0330 2091 0000 		lds r18,ajustementTemporaireD
 846 0334 9091 0000 		lds r25,ajustementDroit
 847 0338 290F      		add r18,r25
 848 033a 4091 0000 		lds r20,ajustementTemporaireG
 849 033e 9091 0000 		lds r25,ajustementGauche
 850 0342 490F      		add r20,r25
 851 0344 00C0      		rjmp .L98
 852               	.L97:
 853               	.LBB19:
 854               	.LBB20:
 347:projet.cpp    **** 	}
 348:projet.cpp    **** 	else
 349:projet.cpp    **** 	{
 350:projet.cpp    **** 		r.avancer(vG,vD,ajustementGauche, ajustementDroit);
 855               		.stabn	68,0,350,.LM120-.LFBB14
 856               	.LM120:
 857 0346 2091 0000 		lds r18,ajustementDroit
 858 034a 4091 0000 		lds r20,ajustementGauche
 859               	.L98:
 860 034e 0C94 0000 		jmp _ZN8LibRobot7avancerEhhaa
 861               	.LBE20:
 862               	.LBE19:
 863               		.size	_Z21avancerAvecAjustementii, .-_Z21avancerAvecAjustementii
 864               	.Lscope14:
 865               		.stabs	"",36,0,0,.Lscope14-.LFBB14
 866               		.stabd	78,0,0
 867               		.stabs	"_Z21viragePourLigneDroiteba.part.5:f(0,4)",36,0,364,_Z21viragePourLigneDroiteba.part.5
 868               		.stabs	"ajustementVitesseVirage:P(0,28)",64,0,364,28
 869               		.type	_Z21viragePourLigneDroiteba.part.5, @function
 870               	_Z21viragePourLigneDroiteba.part.5:
 871               		.stabd	46,0,0
 351:projet.cpp    **** 	}
 352:projet.cpp    **** }
 353:projet.cpp    **** 
 354:projet.cpp    **** void reculerAvecAjustement(int16_t vG, int16_t vD)
 355:projet.cpp    **** {
 356:projet.cpp    **** 	if(dernierCapteur == 1) 					//gauche, donc on tourne vers la gauche en reculant
 357:projet.cpp    **** 		r.reculer(vG,0,ajustementGauche, ajustementDroit);
 358:projet.cpp    **** 	else if(dernierCapteur == 3) 					//droite
 359:projet.cpp    **** 		r.reculer(vG,0,ajustementGauche, ajustementDroit);
 360:projet.cpp    **** 	else								//milieu
 361:projet.cpp    **** 		r.reculer(vG,vD,ajustementGauche, ajustementDroit);
 362:projet.cpp    **** }
 363:projet.cpp    **** 
 364:projet.cpp    **** void viragePourLigneDroite(bool sens, int8_t ajustementVitesseVirage)//false gauche, true droite
 872               		.stabn	68,0,364,.LM121-.LFBB15
 873               	.LM121:
 874               	.LFBB15:
 875 0352 CF93      		push r28
 876               	/* prologue: function */
 877               	/* frame size = 0 */
 878               	/* stack size = 1 */
 879               	.L__stack_usage = 1
 880 0354 C82F      		mov r28,r24
 365:projet.cpp    **** {
 366:projet.cpp    **** 	if(sens)//Droite
 367:projet.cpp    **** 	{
GAS LISTING /tmp/ccT1kfMR.s 			page 23


 368:projet.cpp    **** 		//Balancer la vitesse des moteurs pour le futur
 369:projet.cpp    **** 		ajustementVitesse(true);
 881               		.stabn	68,0,369,.LM122-.LFBB15
 882               	.LM122:
 883 0356 81E0      		ldi r24,lo8(1)
 884 0358 0E94 0000 		call _Z17ajustementVitesseb
 370:projet.cpp    **** 		avancerAvecAjustement(vitesseBase + ajustementVitesseVirage, vitesseBase - ajustementVitesseVirag
 885               		.stabn	68,0,370,.LM123-.LFBB15
 886               	.LM123:
 887 035c 2091 0000 		lds r18,vitesseBase
 888 0360 30E0      		ldi r19,0
 889 0362 8C2F      		mov r24,r28
 890 0364 9927      		clr r25
 891 0366 87FD      		sbrc r24,7
 892 0368 9095      		com r25
 893 036a B901      		movw r22,r18
 894 036c 681B      		sub r22,r24
 895 036e 790B      		sbc r23,r25
 896 0370 820F      		add r24,r18
 897 0372 931F      		adc r25,r19
 898               	/* epilogue start */
 371:projet.cpp    **** 	}
 372:projet.cpp    **** 	else//Gauche
 373:projet.cpp    **** 	{
 374:projet.cpp    **** 		//Balancer la vitesse des moteurs pour le futur
 375:projet.cpp    **** 		ajustementVitesse(false);
 376:projet.cpp    **** 		avancerAvecAjustement(vitesseBase - ajustementVitesseVirage, vitesseBase + ajustementVitesseVirag
 377:projet.cpp    **** 	}
 378:projet.cpp    **** }
 899               		.stabn	68,0,378,.LM124-.LFBB15
 900               	.LM124:
 901 0374 CF91      		pop r28
 370:projet.cpp    **** 		avancerAvecAjustement(vitesseBase + ajustementVitesseVirage, vitesseBase - ajustementVitesseVirag
 902               		.stabn	68,0,370,.LM125-.LFBB15
 903               	.LM125:
 904 0376 0C94 0000 		jmp _Z21avancerAvecAjustementii
 905               		.size	_Z21viragePourLigneDroiteba.part.5, .-_Z21viragePourLigneDroiteba.part.5
 906               	.Lscope15:
 907               		.stabs	"",36,0,0,.Lscope15-.LFBB15
 908               		.stabd	78,0,0
 909               		.stabs	"_Z21reculerAvecAjustementii:F(0,4)",36,0,354,_Z21reculerAvecAjustementii
 910               	.global	_Z21reculerAvecAjustementii
 911               		.type	_Z21reculerAvecAjustementii, @function
 912               	_Z21reculerAvecAjustementii:
 913               		.stabd	46,0,0
 355:projet.cpp    **** {
 914               		.stabn	68,0,355,.LM126-.LFBB16
 915               	.LM126:
 916               	.LFBB16:
 917               	/* prologue: function */
 918               	/* frame size = 0 */
 919               	/* stack size = 0 */
 920               	.L__stack_usage = 0
 356:projet.cpp    **** 	if(dernierCapteur == 1) 					//gauche, donc on tourne vers la gauche en reculant
 921               		.stabn	68,0,356,.LM127-.LFBB16
 922               	.LM127:
 923 037a 9091 0000 		lds r25,dernierCapteur
GAS LISTING /tmp/ccT1kfMR.s 			page 24


 357:projet.cpp    **** 		r.reculer(vG,0,ajustementGauche, ajustementDroit);
 924               		.stabn	68,0,357,.LM128-.LFBB16
 925               	.LM128:
 926 037e 2091 0000 		lds r18,ajustementDroit
 927 0382 4091 0000 		lds r20,ajustementGauche
 356:projet.cpp    **** 	if(dernierCapteur == 1) 					//gauche, donc on tourne vers la gauche en reculant
 928               		.stabn	68,0,356,.LM129-.LFBB16
 929               	.LM129:
 930 0386 9130      		cpi r25,lo8(1)
 931 0388 01F4      		brne .L101
 932               	.L102:
 357:projet.cpp    **** 		r.reculer(vG,0,ajustementGauche, ajustementDroit);
 933               		.stabn	68,0,357,.LM130-.LFBB16
 934               	.LM130:
 935 038a 60E0      		ldi r22,0
 936 038c 00C0      		rjmp .L106
 937               	.L101:
 358:projet.cpp    **** 	else if(dernierCapteur == 3) 					//droite
 938               		.stabn	68,0,358,.LM131-.LFBB16
 939               	.LM131:
 940 038e 9330      		cpi r25,lo8(3)
 941 0390 01F0      		breq .L102
 942               	.L106:
 361:projet.cpp    **** 		r.reculer(vG,vD,ajustementGauche, ajustementDroit);
 943               		.stabn	68,0,361,.LM132-.LFBB16
 944               	.LM132:
 945 0392 0C94 0000 		jmp _ZN8LibRobot7reculerEhhaa
 946               		.size	_Z21reculerAvecAjustementii, .-_Z21reculerAvecAjustementii
 947               	.Lscope16:
 948               		.stabs	"",36,0,0,.Lscope16-.LFBB16
 949               		.stabd	78,0,0
 950               		.stabs	"_Z21viragePourLigneDroiteba:F(0,4)",36,0,364,_Z21viragePourLigneDroiteba
 951               		.stabs	"sens:P(0,24)",64,0,364,24
 952               		.stabs	"ajustementVitesseVirage:P(0,28)",64,0,364,22
 953               	.global	_Z21viragePourLigneDroiteba
 954               		.type	_Z21viragePourLigneDroiteba, @function
 955               	_Z21viragePourLigneDroiteba:
 956               		.stabd	46,0,0
 365:projet.cpp    **** {
 957               		.stabn	68,0,365,.LM133-.LFBB17
 958               	.LM133:
 959               	.LFBB17:
 960 0396 CF93      		push r28
 961 0398 DF93      		push r29
 962 039a 1F92      		push __zero_reg__
 963 039c CDB7      		in r28,__SP_L__
 964 039e DEB7      		in r29,__SP_H__
 965               	/* prologue: function */
 966               	/* frame size = 1 */
 967               	/* stack size = 3 */
 968               	.L__stack_usage = 3
 366:projet.cpp    **** 	if(sens)//Droite
 969               		.stabn	68,0,366,.LM134-.LFBB17
 970               	.LM134:
 971 03a0 8823      		tst r24
 972 03a2 01F0      		breq .L108
 973 03a4 862F      		mov r24,r22
GAS LISTING /tmp/ccT1kfMR.s 			page 25


 974               	/* epilogue start */
 975               		.stabn	68,0,378,.LM135-.LFBB17
 976               	.LM135:
 977 03a6 0F90      		pop __tmp_reg__
 978 03a8 DF91      		pop r29
 979 03aa CF91      		pop r28
 980 03ac 0C94 0000 		jmp _Z21viragePourLigneDroiteba.part.5
 981               	.L108:
 375:projet.cpp    **** 		ajustementVitesse(false);
 982               		.stabn	68,0,375,.LM136-.LFBB17
 983               	.LM136:
 984 03b0 80E0      		ldi r24,0
 985 03b2 6983      		std Y+1,r22
 986 03b4 0E94 0000 		call _Z17ajustementVitesseb
 376:projet.cpp    **** 		avancerAvecAjustement(vitesseBase - ajustementVitesseVirage, vitesseBase + ajustementVitesseVirag
 987               		.stabn	68,0,376,.LM137-.LFBB17
 988               	.LM137:
 989 03b8 4091 0000 		lds r20,vitesseBase
 990 03bc 842F      		mov r24,r20
 991 03be 90E0      		ldi r25,0
 992 03c0 6981      		ldd r22,Y+1
 993 03c2 262F      		mov r18,r22
 994 03c4 3327      		clr r19
 995 03c6 27FD      		sbrc r18,7
 996 03c8 3095      		com r19
 997 03ca BC01      		movw r22,r24
 998 03cc 620F      		add r22,r18
 999 03ce 731F      		adc r23,r19
 1000 03d0 821B      		sub r24,r18
 1001 03d2 930B      		sbc r25,r19
 1002               	/* epilogue start */
 1003               		.stabn	68,0,378,.LM138-.LFBB17
 1004               	.LM138:
 1005 03d4 0F90      		pop __tmp_reg__
 1006 03d6 DF91      		pop r29
 1007 03d8 CF91      		pop r28
 376:projet.cpp    **** 		avancerAvecAjustement(vitesseBase - ajustementVitesseVirage, vitesseBase + ajustementVitesseVirag
 1008               		.stabn	68,0,376,.LM139-.LFBB17
 1009               	.LM139:
 1010 03da 0C94 0000 		jmp _Z21avancerAvecAjustementii
 1011               		.size	_Z21viragePourLigneDroiteba, .-_Z21viragePourLigneDroiteba
 1012               	.Lscope17:
 1013               		.stabs	"",36,0,0,.Lscope17-.LFBB17
 1014               		.stabd	78,0,0
 1015               		.stabs	"_Z19tomberEnModeReculerv:F(0,4)",36,0,380,_Z19tomberEnModeReculerv
 1016               	.global	_Z19tomberEnModeReculerv
 1017               		.type	_Z19tomberEnModeReculerv, @function
 1018               	_Z19tomberEnModeReculerv:
 1019               		.stabd	46,0,0
 379:projet.cpp    **** 
 380:projet.cpp    **** void tomberEnModeReculer()
 381:projet.cpp    **** {
 1020               		.stabn	68,0,381,.LM140-.LFBB18
 1021               	.LM140:
 1022               	.LFBB18:
 1023               	/* prologue: function */
 1024               	/* frame size = 0 */
GAS LISTING /tmp/ccT1kfMR.s 			page 26


 1025               	/* stack size = 0 */
 1026               	.L__stack_usage = 0
 382:projet.cpp    **** 	tempsReculActif = 0;
 1027               		.stabn	68,0,382,.LM141-.LFBB18
 1028               	.LM141:
 1029 03de 1092 0000 		sts tempsReculActif,__zero_reg__
 383:projet.cpp    **** 	finRecul = false;
 1030               		.stabn	68,0,383,.LM142-.LFBB18
 1031               	.LM142:
 1032 03e2 1092 0000 		sts finRecul,__zero_reg__
 384:projet.cpp    **** 	tempsReculExtra = 0;
 1033               		.stabn	68,0,384,.LM143-.LFBB18
 1034               	.LM143:
 1035 03e6 1092 0000 		sts tempsReculExtra,__zero_reg__
 385:projet.cpp    **** 	modeReculer = true;
 1036               		.stabn	68,0,385,.LM144-.LFBB18
 1037               	.LM144:
 1038 03ea 81E0      		ldi r24,lo8(1)
 1039 03ec 8093 0000 		sts modeReculer,r24
 386:projet.cpp    **** 	r.decoincer(true, true, false);
 1040               		.stabn	68,0,386,.LM145-.LFBB18
 1041               	.LM145:
 1042 03f0 40E0      		ldi r20,0
 1043 03f2 61E0      		ldi r22,lo8(1)
 1044 03f4 0C94 0000 		jmp _ZN8LibRobot9decoincerEbbb
 1045               		.size	_Z19tomberEnModeReculerv, .-_Z19tomberEnModeReculerv
 1046               	.Lscope18:
 1047               		.stabs	"",36,0,0,.Lscope18-.LFBB18
 1048               		.stabd	78,0,0
 1049               		.stabs	"_Z14decisionViragebb:F(0,4)",36,0,389,_Z14decisionViragebb
 1050               		.stabs	"gaucheForce:P(0,24)",64,0,389,24
 1051               		.stabs	"droiteForce:P(0,24)",64,0,389,22
 1052               	.global	_Z14decisionViragebb
 1053               		.type	_Z14decisionViragebb, @function
 1054               	_Z14decisionViragebb:
 1055               		.stabd	46,0,0
 387:projet.cpp    **** }
 388:projet.cpp    **** 
 389:projet.cpp    **** void decisionVirage(bool gaucheForce, bool droiteForce) //Les propri√©t√©es d√©termine si la gauche
 390:projet.cpp    **** {
 1056               		.stabn	68,0,390,.LM146-.LFBB19
 1057               	.LM146:
 1058               	.LFBB19:
 1059               	/* prologue: function */
 1060               	/* frame size = 0 */
 1061               	/* stack size = 0 */
 1062               	.L__stack_usage = 0
 1063               	.LBB21:
 391:projet.cpp    **** 	//Si rien n'existe, tomber en mode reculer
 392:projet.cpp    **** 	if(!droiteExiste && !milieuExiste && !gaucheExiste)
 1064               		.stabn	68,0,392,.LM147-.LFBB19
 1065               	.LM147:
 1066 03f8 3091 0000 		lds r19,droiteExiste
 1067 03fc 2091 0000 		lds r18,milieuExiste
 1068 0400 9091 0000 		lds r25,gaucheExiste
 1069 0404 3111      		cpse r19,__zero_reg__
 1070 0406 00C0      		rjmp .L111
GAS LISTING /tmp/ccT1kfMR.s 			page 27


 1071               		.stabn	68,0,392,.LM148-.LFBB19
 1072               	.LM148:
 1073 0408 2111      		cpse r18,__zero_reg__
 1074 040a 00C0      		rjmp .L112
 1075               		.stabn	68,0,392,.LM149-.LFBB19
 1076               	.LM149:
 1077 040c 9111      		cpse r25,__zero_reg__
 1078 040e 00C0      		rjmp .L129
 393:projet.cpp    **** 	{
 394:projet.cpp    **** 		tomberEnModeReculer();
 1079               		.stabn	68,0,394,.LM150-.LFBB19
 1080               	.LM150:
 1081 0410 0C94 0000 		jmp _Z19tomberEnModeReculerv
 1082               	.L111:
 1083               	.LBB22:
 395:projet.cpp    **** 		return;
 396:projet.cpp    **** 	}
 397:projet.cpp    **** 	
 398:projet.cpp    **** 	if(droiteExiste && !milieuExiste && !gaucheExiste)
 1084               		.stabn	68,0,398,.LM151-.LFBB19
 1085               	.LM151:
 1086 0414 2111      		cpse r18,__zero_reg__
 1087 0416 00C0      		rjmp .L114
 1088               		.stabn	68,0,398,.LM152-.LFBB19
 1089               	.LM152:
 1090 0418 9111      		cpse r25,__zero_reg__
 1091 041a 00C0      		rjmp .L115
 1092 041c 00C0      		rjmp .L137
 1093               	.L112:
 1094               	.LBB23:
 1095               	.LBB24:
 399:projet.cpp    **** 	{
 400:projet.cpp    **** 		modeVirageDroite = true;
 401:projet.cpp    **** 		r.decoincer(true, false, true);
 402:projet.cpp    **** 	}
 403:projet.cpp    **** 	else if(!droiteExiste && !milieuExiste && gaucheExiste)
 404:projet.cpp    **** 	{
 405:projet.cpp    **** 		modeVirageGauche = true;
 406:projet.cpp    **** 		r.decoincer(false, true, true);
 407:projet.cpp    **** 	}
 408:projet.cpp    **** 	else if(!droiteExiste && milieuExiste && !gaucheExiste)
 1096               		.stabn	68,0,408,.LM153-.LFBB19
 1097               	.LM153:
 1098 041e 9111      		cpse r25,__zero_reg__
 1099 0420 00C0      		rjmp .L117
 1100 0422 00C0      		rjmp .L134
 1101               	.L117:
 1102               	.LBB25:
 409:projet.cpp    **** 	{
 410:projet.cpp    **** 		modeLigneDroite = true;
 411:projet.cpp    **** 		r.decoincer(true, true, true);
 412:projet.cpp    **** 	}
 413:projet.cpp    **** 	else if(!droiteExiste && milieuExiste && gaucheExiste)
 414:projet.cpp    **** 	{
 415:projet.cpp    **** 		if(gaucheForce)
 1103               		.stabn	68,0,415,.LM154-.LFBB19
 1104               	.LM154:
GAS LISTING /tmp/ccT1kfMR.s 			page 28


 1105 0424 8111      		cpse r24,__zero_reg__
 1106 0426 00C0      		rjmp .L129
 1107               	.L118:
 1108               	.LBB26:
 416:projet.cpp    **** 		{
 417:projet.cpp    **** 			modeVirageGauche = true;
 418:projet.cpp    **** 			r.decoincer(false, true, true);
 419:projet.cpp    **** 		}
 420:projet.cpp    **** 		else
 421:projet.cpp    **** 		{
 422:projet.cpp    **** 			//choisir entre gauche et milieu, 50%, 50%
 423:projet.cpp    **** 			uint8_t compteurTCNT1L = TCNT1L & 1;
 1109               		.stabn	68,0,423,.LM155-.LFBB19
 1110               	.LM155:
 1111 0428 8091 8400 		lds r24,132
 424:projet.cpp    **** 			if(compteurTCNT1L == 1)
 1112               		.stabn	68,0,424,.LM156-.LFBB19
 1113               	.LM156:
 1114 042c 982F      		mov r25,r24
 1115 042e 9170      		andi r25,lo8(1)
 1116 0430 80FF      		sbrs r24,0
 1117 0432 00C0      		rjmp .L129
 1118 0434 00C0      		rjmp .L133
 1119               	.L114:
 1120               	.LBE26:
 1121               	.LBE25:
 1122               	.LBB27:
 425:projet.cpp    **** 			{
 426:projet.cpp    **** 				modeLigneDroite = true;
 427:projet.cpp    **** 				r.decoincer(true, true, true);
 428:projet.cpp    **** 			}
 429:projet.cpp    **** 			else
 430:projet.cpp    **** 			{
 431:projet.cpp    **** 				modeVirageGauche = true;
 432:projet.cpp    **** 				r.decoincer(false, true, true);
 433:projet.cpp    **** 			}
 434:projet.cpp    **** 		}
 435:projet.cpp    **** 	}
 436:projet.cpp    **** 	else if(droiteExiste && milieuExiste && !gaucheExiste)
 1123               		.stabn	68,0,436,.LM157-.LFBB19
 1124               	.LM157:
 1125 0436 9111      		cpse r25,__zero_reg__
 1126 0438 00C0      		rjmp .L120
 1127               	.LBB28:
 437:projet.cpp    **** 	{
 438:projet.cpp    **** 		
 439:projet.cpp    **** 		if(droiteForce)
 1128               		.stabn	68,0,439,.LM158-.LFBB19
 1129               	.LM158:
 1130 043a 6111      		cpse r22,__zero_reg__
 1131 043c 00C0      		rjmp .L137
 1132               	.L121:
 1133               	.LBB29:
 440:projet.cpp    **** 		{
 441:projet.cpp    **** 			modeVirageDroite = true;
 442:projet.cpp    **** 			r.decoincer(true, false, true);
 443:projet.cpp    **** 		}
GAS LISTING /tmp/ccT1kfMR.s 			page 29


 444:projet.cpp    **** 		else
 445:projet.cpp    **** 		{
 446:projet.cpp    **** 			//choisir entre droite et milieu,  50%, 50%
 447:projet.cpp    **** 			uint8_t compteurTCNT1L = TCNT1L & 1;
 1134               		.stabn	68,0,447,.LM159-.LFBB19
 1135               	.LM159:
 1136 043e 8091 8400 		lds r24,132
 448:projet.cpp    **** 			if(compteurTCNT1L == 1)
 1137               		.stabn	68,0,448,.LM160-.LFBB19
 1138               	.LM160:
 1139 0442 982F      		mov r25,r24
 1140 0444 9170      		andi r25,lo8(1)
 1141 0446 80FF      		sbrs r24,0
 1142 0448 00C0      		rjmp .L137
 1143               	.L133:
 449:projet.cpp    **** 			{
 450:projet.cpp    **** 				modeLigneDroite = true;
 1144               		.stabn	68,0,450,.LM161-.LFBB19
 1145               	.LM161:
 1146 044a 9093 0000 		sts modeLigneDroite,r25
 451:projet.cpp    **** 				r.decoincer(true, true, true);
 1147               		.stabn	68,0,451,.LM162-.LFBB19
 1148               	.LM162:
 1149 044e 41E0      		ldi r20,lo8(1)
 1150 0450 61E0      		ldi r22,lo8(1)
 1151 0452 81E0      		ldi r24,lo8(1)
 1152 0454 00C0      		rjmp .L130
 1153               	.L115:
 1154               	.LBE29:
 1155               	.LBE28:
 1156               	.LBB30:
 452:projet.cpp    **** 			}
 453:projet.cpp    **** 			else
 454:projet.cpp    **** 			{
 455:projet.cpp    **** 				modeVirageDroite = true;
 456:projet.cpp    **** 				r.decoincer(true, false, true);
 457:projet.cpp    **** 			}
 458:projet.cpp    **** 		}
 459:projet.cpp    **** 
 460:projet.cpp    **** 	}
 461:projet.cpp    **** 	else if(droiteExiste && !milieuExiste && gaucheExiste)
 462:projet.cpp    **** 	{
 463:projet.cpp    **** 		if(droiteForce)
 1157               		.stabn	68,0,463,.LM163-.LFBB19
 1158               	.LM163:
 1159 0456 6111      		cpse r22,__zero_reg__
 1160 0458 00C0      		rjmp .L137
 1161               	.L123:
 1162               	.LBB31:
 464:projet.cpp    **** 		{
 465:projet.cpp    **** 			modeVirageDroite = true;
 466:projet.cpp    **** 			r.decoincer(true, false, true);
 467:projet.cpp    **** 		}
 468:projet.cpp    **** 		else if(gaucheForce)
 1163               		.stabn	68,0,468,.LM164-.LFBB19
 1164               	.LM164:
 1165 045a 8111      		cpse r24,__zero_reg__
GAS LISTING /tmp/ccT1kfMR.s 			page 30


 1166 045c 00C0      		rjmp .L129
 1167               	.L124:
 1168               	.LBB32:
 469:projet.cpp    **** 		{
 470:projet.cpp    **** 			modeVirageGauche = true;
 471:projet.cpp    **** 			r.decoincer(false, true, true);
 472:projet.cpp    **** 		}
 473:projet.cpp    **** 		else
 474:projet.cpp    **** 		{
 475:projet.cpp    **** 			//choisir entre droite et gauche,  50%, 50%
 476:projet.cpp    **** 			uint8_t compteurTCNT1L = TCNT1L & 1;
 1169               		.stabn	68,0,476,.LM165-.LFBB19
 1170               	.LM165:
 1171 045e 8091 8400 		lds r24,132
 477:projet.cpp    **** 			if(compteurTCNT1L == 1)
 1172               		.stabn	68,0,477,.LM166-.LFBB19
 1173               	.LM166:
 1174 0462 982F      		mov r25,r24
 1175 0464 9170      		andi r25,lo8(1)
 1176 0466 80FF      		sbrs r24,0
 1177 0468 00C0      		rjmp .L137
 478:projet.cpp    **** 			{
 479:projet.cpp    **** 				modeVirageGauche = true;
 1178               		.stabn	68,0,479,.LM167-.LFBB19
 1179               	.LM167:
 1180 046a 9093 0000 		sts modeVirageGauche,r25
 1181 046e 00C0      		rjmp .L131
 1182               	.L120:
 1183               	.LBE32:
 1184               	.LBE31:
 1185               	.LBE30:
 1186               	.LBB33:
 480:projet.cpp    **** 				r.decoincer(false, true, true);
 481:projet.cpp    **** 			}
 482:projet.cpp    **** 			else
 483:projet.cpp    **** 			{
 484:projet.cpp    **** 				modeVirageDroite = true;
 485:projet.cpp    **** 				r.decoincer(true, false, true);
 486:projet.cpp    **** 			}
 487:projet.cpp    **** 		}
 488:projet.cpp    **** 	}
 489:projet.cpp    **** 	else
 490:projet.cpp    **** 	{
 491:projet.cpp    **** 		if(droiteForce)
 1187               		.stabn	68,0,491,.LM168-.LFBB19
 1188               	.LM168:
 1189 0470 6623      		tst r22
 1190 0472 01F0      		breq .L126
 1191               	.L137:
 492:projet.cpp    **** 		{
 493:projet.cpp    **** 			modeVirageDroite = true;
 1192               		.stabn	68,0,493,.LM169-.LFBB19
 1193               	.LM169:
 1194 0474 81E0      		ldi r24,lo8(1)
 1195 0476 00C0      		rjmp .L132
 1196               	.L126:
 1197               	.LBB34:
GAS LISTING /tmp/ccT1kfMR.s 			page 31


 494:projet.cpp    **** 			r.decoincer(true, false, true);
 495:projet.cpp    **** 		}
 496:projet.cpp    **** 		else if(gaucheForce)
 1198               		.stabn	68,0,496,.LM170-.LFBB19
 1199               	.LM170:
 1200 0478 8111      		cpse r24,__zero_reg__
 1201 047a 00C0      		rjmp .L129
 1202               	.L127:
 1203               	.LBB35:
 497:projet.cpp    **** 		{
 498:projet.cpp    **** 			modeVirageGauche = true;
 499:projet.cpp    **** 			r.decoincer(false, true, true);
 500:projet.cpp    **** 		}
 501:projet.cpp    **** 		else
 502:projet.cpp    **** 		{
 503:projet.cpp    **** 			//Choisir entre les trois, 50%, 25%, 25%
 504:projet.cpp    **** 			uint8_t compteurTCNT1L = TCNT1L & 3;
 1204               		.stabn	68,0,504,.LM171-.LFBB19
 1205               	.LM171:
 1206 047c 8091 8400 		lds r24,132
 1207 0480 8370      		andi r24,lo8(3)
 505:projet.cpp    **** 			if(compteurTCNT1L == 3 || compteurTCNT1L == 2)
 1208               		.stabn	68,0,505,.LM172-.LFBB19
 1209               	.LM172:
 1210 0482 982F      		mov r25,r24
 1211 0484 9250      		subi r25,lo8(-(-2))
 1212 0486 9230      		cpi r25,lo8(2)
 1213 0488 00F4      		brsh .L128
 1214               	.L134:
 506:projet.cpp    **** 			{
 507:projet.cpp    **** 				modeLigneDroite = true;
 1215               		.stabn	68,0,507,.LM173-.LFBB19
 1216               	.LM173:
 1217 048a 81E0      		ldi r24,lo8(1)
 1218 048c 8093 0000 		sts modeLigneDroite,r24
 508:projet.cpp    **** 				r.decoincer(true, true, true);
 1219               		.stabn	68,0,508,.LM174-.LFBB19
 1220               	.LM174:
 1221 0490 41E0      		ldi r20,lo8(1)
 1222 0492 61E0      		ldi r22,lo8(1)
 1223 0494 00C0      		rjmp .L130
 1224               	.L128:
 509:projet.cpp    **** 			}
 510:projet.cpp    **** 			else if(compteurTCNT1L == 1)
 1225               		.stabn	68,0,510,.LM175-.LFBB19
 1226               	.LM175:
 1227 0496 8130      		cpi r24,lo8(1)
 1228 0498 01F4      		brne .L129
 1229               	.L132:
 511:projet.cpp    **** 			{
 512:projet.cpp    **** 				modeVirageDroite = true;
 1230               		.stabn	68,0,512,.LM176-.LFBB19
 1231               	.LM176:
 1232 049a 8093 0000 		sts modeVirageDroite,r24
 513:projet.cpp    **** 				r.decoincer(true, false, true);
 1233               		.stabn	68,0,513,.LM177-.LFBB19
 1234               	.LM177:
GAS LISTING /tmp/ccT1kfMR.s 			page 32


 1235 049e 41E0      		ldi r20,lo8(1)
 1236 04a0 60E0      		ldi r22,0
 1237 04a2 00C0      		rjmp .L130
 1238               	.L129:
 514:projet.cpp    **** 			}
 515:projet.cpp    **** 			else
 516:projet.cpp    **** 			{
 517:projet.cpp    **** 				modeVirageGauche = true;
 1239               		.stabn	68,0,517,.LM178-.LFBB19
 1240               	.LM178:
 1241 04a4 81E0      		ldi r24,lo8(1)
 1242 04a6 8093 0000 		sts modeVirageGauche,r24
 1243               	.L131:
 518:projet.cpp    **** 				r.decoincer(false, true, true);
 1244               		.stabn	68,0,518,.LM179-.LFBB19
 1245               	.LM179:
 1246 04aa 41E0      		ldi r20,lo8(1)
 1247 04ac 61E0      		ldi r22,lo8(1)
 1248 04ae 80E0      		ldi r24,0
 1249               	.L130:
 1250 04b0 0E94 0000 		call _ZN8LibRobot9decoincerEbbb
 1251               	.LBE35:
 1252               	.LBE34:
 1253               	.LBE33:
 1254               	.LBE27:
 1255               	.LBE24:
 1256               	.LBE23:
 1257               	.LBE22:
 519:projet.cpp    **** 			}
 520:projet.cpp    **** 		}
 521:projet.cpp    **** 	}
 522:projet.cpp    **** 	desactiveLumiereForce(); //Eteindre la del et remmetre a 0 le choix forc√©
 1258               		.stabn	68,0,522,.LM180-.LFBB19
 1259               	.LM180:
 1260 04b4 0C94 0000 		jmp _Z21desactiveLumiereForcev
 1261               	.LBE21:
 1262               		.size	_Z14decisionViragebb, .-_Z14decisionViragebb
 1263               		.stabs	"compteurTCNT1L:r(0,29)",64,0,504,24
 1264               		.stabn	192,0,0,.LBB35-.LFBB19
 1265               		.stabn	224,0,0,.LBE35-.LFBB19
 1266               	.Lscope19:
 1267               		.stabs	"",36,0,0,.Lscope19-.LFBB19
 1268               		.stabd	78,0,0
 1269               		.stabs	"_Z20ajusterVitesseViragev:F(0,4)",36,0,525,_Z20ajusterVitesseViragev
 1270               	.global	_Z20ajusterVitesseViragev
 1271               		.type	_Z20ajusterVitesseViragev, @function
 1272               	_Z20ajusterVitesseViragev:
 1273               		.stabd	46,0,0
 523:projet.cpp    **** }
 524:projet.cpp    **** 
 525:projet.cpp    **** void ajusterVitesseVirage()
 526:projet.cpp    **** {
 1274               		.stabn	68,0,526,.LM181-.LFBB20
 1275               	.LM181:
 1276               	.LFBB20:
 1277               	/* prologue: function */
 1278               	/* frame size = 0 */
GAS LISTING /tmp/ccT1kfMR.s 			page 33


 1279               	/* stack size = 0 */
 1280               	.L__stack_usage = 0
 527:projet.cpp    **** 	varianceVitesseVirage -= varianceVitesseVirageDeceleration;
 1281               		.stabn	68,0,527,.LM182-.LFBB20
 1282               	.LM182:
 1283 04b8 8091 0000 		lds r24,varianceVitesseVirage
 1284 04bc 9091 0000 		lds r25,varianceVitesseVirageDeceleration
 1285 04c0 891B      		sub r24,r25
 1286 04c2 8093 0000 		sts varianceVitesseVirage,r24
 528:projet.cpp    **** 	if(varianceVitesseVirage < varianceVitesseVirageMin)
 1287               		.stabn	68,0,528,.LM183-.LFBB20
 1288               	.LM183:
 1289 04c6 9091 0000 		lds r25,varianceVitesseVirageMin
 1290 04ca 8917      		cp r24,r25
 1291 04cc 04F4      		brge .L138
 529:projet.cpp    **** 		varianceVitesseVirage = varianceVitesseVirageMax;
 1292               		.stabn	68,0,529,.LM184-.LFBB20
 1293               	.LM184:
 1294 04ce 8091 0000 		lds r24,varianceVitesseVirageMax
 1295 04d2 8093 0000 		sts varianceVitesseVirage,r24
 1296               	.L138:
 1297 04d6 0895      		ret
 1298               		.size	_Z20ajusterVitesseViragev, .-_Z20ajusterVitesseViragev
 1299               	.Lscope20:
 1300               		.stabs	"",36,0,0,.Lscope20-.LFBB20
 1301               		.stabd	78,0,0
 1302               		.stabs	"_Z32ajusterDelaiAjustementTemporairev:F(0,4)",36,0,532,_Z32ajusterDelaiAjustementTemporair
 1303               	.global	_Z32ajusterDelaiAjustementTemporairev
 1304               		.type	_Z32ajusterDelaiAjustementTemporairev, @function
 1305               	_Z32ajusterDelaiAjustementTemporairev:
 1306               		.stabd	46,0,0
 530:projet.cpp    **** }
 531:projet.cpp    **** 
 532:projet.cpp    **** void ajusterDelaiAjustementTemporaire()
 533:projet.cpp    **** {
 1307               		.stabn	68,0,533,.LM185-.LFBB21
 1308               	.LM185:
 1309               	.LFBB21:
 1310               	/* prologue: function */
 1311               	/* frame size = 0 */
 1312               	/* stack size = 0 */
 1313               	.L__stack_usage = 0
 534:projet.cpp    **** 	if(delaisAjustementTemporaire > 0)
 1314               		.stabn	68,0,534,.LM186-.LFBB21
 1315               	.LM186:
 1316 04d8 8091 0000 		lds r24,delaisAjustementTemporaire
 1317 04dc 9091 0000 		lds r25,delaisAjustementTemporaire+1
 1318 04e0 1816      		cp __zero_reg__,r24
 1319 04e2 1906      		cpc __zero_reg__,r25
 1320 04e4 04F4      		brge .L140
 535:projet.cpp    **** 		delaisAjustementTemporaire -=10;
 1321               		.stabn	68,0,535,.LM187-.LFBB21
 1322               	.LM187:
 1323 04e6 0A97      		sbiw r24,10
 1324 04e8 9093 0000 		sts delaisAjustementTemporaire+1,r25
 1325 04ec 8093 0000 		sts delaisAjustementTemporaire,r24
 1326               	.L140:
GAS LISTING /tmp/ccT1kfMR.s 			page 34


 1327 04f0 0895      		ret
 1328               		.size	_Z32ajusterDelaiAjustementTemporairev, .-_Z32ajusterDelaiAjustementTemporairev
 1329               	.Lscope21:
 1330               		.stabs	"",36,0,0,.Lscope21-.LFBB21
 1331               		.stabd	78,0,0
 1332               		.stabs	"_Z5virerb:F(0,24)",36,0,538,_Z5virerb
 1333               		.stabs	"sens:P(0,24)",64,0,538,28
 1334               	.global	_Z5virerb
 1335               		.type	_Z5virerb, @function
 1336               	_Z5virerb:
 1337               		.stabd	46,0,0
 536:projet.cpp    **** }
 537:projet.cpp    **** 
 538:projet.cpp    **** bool virer(bool sens) //Retourne vrai si le virage est complet
 539:projet.cpp    **** {
 1338               		.stabn	68,0,539,.LM188-.LFBB22
 1339               	.LM188:
 1340               	.LFBB22:
 1341 04f2 CF93      		push r28
 1342               	/* prologue: function */
 1343               	/* frame size = 0 */
 1344               	/* stack size = 1 */
 1345               	.L__stack_usage = 1
 1346 04f4 C82F      		mov r28,r24
 540:projet.cpp    **** 	ajusterDelaiAjustementTemporaire();
 1347               		.stabn	68,0,540,.LM189-.LFBB22
 1348               	.LM189:
 1349 04f6 0E94 0000 		call _Z32ajusterDelaiAjustementTemporairev
 541:projet.cpp    **** 	ajusterVitesseVirage();
 1350               		.stabn	68,0,541,.LM190-.LFBB22
 1351               	.LM190:
 1352 04fa 0E94 0000 		call _Z20ajusterVitesseViragev
 542:projet.cpp    **** 	r.virer(vitesseVirage-varianceVitesseVirage,ajustementGauche, ajustementDroit, sens);
 1353               		.stabn	68,0,542,.LM191-.LFBB22
 1354               	.LM191:
 1355 04fe 8091 0000 		lds r24,vitesseVirage
 1356 0502 9091 0000 		lds r25,varianceVitesseVirage
 1357 0506 2C2F      		mov r18,r28
 1358 0508 4091 0000 		lds r20,ajustementDroit
 1359 050c 6091 0000 		lds r22,ajustementGauche
 1360 0510 891B      		sub r24,r25
 1361 0512 0E94 0000 		call _ZN8LibRobot5virerEhaab
 543:projet.cpp    **** 
 544:projet.cpp    **** 	
 545:projet.cpp    **** 
 546:projet.cpp    **** 	if(sens) //droite
 1362               		.stabn	68,0,546,.LM192-.LFBB22
 1363               	.LM192:
 1364 0516 CC23      		tst r28
 1365 0518 01F0      		breq .L143
 1366               	.LBB38:
 1367               	.LBB39:
 547:projet.cpp    **** 	{	
 548:projet.cpp    **** 		if(!capteurDroit()) //V√©rifier si le capteur droit est √©teint; √™tre certain qu'on a quitter la
 1368               		.stabn	68,0,548,.LM193-.LFBB22
 1369               	.LM193:
 1370 051a 0E94 0000 		call _Z12capteurDroitv
GAS LISTING /tmp/ccT1kfMR.s 			page 35


 1371 051e 8111      		cpse r24,__zero_reg__
 1372 0520 00C0      		rjmp .L144
 549:projet.cpp    **** 			detecteurEnabled = true;
 1373               		.stabn	68,0,549,.LM194-.LFBB22
 1374               	.LM194:
 1375 0522 81E0      		ldi r24,lo8(1)
 1376 0524 8093 0000 		sts detecteurEnabled,r24
 1377               	.L144:
 550:projet.cpp    **** 
 551:projet.cpp    **** 		if(capteurDroit() && detecteurEnabled) //Si le capteur droit est atteint et qu'il est enabled, al
 1378               		.stabn	68,0,551,.LM195-.LFBB22
 1379               	.LM195:
 1380 0528 0E94 0000 		call _Z12capteurDroitv
 1381 052c 8823      		tst r24
 1382 052e 01F0      		breq .L151
 1383 0530 8091 0000 		lds r24,detecteurEnabled
 1384 0534 8111      		cpse r24,__zero_reg__
 1385 0536 00C0      		rjmp .L146
 1386 0538 00C0      		rjmp .L152
 1387               	.L143:
 1388               	.LBE39:
 1389               	.LBE38:
 552:projet.cpp    **** 		{
 553:projet.cpp    **** 			delaisAjustementTemporaire = dureeAjustementTournant;
 554:projet.cpp    **** 			ajustementTemporaireG = -ajustementTournant;
 555:projet.cpp    **** 			ajustementTemporaireD = ajustementTournant;
 556:projet.cpp    **** 			return true;
 557:projet.cpp    **** 		}
 558:projet.cpp    **** 
 559:projet.cpp    **** 		return false;
 560:projet.cpp    **** 	}
 561:projet.cpp    **** 	else	//gauche
 562:projet.cpp    **** 	{
 563:projet.cpp    **** 		if(!capteurGauche()) //V√©rifier si le capteur gauche est √©teint; √™tre certain qu'on a quitter 
 1390               		.stabn	68,0,563,.LM196-.LFBB22
 1391               	.LM196:
 1392 053a 0E94 0000 		call _Z13capteurGauchev
 1393 053e 8111      		cpse r24,__zero_reg__
 1394 0540 00C0      		rjmp .L148
 564:projet.cpp    **** 			detecteurEnabled = true;
 1395               		.stabn	68,0,564,.LM197-.LFBB22
 1396               	.LM197:
 1397 0542 81E0      		ldi r24,lo8(1)
 1398 0544 8093 0000 		sts detecteurEnabled,r24
 1399               	.L148:
 565:projet.cpp    **** 
 566:projet.cpp    **** 		if(capteurGauche() && detecteurEnabled) //Si le capteur droit est atteint et qu'il est enabled, a
 1400               		.stabn	68,0,566,.LM198-.LFBB22
 1401               	.LM198:
 1402 0548 0E94 0000 		call _Z13capteurGauchev
 1403 054c 8823      		tst r24
 1404 054e 01F0      		breq .L151
 1405               		.stabn	68,0,566,.LM199-.LFBB22
 1406               	.LM199:
 1407 0550 8091 0000 		lds r24,detecteurEnabled
 1408 0554 8111      		cpse r24,__zero_reg__
 1409 0556 00C0      		rjmp .L149
GAS LISTING /tmp/ccT1kfMR.s 			page 36


 1410 0558 00C0      		rjmp .L152
 1411               	.L151:
 567:projet.cpp    **** 		{
 568:projet.cpp    **** 			delaisAjustementTemporaire = dureeAjustementTournant;
 569:projet.cpp    **** 			ajustementTemporaireG = ajustementTournant;
 570:projet.cpp    **** 			ajustementTemporaireD = -ajustementTournant;
 571:projet.cpp    **** 			return true;
 572:projet.cpp    **** 		}
 573:projet.cpp    **** 
 574:projet.cpp    **** 		return false;
 1412               		.stabn	68,0,574,.LM200-.LFBB22
 1413               	.LM200:
 1414 055a 80E0      		ldi r24,0
 1415 055c 00C0      		rjmp .L152
 1416               	.L146:
 1417               	.LBB41:
 1418               	.LBB40:
 553:projet.cpp    **** 			delaisAjustementTemporaire = dureeAjustementTournant;
 1419               		.stabn	68,0,553,.LM201-.LFBB22
 1420               	.LM201:
 1421 055e 8091 0000 		lds r24,dureeAjustementTournant
 1422 0562 8093 0000 		sts delaisAjustementTemporaire,r24
 1423 0566 1092 0000 		sts delaisAjustementTemporaire+1,__zero_reg__
 554:projet.cpp    **** 			ajustementTemporaireG = -ajustementTournant;
 1424               		.stabn	68,0,554,.LM202-.LFBB22
 1425               	.LM202:
 1426 056a 8091 0000 		lds r24,ajustementTournant
 1427 056e 982F      		mov r25,r24
 1428 0570 9195      		neg r25
 1429 0572 9093 0000 		sts ajustementTemporaireG,r25
 1430 0576 00C0      		rjmp .L153
 1431               	.L149:
 1432               	.LBE40:
 1433               	.LBE41:
 568:projet.cpp    **** 			delaisAjustementTemporaire = dureeAjustementTournant;
 1434               		.stabn	68,0,568,.LM203-.LFBB22
 1435               	.LM203:
 1436 0578 8091 0000 		lds r24,dureeAjustementTournant
 1437 057c 8093 0000 		sts delaisAjustementTemporaire,r24
 1438 0580 1092 0000 		sts delaisAjustementTemporaire+1,__zero_reg__
 569:projet.cpp    **** 			ajustementTemporaireG = ajustementTournant;
 1439               		.stabn	68,0,569,.LM204-.LFBB22
 1440               	.LM204:
 1441 0584 8091 0000 		lds r24,ajustementTournant
 1442 0588 8093 0000 		sts ajustementTemporaireG,r24
 570:projet.cpp    **** 			ajustementTemporaireD = -ajustementTournant;
 1443               		.stabn	68,0,570,.LM205-.LFBB22
 1444               	.LM205:
 1445 058c 8195      		neg r24
 1446               	.L153:
 1447 058e 8093 0000 		sts ajustementTemporaireD,r24
 571:projet.cpp    **** 			return true;
 1448               		.stabn	68,0,571,.LM206-.LFBB22
 1449               	.LM206:
 1450 0592 81E0      		ldi r24,lo8(1)
 1451               	.L152:
 1452               	/* epilogue start */
GAS LISTING /tmp/ccT1kfMR.s 			page 37


 575:projet.cpp    **** 	}
 576:projet.cpp    **** }
 1453               		.stabn	68,0,576,.LM207-.LFBB22
 1454               	.LM207:
 1455 0594 CF91      		pop r28
 1456 0596 0895      		ret
 1457               		.size	_Z5virerb, .-_Z5virerb
 1458               	.Lscope22:
 1459               		.stabs	"",36,0,0,.Lscope22-.LFBB22
 1460               		.stabd	78,0,0
 1461               		.stabs	"_Z18avancerLigneDroitev:F(0,4)",36,0,578,_Z18avancerLigneDroitev
 1462               	.global	_Z18avancerLigneDroitev
 1463               		.type	_Z18avancerLigneDroitev, @function
 1464               	_Z18avancerLigneDroitev:
 1465               		.stabd	46,0,0
 577:projet.cpp    **** 
 578:projet.cpp    **** void avancerLigneDroite()
 579:projet.cpp    **** {	
 1466               		.stabn	68,0,579,.LM208-.LFBB23
 1467               	.LM208:
 1468               	.LFBB23:
 1469               	/* prologue: function */
 1470               	/* frame size = 0 */
 1471               	/* stack size = 0 */
 1472               	.L__stack_usage = 0
 580:projet.cpp    **** 	if(perdue())
 1473               		.stabn	68,0,580,.LM209-.LFBB23
 1474               	.LM209:
 1475 0598 0E94 0000 		call _Z6perduev
 1476 059c 8823      		tst r24
 1477 059e 01F0      		breq .L155
 581:projet.cpp    **** 	{
 582:projet.cpp    **** 		 //On sait de quel cot√© on est partie, on essaie de retrouver la ligne
 583:projet.cpp    **** 		if(dernierCapteur == 2) //Dernier capteur atteint est le millieu, continuer tout droit
 1478               		.stabn	68,0,583,.LM210-.LFBB23
 1479               	.LM210:
 1480 05a0 8091 0000 		lds r24,dernierCapteur
 1481 05a4 8230      		cpi r24,lo8(2)
 1482 05a6 01F4      		brne .L156
 584:projet.cpp    **** 			avancerAvecAjustement(vitesseBase,vitesseBase);
 1483               		.stabn	68,0,584,.LM211-.LFBB23
 1484               	.LM211:
 1485 05a8 8091 0000 		lds r24,vitesseBase
 1486 05ac 682F      		mov r22,r24
 1487 05ae 70E0      		ldi r23,0
 1488 05b0 90E0      		ldi r25,0
 1489 05b2 0E94 0000 		call _Z21avancerAvecAjustementii
 1490 05b6 00C0      		rjmp .L157
 1491               	.L156:
 585:projet.cpp    **** 		else if(dernierCapteur == 1)  //gauche
 1492               		.stabn	68,0,585,.LM212-.LFBB23
 1493               	.LM212:
 1494 05b8 8130      		cpi r24,lo8(1)
 1495 05ba 01F4      		brne .L158
 586:projet.cpp    **** 			viragePourLigneDroite(false,ajustementVirageMoyen);
 1496               		.stabn	68,0,586,.LM213-.LFBB23
 1497               	.LM213:
GAS LISTING /tmp/ccT1kfMR.s 			page 38


 1498 05bc 6091 0000 		lds r22,ajustementVirageMoyen
 1499 05c0 00C0      		rjmp .L167
 1500               	.L158:
 587:projet.cpp    **** 		else if(dernierCapteur == 3) 
 1501               		.stabn	68,0,587,.LM214-.LFBB23
 1502               	.LM214:
 1503 05c2 8330      		cpi r24,lo8(3)
 1504 05c4 01F4      		brne .L157
 1505 05c6 8091 0000 		lds r24,ajustementVirageMoyen
 1506               	.L168:
 1507 05ca 0E94 0000 		call _Z21viragePourLigneDroiteba.part.5
 1508               	.L157:
 588:projet.cpp    **** 			viragePourLigneDroite(true,ajustementVirageMoyen);
 589:projet.cpp    **** 
 590:projet.cpp    **** 		ajusterDernierCapteur();	
 1509               		.stabn	68,0,590,.LM215-.LFBB23
 1510               	.LM215:
 1511 05ce 0C94 0000 		jmp _Z21ajusterDernierCapteurv
 1512               	.L155:
 1513               	.LBB48:
 1514               	.LBB49:
 591:projet.cpp    **** 
 592:projet.cpp    **** 	}
 593:projet.cpp    **** 	else	//Au moins 1 capteur est actif
 594:projet.cpp    **** 	{
 595:projet.cpp    **** 		//Recentrer le robot si n√©cessaire
 596:projet.cpp    **** 		if(capteurMilieu()) //Continuer tout droit
 1515               		.stabn	68,0,596,.LM216-.LFBB23
 1516               	.LM216:
 1517 05d2 0E94 0000 		call _Z13capteurMilieuv
 1518 05d6 8823      		tst r24
 1519 05d8 01F0      		breq .L160
 597:projet.cpp    **** 		{
 598:projet.cpp    **** 			delaisLigneDroite = 0;
 1520               		.stabn	68,0,598,.LM217-.LFBB23
 1521               	.LM217:
 1522 05da 1092 0000 		sts delaisLigneDroite+1,__zero_reg__
 1523 05de 1092 0000 		sts delaisLigneDroite,__zero_reg__
 599:projet.cpp    **** 			avancerAvecAjustement(vitesseBase,vitesseBase);
 1524               		.stabn	68,0,599,.LM218-.LFBB23
 1525               	.LM218:
 1526 05e2 8091 0000 		lds r24,vitesseBase
 1527 05e6 682F      		mov r22,r24
 1528 05e8 70E0      		ldi r23,0
 1529 05ea 90E0      		ldi r25,0
 1530 05ec 0E94 0000 		call _Z21avancerAvecAjustementii
 600:projet.cpp    **** 
 601:projet.cpp    **** 			//On a retrouver le milieu, mais est-t-on droit?
 602:projet.cpp    **** 
 603:projet.cpp    **** 			//On vient de la droite, puisque le dernier capteur √©tait a gauche
 604:projet.cpp    **** 			//On doit donc restabiliser le rebot, en tournant l√©gerement vers la droite
 605:projet.cpp    **** 			if(dernierCapteur == 1)
 1531               		.stabn	68,0,605,.LM219-.LFBB23
 1532               	.LM219:
 1533 05f0 8091 0000 		lds r24,dernierCapteur
 1534 05f4 8130      		cpi r24,lo8(1)
 1535 05f6 01F4      		brne .L161
GAS LISTING /tmp/ccT1kfMR.s 			page 39


 606:projet.cpp    **** 			{
 607:projet.cpp    **** 				delaisAjustementTemporaire = dureeAjustementLigneDroite;
 1536               		.stabn	68,0,607,.LM220-.LFBB23
 1537               	.LM220:
 1538 05f8 8091 0000 		lds r24,dureeAjustementLigneDroite
 1539 05fc 8093 0000 		sts delaisAjustementTemporaire,r24
 1540 0600 1092 0000 		sts delaisAjustementTemporaire+1,__zero_reg__
 608:projet.cpp    **** 				ajustementTemporaireG = ajustementLigneDroite;
 1541               		.stabn	68,0,608,.LM221-.LFBB23
 1542               	.LM221:
 1543 0604 8091 0000 		lds r24,ajustementLigneDroite
 1544 0608 8093 0000 		sts ajustementTemporaireG,r24
 609:projet.cpp    **** 				ajustementTemporaireD = -ajustementLigneDroite;
 1545               		.stabn	68,0,609,.LM222-.LFBB23
 1546               	.LM222:
 1547 060c 8195      		neg r24
 1548 060e 00C0      		rjmp .L169
 1549               	.L161:
 610:projet.cpp    **** 			}
 611:projet.cpp    **** 			else if(dernierCapteur == 3) //On vient de la gauche
 1550               		.stabn	68,0,611,.LM223-.LFBB23
 1551               	.LM223:
 1552 0610 8330      		cpi r24,lo8(3)
 1553 0612 01F4      		brne .L157
 612:projet.cpp    **** 			{
 613:projet.cpp    **** 				delaisAjustementTemporaire = dureeAjustementLigneDroite;
 1554               		.stabn	68,0,613,.LM224-.LFBB23
 1555               	.LM224:
 1556 0614 8091 0000 		lds r24,dureeAjustementLigneDroite
 1557 0618 8093 0000 		sts delaisAjustementTemporaire,r24
 1558 061c 1092 0000 		sts delaisAjustementTemporaire+1,__zero_reg__
 614:projet.cpp    **** 				ajustementTemporaireG = -ajustementLigneDroite;
 1559               		.stabn	68,0,614,.LM225-.LFBB23
 1560               	.LM225:
 1561 0620 8091 0000 		lds r24,ajustementLigneDroite
 1562 0624 982F      		mov r25,r24
 1563 0626 9195      		neg r25
 1564 0628 9093 0000 		sts ajustementTemporaireG,r25
 1565               	.L169:
 615:projet.cpp    **** 				ajustementTemporaireD = ajustementLigneDroite;
 1566               		.stabn	68,0,615,.LM226-.LFBB23
 1567               	.LM226:
 1568 062c 8093 0000 		sts ajustementTemporaireD,r24
 1569 0630 00C0      		rjmp .L157
 1570               	.L160:
 616:projet.cpp    **** 			}
 617:projet.cpp    **** 
 618:projet.cpp    **** 		}
 619:projet.cpp    **** 		else if(capteurGauche())//On doit avancer tout droit et le capteur Gauche est allum√©, le rebot e
 1571               		.stabn	68,0,619,.LM227-.LFBB23
 1572               	.LM227:
 1573 0632 0E94 0000 		call _Z13capteurGauchev
 1574 0636 8823      		tst r24
 1575 0638 01F0      		breq .L163
 620:projet.cpp    **** 		{
 621:projet.cpp    **** 			//virer legerement a gauche
 622:projet.cpp    **** 			viragePourLigneDroite(false,ajustementVirageLeger);
GAS LISTING /tmp/ccT1kfMR.s 			page 40


 1576               		.stabn	68,0,622,.LM228-.LFBB23
 1577               	.LM228:
 1578 063a 6091 0000 		lds r22,ajustementVirageLeger
 1579               	.L167:
 1580 063e 80E0      		ldi r24,0
 1581 0640 0E94 0000 		call _Z21viragePourLigneDroiteba
 1582 0644 00C0      		rjmp .L157
 1583               	.L163:
 623:projet.cpp    **** 		}
 624:projet.cpp    **** 		else if(capteurDroit())
 1584               		.stabn	68,0,624,.LM229-.LFBB23
 1585               	.LM229:
 1586 0646 0E94 0000 		call _Z12capteurDroitv
 1587 064a 8823      		tst r24
 1588 064c 01F4      		brne .+2
 1589 064e 00C0      		rjmp .L157
 1590 0650 8091 0000 		lds r24,ajustementVirageLeger
 1591 0654 00C0      		rjmp .L168
 1592               	.LBE49:
 1593               	.LBE48:
 1594               		.size	_Z18avancerLigneDroitev, .-_Z18avancerLigneDroitev
 1595               	.Lscope23:
 1596               		.stabs	"",36,0,0,.Lscope23-.LFBB23
 1597               		.stabd	78,0,0
 1598               		.stabs	"_Z7reculerv:F(0,24)",36,0,634,_Z7reculerv
 1599               	.global	_Z7reculerv
 1600               		.type	_Z7reculerv, @function
 1601               	_Z7reculerv:
 1602               		.stabd	46,0,0
 625:projet.cpp    **** 		{
 626:projet.cpp    **** 			//virer legerement a droite
 627:projet.cpp    **** 			viragePourLigneDroite(true,ajustementVirageLeger);
 628:projet.cpp    **** 		}
 629:projet.cpp    **** 
 630:projet.cpp    **** 		ajusterDernierCapteur();//Se souvenir du dernier capteur actif
 631:projet.cpp    **** 	}
 632:projet.cpp    **** }
 633:projet.cpp    **** 
 634:projet.cpp    **** bool reculer()
 635:projet.cpp    **** {
 1603               		.stabn	68,0,635,.LM230-.LFBB24
 1604               	.LM230:
 1605               	.LFBB24:
 1606               	/* prologue: function */
 1607               	/* frame size = 0 */
 1608               	/* stack size = 0 */
 1609               	.L__stack_usage = 0
 636:projet.cpp    **** 	//Reculer jusqu'√† ce qu'on d√©tecte une intersection ou que le temps actif soit suffisaemment √©l
 637:projet.cpp    **** 	ajusterDernierCapteur();//Se souvenir du dernier capteur actif
 1610               		.stabn	68,0,637,.LM231-.LFBB24
 1611               	.LM231:
 1612 0656 0E94 0000 		call _Z21ajusterDernierCapteurv
 638:projet.cpp    **** 	
 639:projet.cpp    **** 	if(finRecul)
 1613               		.stabn	68,0,639,.LM232-.LFBB24
 1614               	.LM232:
 1615 065a 8091 0000 		lds r24,finRecul
GAS LISTING /tmp/ccT1kfMR.s 			page 41


 1616 065e 8823      		tst r24
 1617 0660 01F0      		breq .L171
 640:projet.cpp    **** 	{
 641:projet.cpp    **** 		tempsReculExtra +=10;
 1618               		.stabn	68,0,641,.LM233-.LFBB24
 1619               	.LM233:
 1620 0662 8091 0000 		lds r24,tempsReculExtra
 1621 0666 865F      		subi r24,lo8(-(10))
 1622 0668 8093 0000 		sts tempsReculExtra,r24
 642:projet.cpp    **** 		if(tempsReculExtra>= tempsReculExtraMax)
 1623               		.stabn	68,0,642,.LM234-.LFBB24
 1624               	.LM234:
 1625 066c 9091 0000 		lds r25,tempsReculExtraMax
 1626 0670 8917      		cp r24,r25
 1627 0672 04F0      		brlt .L173
 1628 0674 00C0      		rjmp .L177
 1629               	.L171:
 643:projet.cpp    **** 			return true;
 644:projet.cpp    **** 	}
 645:projet.cpp    **** 	else
 646:projet.cpp    **** 	{
 647:projet.cpp    **** 		if(!perdue())
 1630               		.stabn	68,0,647,.LM235-.LFBB24
 1631               	.LM235:
 1632 0676 0E94 0000 		call _Z6perduev
 1633 067a 8111      		cpse r24,__zero_reg__
 1634 067c 00C0      		rjmp .L174
 648:projet.cpp    **** 			tempsReculActif +=10;
 1635               		.stabn	68,0,648,.LM236-.LFBB24
 1636               	.LM236:
 1637 067e 8091 0000 		lds r24,tempsReculActif
 1638 0682 865F      		subi r24,lo8(-(10))
 1639 0684 8093 0000 		sts tempsReculActif,r24
 1640               	.L174:
 649:projet.cpp    **** 		if(tempsReculActif >= tempsReculActifMax)
 1641               		.stabn	68,0,649,.LM237-.LFBB24
 1642               	.LM237:
 1643 0688 9091 0000 		lds r25,tempsReculActif
 1644 068c 8091 0000 		lds r24,tempsReculActifMax
 1645 0690 9817      		cp r25,r24
 1646 0692 04F0      		brlt .L175
 650:projet.cpp    **** 			finRecul = true;
 1647               		.stabn	68,0,650,.LM238-.LFBB24
 1648               	.LM238:
 1649 0694 81E0      		ldi r24,lo8(1)
 1650 0696 8093 0000 		sts finRecul,r24
 1651               	.L175:
 651:projet.cpp    **** 	
 652:projet.cpp    **** 
 653:projet.cpp    **** 		if(detecterIntersection())
 1652               		.stabn	68,0,653,.LM239-.LFBB24
 1653               	.LM239:
 1654 069a 0E94 0000 		call _Z20detecterIntersectionv
 1655 069e 8823      		tst r24
 1656 06a0 01F0      		breq .L173
 654:projet.cpp    **** 			finRecul = true;
 1657               		.stabn	68,0,654,.LM240-.LFBB24
GAS LISTING /tmp/ccT1kfMR.s 			page 42


 1658               	.LM240:
 1659 06a2 81E0      		ldi r24,lo8(1)
 1660 06a4 8093 0000 		sts finRecul,r24
 1661               	.L173:
 655:projet.cpp    **** 	}
 656:projet.cpp    **** 	
 657:projet.cpp    **** 	reculerAvecAjustement(vitesseReculer,vitesseReculer);
 1662               		.stabn	68,0,657,.LM241-.LFBB24
 1663               	.LM241:
 1664 06a8 8091 0000 		lds r24,vitesseReculer
 1665 06ac 682F      		mov r22,r24
 1666 06ae 70E0      		ldi r23,0
 1667 06b0 90E0      		ldi r25,0
 1668 06b2 0E94 0000 		call _Z21reculerAvecAjustementii
 658:projet.cpp    **** 	return false;
 1669               		.stabn	68,0,658,.LM242-.LFBB24
 1670               	.LM242:
 1671 06b6 80E0      		ldi r24,0
 1672 06b8 0895      		ret
 1673               	.L177:
 643:projet.cpp    **** 			return true;
 1674               		.stabn	68,0,643,.LM243-.LFBB24
 1675               	.LM243:
 1676 06ba 81E0      		ldi r24,lo8(1)
 659:projet.cpp    **** }
 1677               		.stabn	68,0,659,.LM244-.LFBB24
 1678               	.LM244:
 1679 06bc 0895      		ret
 1680               		.size	_Z7reculerv, .-_Z7reculerv
 1681               	.Lscope24:
 1682               		.stabs	"",36,0,0,.Lscope24-.LFBB24
 1683               		.stabd	78,0,0
 1684               		.stabs	"_Z23ajusterTempsActifRecentv:F(0,4)",36,0,661,_Z23ajusterTempsActifRecentv
 1685               	.global	_Z23ajusterTempsActifRecentv
 1686               		.type	_Z23ajusterTempsActifRecentv, @function
 1687               	_Z23ajusterTempsActifRecentv:
 1688               		.stabd	46,0,0
 660:projet.cpp    **** 
 661:projet.cpp    **** void ajusterTempsActifRecent()
 662:projet.cpp    **** {
 1689               		.stabn	68,0,662,.LM245-.LFBB25
 1690               	.LM245:
 1691               	.LFBB25:
 1692               	/* prologue: function */
 1693               	/* frame size = 0 */
 1694               	/* stack size = 0 */
 1695               	.L__stack_usage = 0
 663:projet.cpp    **** 	if(tempsLigneDroiteDepuisIntersection < tempsLigneDroiteActiveMax)
 1696               		.stabn	68,0,663,.LM246-.LFBB25
 1697               	.LM246:
 1698 06be 2091 0000 		lds r18,tempsLigneDroiteDepuisIntersection
 1699 06c2 3091 0000 		lds r19,tempsLigneDroiteDepuisIntersection+1
 1700 06c6 8091 0000 		lds r24,tempsLigneDroiteActiveMax
 1701 06ca 9091 0000 		lds r25,tempsLigneDroiteActiveMax+1
 1702 06ce 2817      		cp r18,r24
 1703 06d0 3907      		cpc r19,r25
 1704 06d2 00F4      		brsh .L182
GAS LISTING /tmp/ccT1kfMR.s 			page 43


 664:projet.cpp    **** 	{
 665:projet.cpp    **** 		if(!perdue())	
 1705               		.stabn	68,0,665,.LM247-.LFBB25
 1706               	.LM247:
 1707 06d4 0E94 0000 		call _Z6perduev
 1708 06d8 8111      		cpse r24,__zero_reg__
 1709 06da 00C0      		rjmp .L183
 666:projet.cpp    **** 			tempsLigneDroiteActive += 10;
 1710               		.stabn	68,0,666,.LM248-.LFBB25
 1711               	.LM248:
 1712 06dc 8091 0000 		lds r24,tempsLigneDroiteActive
 1713 06e0 9091 0000 		lds r25,tempsLigneDroiteActive+1
 1714 06e4 0A96      		adiw r24,10
 1715 06e6 9093 0000 		sts tempsLigneDroiteActive+1,r25
 1716 06ea 8093 0000 		sts tempsLigneDroiteActive,r24
 1717               	.L183:
 667:projet.cpp    **** 		tempsLigneDroiteDepuisIntersection += 10;
 1718               		.stabn	68,0,667,.LM249-.LFBB25
 1719               	.LM249:
 1720 06ee 8091 0000 		lds r24,tempsLigneDroiteDepuisIntersection
 1721 06f2 9091 0000 		lds r25,tempsLigneDroiteDepuisIntersection+1
 1722 06f6 0A96      		adiw r24,10
 1723 06f8 9093 0000 		sts tempsLigneDroiteDepuisIntersection+1,r25
 1724 06fc 8093 0000 		sts tempsLigneDroiteDepuisIntersection,r24
 1725 0700 0895      		ret
 1726               	.L182:
 668:projet.cpp    **** 	}
 669:projet.cpp    **** 	else
 670:projet.cpp    **** 	{	
 671:projet.cpp    **** 		if(!perdue())
 1727               		.stabn	68,0,671,.LM250-.LFBB25
 1728               	.LM250:
 1729 0702 0E94 0000 		call _Z6perduev
 1730 0706 2091 0000 		lds r18,tempsLigneDroiteActive
 1731 070a 3091 0000 		lds r19,tempsLigneDroiteActive+1
 1732 070e 8111      		cpse r24,__zero_reg__
 1733 0710 00C0      		rjmp .L185
 672:projet.cpp    **** 		{
 673:projet.cpp    **** 			tempsLigneDroiteActive += 10;
 1734               		.stabn	68,0,673,.LM251-.LFBB25
 1735               	.LM251:
 1736 0712 265F      		subi r18,-10
 1737 0714 3F4F      		sbci r19,-1
 1738 0716 3093 0000 		sts tempsLigneDroiteActive+1,r19
 1739 071a 2093 0000 		sts tempsLigneDroiteActive,r18
 674:projet.cpp    **** 			if(tempsLigneDroiteActive > tempsLigneDroiteActiveMax)
 1740               		.stabn	68,0,674,.LM252-.LFBB25
 1741               	.LM252:
 1742 071e 8091 0000 		lds r24,tempsLigneDroiteActiveMax
 1743 0722 9091 0000 		lds r25,tempsLigneDroiteActiveMax+1
 1744 0726 8217      		cp r24,r18
 1745 0728 9307      		cpc r25,r19
 1746 072a 00F4      		brsh .L181
 675:projet.cpp    **** 				tempsLigneDroiteActive = tempsLigneDroiteActiveMax;
 1747               		.stabn	68,0,675,.LM253-.LFBB25
 1748               	.LM253:
 1749 072c 9093 0000 		sts tempsLigneDroiteActive+1,r25
GAS LISTING /tmp/ccT1kfMR.s 			page 44


 1750 0730 8093 0000 		sts tempsLigneDroiteActive,r24
 1751 0734 0895      		ret
 1752               	.L185:
 676:projet.cpp    **** 		}
 677:projet.cpp    **** 		else
 678:projet.cpp    **** 		{
 679:projet.cpp    **** 			if(tempsLigneDroiteActive <= 20)
 1753               		.stabn	68,0,679,.LM254-.LFBB25
 1754               	.LM254:
 1755 0736 2531      		cpi r18,21
 1756 0738 3105      		cpc r19,__zero_reg__
 1757 073a 00F4      		brsh .L186
 680:projet.cpp    **** 				tempsLigneDroiteActive = 0;
 1758               		.stabn	68,0,680,.LM255-.LFBB25
 1759               	.LM255:
 1760 073c 1092 0000 		sts tempsLigneDroiteActive+1,__zero_reg__
 1761 0740 1092 0000 		sts tempsLigneDroiteActive,__zero_reg__
 1762 0744 0895      		ret
 1763               	.L186:
 681:projet.cpp    **** 			else
 682:projet.cpp    **** 				tempsLigneDroiteActive -= 20;
 1764               		.stabn	68,0,682,.LM256-.LFBB25
 1765               	.LM256:
 1766 0746 2451      		subi r18,20
 1767 0748 3109      		sbc r19,__zero_reg__
 1768 074a 3093 0000 		sts tempsLigneDroiteActive+1,r19
 1769 074e 2093 0000 		sts tempsLigneDroiteActive,r18
 1770               	.L181:
 1771 0752 0895      		ret
 1772               		.size	_Z23ajusterTempsActifRecentv, .-_Z23ajusterTempsActifRecentv
 1773               	.Lscope25:
 1774               		.stabs	"",36,0,0,.Lscope25-.LFBB25
 1775               		.stabd	78,0,0
 1776               		.stabs	"_Z28ajusterTempsActifSansCapteurv:F(0,4)",36,0,687,_Z28ajusterTempsActifSansCapteurv
 1777               	.global	_Z28ajusterTempsActifSansCapteurv
 1778               		.type	_Z28ajusterTempsActifSansCapteurv, @function
 1779               	_Z28ajusterTempsActifSansCapteurv:
 1780               		.stabd	46,0,0
 683:projet.cpp    **** 		}
 684:projet.cpp    **** 	}
 685:projet.cpp    **** }
 686:projet.cpp    **** 
 687:projet.cpp    **** void ajusterTempsActifSansCapteur()
 688:projet.cpp    **** {
 1781               		.stabn	68,0,688,.LM257-.LFBB26
 1782               	.LM257:
 1783               	.LFBB26:
 1784               	/* prologue: function */
 1785               	/* frame size = 0 */
 1786               	/* stack size = 0 */
 1787               	.L__stack_usage = 0
 689:projet.cpp    **** 	if(delaisAjustementTemporaire <= 0) //Ne pas ajuster le temps hors piste lors d'ajustements
 1788               		.stabn	68,0,689,.LM258-.LFBB26
 1789               	.LM258:
 1790 0754 8091 0000 		lds r24,delaisAjustementTemporaire
 1791 0758 9091 0000 		lds r25,delaisAjustementTemporaire+1
 1792 075c 1816      		cp __zero_reg__,r24
GAS LISTING /tmp/ccT1kfMR.s 			page 45


 1793 075e 1906      		cpc __zero_reg__,r25
 1794 0760 04F0      		brlt .L187
 690:projet.cpp    **** 	{
 691:projet.cpp    **** 		if(perdue())
 1795               		.stabn	68,0,691,.LM259-.LFBB26
 1796               	.LM259:
 1797 0762 0E94 0000 		call _Z6perduev
 1798 0766 8823      		tst r24
 1799 0768 01F0      		breq .L190
 692:projet.cpp    **** 		{
 693:projet.cpp    **** 			tempsActifSansCapteur += 10;
 1800               		.stabn	68,0,693,.LM260-.LFBB26
 1801               	.LM260:
 1802 076a 8091 0000 		lds r24,tempsActifSansCapteur
 1803 076e 9091 0000 		lds r25,tempsActifSansCapteur+1
 1804 0772 0A96      		adiw r24,10
 1805 0774 9093 0000 		sts tempsActifSansCapteur+1,r25
 1806 0778 8093 0000 		sts tempsActifSansCapteur,r24
 694:projet.cpp    **** 			if(tempsActifSansCapteur >= tempsActifSansCapteurMax)
 1807               		.stabn	68,0,694,.LM261-.LFBB26
 1808               	.LM261:
 1809 077c 2091 0000 		lds r18,tempsActifSansCapteurMax
 1810 0780 3091 0000 		lds r19,tempsActifSansCapteurMax+1
 1811 0784 8217      		cp r24,r18
 1812 0786 9307      		cpc r25,r19
 1813 0788 00F0      		brlo .L187
 695:projet.cpp    **** 			{
 696:projet.cpp    **** 				tempsActifSansCapteur = 0;
 1814               		.stabn	68,0,696,.LM262-.LFBB26
 1815               	.LM262:
 1816 078a 1092 0000 		sts tempsActifSansCapteur+1,__zero_reg__
 1817 078e 1092 0000 		sts tempsActifSansCapteur,__zero_reg__
 697:projet.cpp    **** 				modeLigneDroite = false;
 1818               		.stabn	68,0,697,.LM263-.LFBB26
 1819               	.LM263:
 1820 0792 1092 0000 		sts modeLigneDroite,__zero_reg__
 698:projet.cpp    **** 				tomberEnModeReculer();
 1821               		.stabn	68,0,698,.LM264-.LFBB26
 1822               	.LM264:
 1823 0796 0C94 0000 		jmp _Z19tomberEnModeReculerv
 1824               	.L190:
 699:projet.cpp    **** 			}
 700:projet.cpp    **** 		}
 701:projet.cpp    **** 		else
 702:projet.cpp    **** 		{
 703:projet.cpp    **** 			tempsActifSansCapteur = 0;
 1825               		.stabn	68,0,703,.LM265-.LFBB26
 1826               	.LM265:
 1827 079a 1092 0000 		sts tempsActifSansCapteur+1,__zero_reg__
 1828 079e 1092 0000 		sts tempsActifSansCapteur,__zero_reg__
 1829               	.L187:
 1830 07a2 0895      		ret
 1831               		.size	_Z28ajusterTempsActifSansCapteurv, .-_Z28ajusterTempsActifSansCapteurv
 1832               	.Lscope26:
 1833               		.stabs	"",36,0,0,.Lscope26-.LFBB26
 1834               		.stabd	78,0,0
 1835               		.stabs	"_Z24gestionDeplacementSourisv:F(0,4)",36,0,708,_Z24gestionDeplacementSourisv
GAS LISTING /tmp/ccT1kfMR.s 			page 46


 1836               	.global	_Z24gestionDeplacementSourisv
 1837               		.type	_Z24gestionDeplacementSourisv, @function
 1838               	_Z24gestionDeplacementSourisv:
 1839               		.stabd	46,0,0
 704:projet.cpp    **** 		}
 705:projet.cpp    **** 	}
 706:projet.cpp    **** }
 707:projet.cpp    **** 
 708:projet.cpp    **** void gestionDeplacementSouris()
 709:projet.cpp    **** {
 1840               		.stabn	68,0,709,.LM266-.LFBB27
 1841               	.LM266:
 1842               	.LFBB27:
 1843               	/* prologue: function */
 1844               	/* frame size = 0 */
 1845               	/* stack size = 0 */
 1846               	.L__stack_usage = 0
 710:projet.cpp    **** 	if(modeLigneDroite)
 1847               		.stabn	68,0,710,.LM267-.LFBB27
 1848               	.LM267:
 1849 07a4 8091 0000 		lds r24,modeLigneDroite
 1850 07a8 8823      		tst r24
 1851 07aa 01F4      		brne .+2
 1852 07ac 00C0      		rjmp .L193
 711:projet.cpp    **** 	{
 712:projet.cpp    **** 		if(detecterIntersection())
 1853               		.stabn	68,0,712,.LM268-.LFBB27
 1854               	.LM268:
 1855 07ae 0E94 0000 		call _Z20detecterIntersectionv
 1856 07b2 8823      		tst r24
 1857 07b4 01F0      		breq .L194
 713:projet.cpp    **** 		{	
 714:projet.cpp    **** 			if(debug)
 1858               		.stabn	68,0,714,.LM269-.LFBB27
 1859               	.LM269:
 1860 07b6 8091 0000 		lds r24,debug
 1861 07ba 8823      		tst r24
 1862 07bc 01F0      		breq .L195
 715:projet.cpp    **** 				r.jouerSon(70);
 1863               		.stabn	68,0,715,.LM270-.LFBB27
 1864               	.LM270:
 1865 07be 86E4      		ldi r24,lo8(70)
 1866 07c0 0E94 0000 		call _ZN8LibRobot8jouerSonEh
 1867               	.L195:
 716:projet.cpp    **** 			tomberEnModerDetecterTypeIntersection(false);
 1868               		.stabn	68,0,716,.LM271-.LFBB27
 1869               	.LM271:
 1870 07c4 80E0      		ldi r24,0
 1871 07c6 0E94 0000 		call _Z37tomberEnModerDetecterTypeIntersectionb
 717:projet.cpp    **** 			determinerTypeIntersection();
 1872               		.stabn	68,0,717,.LM272-.LFBB27
 1873               	.LM272:
 1874 07ca 0C94 0000 		jmp _Z26determinerTypeIntersectionv
 1875               	.L194:
 718:projet.cpp    **** 		}
 719:projet.cpp    **** 		else
 720:projet.cpp    **** 		{
GAS LISTING /tmp/ccT1kfMR.s 			page 47


 721:projet.cpp    **** 			ajusterTempsActifSansCapteur();
 1876               		.stabn	68,0,721,.LM273-.LFBB27
 1877               	.LM273:
 1878 07ce 0E94 0000 		call _Z28ajusterTempsActifSansCapteurv
 722:projet.cpp    **** 			ajusterTempsActifRecent();
 1879               		.stabn	68,0,722,.LM274-.LFBB27
 1880               	.LM274:
 1881 07d2 0E94 0000 		call _Z23ajusterTempsActifRecentv
 723:projet.cpp    **** 			tempsDepuisIntersection+=10;
 1882               		.stabn	68,0,723,.LM275-.LFBB27
 1883               	.LM275:
 1884 07d6 8091 0000 		lds r24,tempsDepuisIntersection
 1885 07da 9091 0000 		lds r25,tempsDepuisIntersection+1
 1886 07de 0A96      		adiw r24,10
 1887 07e0 9093 0000 		sts tempsDepuisIntersection+1,r25
 1888 07e4 8093 0000 		sts tempsDepuisIntersection,r24
 724:projet.cpp    **** 			if(tempsDepuisIntersection >=tempsAttenteMaxIntersection) //D√©clencher intersection manuelle
 1889               		.stabn	68,0,724,.LM276-.LFBB27
 1890               	.LM276:
 1891 07e8 2091 0000 		lds r18,tempsAttenteMaxIntersection
 1892 07ec 3091 0000 		lds r19,tempsAttenteMaxIntersection+1
 1893 07f0 8217      		cp r24,r18
 1894 07f2 9307      		cpc r25,r19
 1895 07f4 00F0      		brlo .L196
 725:projet.cpp    **** 			{
 726:projet.cpp    **** 				//Intersection manuelle, donc d√©tecter si le temps actif recent est suffisaement √©lev√© pour
 727:projet.cpp    **** 				//qu'on ait le droit de continuer tout droit
 728:projet.cpp    **** 				if(tempsLigneDroiteActive >= tempsLigneDroiteActiveSeuil)
 1896               		.stabn	68,0,728,.LM277-.LFBB27
 1897               	.LM277:
 1898 07f6 2091 0000 		lds r18,tempsLigneDroiteActive
 1899 07fa 3091 0000 		lds r19,tempsLigneDroiteActive+1
 1900 07fe 8091 0000 		lds r24,tempsLigneDroiteActiveSeuil
 1901 0802 9091 0000 		lds r25,tempsLigneDroiteActiveSeuil+1
 1902 0806 2817      		cp r18,r24
 1903 0808 3907      		cpc r19,r25
 1904 080a 00F0      		brlo .L197
 729:projet.cpp    **** 				{
 730:projet.cpp    **** 					tempsDepuisIntersection = 0;
 1905               		.stabn	68,0,730,.LM278-.LFBB27
 1906               	.LM278:
 1907 080c 1092 0000 		sts tempsDepuisIntersection+1,__zero_reg__
 1908 0810 1092 0000 		sts tempsDepuisIntersection,__zero_reg__
 731:projet.cpp    **** 					tempsLigneDroiteActive = 0;
 1909               		.stabn	68,0,731,.LM279-.LFBB27
 1910               	.LM279:
 1911 0814 1092 0000 		sts tempsLigneDroiteActive+1,__zero_reg__
 1912 0818 1092 0000 		sts tempsLigneDroiteActive,__zero_reg__
 732:projet.cpp    **** 					tempsLigneDroiteDepuisIntersection = 0;
 1913               		.stabn	68,0,732,.LM280-.LFBB27
 1914               	.LM280:
 1915 081c 1092 0000 		sts tempsLigneDroiteDepuisIntersection+1,__zero_reg__
 1916 0820 1092 0000 		sts tempsLigneDroiteDepuisIntersection,__zero_reg__
 1917 0824 00C0      		rjmp .L196
 1918               	.L197:
 733:projet.cpp    **** 					avancerLigneDroite();
 734:projet.cpp    **** 				}
GAS LISTING /tmp/ccT1kfMR.s 			page 48


 735:projet.cpp    **** 				else
 736:projet.cpp    **** 				{
 737:projet.cpp    **** 					modeLigneDroite = false;
 1919               		.stabn	68,0,737,.LM281-.LFBB27
 1920               	.LM281:
 1921 0826 1092 0000 		sts modeLigneDroite,__zero_reg__
 738:projet.cpp    **** 					tomberEnModeReculer();
 1922               		.stabn	68,0,738,.LM282-.LFBB27
 1923               	.LM282:
 1924 082a 0C94 0000 		jmp _Z19tomberEnModeReculerv
 1925               	.L196:
 739:projet.cpp    **** 				}
 740:projet.cpp    **** 				/*tomberEnModerDetecterTypeIntersection(true);
 741:projet.cpp    **** 				determinerTypeIntersection();*/
 742:projet.cpp    **** 			}
 743:projet.cpp    **** 			else
 744:projet.cpp    **** 			{
 745:projet.cpp    **** 				avancerLigneDroite();
 1926               		.stabn	68,0,745,.LM283-.LFBB27
 1927               	.LM283:
 1928 082e 0C94 0000 		jmp _Z18avancerLigneDroitev
 1929               	.L193:
 746:projet.cpp    **** 			}
 747:projet.cpp    **** 		}
 748:projet.cpp    **** 	}
 749:projet.cpp    **** 	else if(modeIntersection)
 1930               		.stabn	68,0,749,.LM284-.LFBB27
 1931               	.LM284:
 1932 0832 8091 0000 		lds r24,modeIntersection
 1933 0836 8823      		tst r24
 1934 0838 01F0      		breq .L198
 750:projet.cpp    **** 	{
 751:projet.cpp    **** 		if(determinerTypeIntersection())
 1935               		.stabn	68,0,751,.LM285-.LFBB27
 1936               	.LM285:
 1937 083a 0E94 0000 		call _Z26determinerTypeIntersectionv
 1938 083e 8823      		tst r24
 1939 0840 01F0      		breq .L196
 752:projet.cpp    **** 		{
 753:projet.cpp    **** 			if(debug)
 1940               		.stabn	68,0,753,.LM286-.LFBB27
 1941               	.LM286:
 1942 0842 8091 0000 		lds r24,debug
 1943 0846 8111      		cpse r24,__zero_reg__
 754:projet.cpp    **** 				r.arreterSon();
 1944               		.stabn	68,0,754,.LM287-.LFBB27
 1945               	.LM287:
 1946 0848 0E94 0000 		call _ZN8LibRobot10arreterSonEv
 1947               	.L199:
 755:projet.cpp    **** 			modeIntersection = false;
 1948               		.stabn	68,0,755,.LM288-.LFBB27
 1949               	.LM288:
 1950 084c 1092 0000 		sts modeIntersection,__zero_reg__
 756:projet.cpp    **** 
 757:projet.cpp    **** 			if(coteForce == 0)
 1951               		.stabn	68,0,757,.LM289-.LFBB27
 1952               	.LM289:
GAS LISTING /tmp/ccT1kfMR.s 			page 49


 1953 0850 8091 0000 		lds r24,coteForce
 1954 0854 8111      		cpse r24,__zero_reg__
 1955 0856 00C0      		rjmp .L200
 1956 0858 00C0      		rjmp .L246
 1957               	.L200:
 758:projet.cpp    **** 				decisionVirage(false, false);
 759:projet.cpp    **** 			else if(coteForce == 1)
 1958               		.stabn	68,0,759,.LM290-.LFBB27
 1959               	.LM290:
 1960 085a 8130      		cpi r24,lo8(1)
 1961 085c 01F4      		brne .L201
 1962               	.L246:
 760:projet.cpp    **** 				decisionVirage(true, false);
 1963               		.stabn	68,0,760,.LM291-.LFBB27
 1964               	.LM291:
 1965 085e 60E0      		ldi r22,0
 1966 0860 00C0      		rjmp .L244
 1967               	.L201:
 761:projet.cpp    **** 			else if(coteForce == 2)
 1968               		.stabn	68,0,761,.LM292-.LFBB27
 1969               	.LM292:
 1970 0862 8230      		cpi r24,lo8(2)
 1971 0864 01F0      		breq .+2
 1972 0866 00C0      		rjmp .L192
 762:projet.cpp    **** 				decisionVirage(false, true);
 1973               		.stabn	68,0,762,.LM293-.LFBB27
 1974               	.LM293:
 1975 0868 61E0      		ldi r22,lo8(1)
 1976 086a 80E0      		ldi r24,0
 1977               	.L244:
 1978 086c 0C94 0000 		jmp _Z14decisionViragebb
 1979               	.L198:
 763:projet.cpp    **** 		}
 764:projet.cpp    **** 		else
 765:projet.cpp    **** 		{
 766:projet.cpp    **** 			avancerLigneDroite(); //Continuer d'ajuster le d√©placement
 767:projet.cpp    **** 		}
 768:projet.cpp    **** 	}
 769:projet.cpp    **** 	else if(modeVirageDroite)
 1980               		.stabn	68,0,769,.LM294-.LFBB27
 1981               	.LM294:
 1982 0870 8091 0000 		lds r24,modeVirageDroite
 1983 0874 8823      		tst r24
 1984 0876 01F0      		breq .L204
 770:projet.cpp    **** 	{
 771:projet.cpp    **** 		if(debug)
 1985               		.stabn	68,0,771,.LM295-.LFBB27
 1986               	.LM295:
 1987 0878 8091 0000 		lds r24,debug
 1988 087c 8823      		tst r24
 1989 087e 01F0      		breq .L205
 772:projet.cpp    **** 		{
 773:projet.cpp    **** 			r.eteindreDEL(portDEL, pinCouleur, pinCouleur2);
 1990               		.stabn	68,0,773,.LM296-.LFBB27
 1991               	.LM296:
 1992 0880 4091 0000 		lds r20,pinCouleur2
 1993 0884 6091 0000 		lds r22,pinCouleur
GAS LISTING /tmp/ccT1kfMR.s 			page 50


 1994 0888 85E2      		ldi r24,lo8(37)
 1995 088a 90E0      		ldi r25,0
 1996 088c 0E94 0000 		call _ZN8LibRobot11eteindreDELERVhhh
 774:projet.cpp    **** 			r.allumerDEL(portDEL, pinCouleur);
 1997               		.stabn	68,0,774,.LM297-.LFBB27
 1998               	.LM297:
 1999 0890 6091 0000 		lds r22,pinCouleur
 2000 0894 85E2      		ldi r24,lo8(37)
 2001 0896 90E0      		ldi r25,0
 2002 0898 0E94 0000 		call _ZN8LibRobot10allumerDELERVhh
 2003               	.L205:
 775:projet.cpp    **** 		}
 776:projet.cpp    **** 
 777:projet.cpp    **** 		if(virer(true))
 2004               		.stabn	68,0,777,.LM298-.LFBB27
 2005               	.LM298:
 2006 089c 81E0      		ldi r24,lo8(1)
 2007 089e 0E94 0000 		call _Z5virerb
 2008 08a2 8823      		tst r24
 2009 08a4 01F4      		brne .+2
 2010 08a6 00C0      		rjmp .L192
 778:projet.cpp    **** 		{
 779:projet.cpp    **** 			if(debug)
 2011               		.stabn	68,0,779,.LM299-.LFBB27
 2012               	.LM299:
 2013 08a8 8091 0000 		lds r24,debug
 2014 08ac 8823      		tst r24
 2015 08ae 01F0      		breq .L207
 780:projet.cpp    **** 				r.eteindreDEL(portDEL, pinCouleur, pinCouleur2);
 2016               		.stabn	68,0,780,.LM300-.LFBB27
 2017               	.LM300:
 2018 08b0 4091 0000 		lds r20,pinCouleur2
 2019 08b4 6091 0000 		lds r22,pinCouleur
 2020 08b8 85E2      		ldi r24,lo8(37)
 2021 08ba 90E0      		ldi r25,0
 2022 08bc 0E94 0000 		call _ZN8LibRobot11eteindreDELERVhhh
 2023               	.L207:
 781:projet.cpp    **** 			modeVirageDroite = false;
 2024               		.stabn	68,0,781,.LM301-.LFBB27
 2025               	.LM301:
 2026 08c0 1092 0000 		sts modeVirageDroite,__zero_reg__
 782:projet.cpp    **** 			modeLigneDroite = true;
 2027               		.stabn	68,0,782,.LM302-.LFBB27
 2028               	.LM302:
 2029 08c4 81E0      		ldi r24,lo8(1)
 2030 08c6 8093 0000 		sts modeLigneDroite,r24
 783:projet.cpp    **** 			dernierCapteur = 3; //Mettre le dernier virage comme √©tant celui de droite
 2031               		.stabn	68,0,783,.LM303-.LFBB27
 2032               	.LM303:
 2033 08ca 83E0      		ldi r24,lo8(3)
 2034 08cc 00C0      		rjmp .L245
 2035               	.L204:
 784:projet.cpp    **** 		}
 785:projet.cpp    **** 	}
 786:projet.cpp    **** 	else if(modeVirageGauche)
 2036               		.stabn	68,0,786,.LM304-.LFBB27
 2037               	.LM304:
GAS LISTING /tmp/ccT1kfMR.s 			page 51


 2038 08ce 8091 0000 		lds r24,modeVirageGauche
 2039 08d2 8823      		tst r24
 2040 08d4 01F0      		breq .L208
 787:projet.cpp    **** 	{
 788:projet.cpp    **** 		if(debug)
 2041               		.stabn	68,0,788,.LM305-.LFBB27
 2042               	.LM305:
 2043 08d6 8091 0000 		lds r24,debug
 2044 08da 8823      		tst r24
 2045 08dc 01F0      		breq .L209
 789:projet.cpp    **** 		{
 790:projet.cpp    **** 			r.eteindreDEL(portDEL, pinCouleur, pinCouleur2);		
 2046               		.stabn	68,0,790,.LM306-.LFBB27
 2047               	.LM306:
 2048 08de 4091 0000 		lds r20,pinCouleur2
 2049 08e2 6091 0000 		lds r22,pinCouleur
 2050 08e6 85E2      		ldi r24,lo8(37)
 2051 08e8 90E0      		ldi r25,0
 2052 08ea 0E94 0000 		call _ZN8LibRobot11eteindreDELERVhhh
 791:projet.cpp    **** 			r.allumerDEL(portDEL, pinCouleur2);
 2053               		.stabn	68,0,791,.LM307-.LFBB27
 2054               	.LM307:
 2055 08ee 6091 0000 		lds r22,pinCouleur2
 2056 08f2 85E2      		ldi r24,lo8(37)
 2057 08f4 90E0      		ldi r25,0
 2058 08f6 0E94 0000 		call _ZN8LibRobot10allumerDELERVhh
 2059               	.L209:
 792:projet.cpp    **** 		}
 793:projet.cpp    **** 
 794:projet.cpp    **** 		if(virer(false))
 2060               		.stabn	68,0,794,.LM308-.LFBB27
 2061               	.LM308:
 2062 08fa 80E0      		ldi r24,0
 2063 08fc 0E94 0000 		call _Z5virerb
 2064 0900 8823      		tst r24
 2065 0902 01F0      		breq .L192
 795:projet.cpp    **** 		{
 796:projet.cpp    **** 			if(debug)
 2066               		.stabn	68,0,796,.LM309-.LFBB27
 2067               	.LM309:
 2068 0904 8091 0000 		lds r24,debug
 2069 0908 8823      		tst r24
 2070 090a 01F0      		breq .L210
 797:projet.cpp    **** 				r.eteindreDEL(portDEL, pinCouleur, pinCouleur2);
 2071               		.stabn	68,0,797,.LM310-.LFBB27
 2072               	.LM310:
 2073 090c 4091 0000 		lds r20,pinCouleur2
 2074 0910 6091 0000 		lds r22,pinCouleur
 2075 0914 85E2      		ldi r24,lo8(37)
 2076 0916 90E0      		ldi r25,0
 2077 0918 0E94 0000 		call _ZN8LibRobot11eteindreDELERVhhh
 2078               	.L210:
 798:projet.cpp    **** 			modeVirageGauche = false;
 2079               		.stabn	68,0,798,.LM311-.LFBB27
 2080               	.LM311:
 2081 091c 1092 0000 		sts modeVirageGauche,__zero_reg__
 799:projet.cpp    **** 			modeLigneDroite = true;
GAS LISTING /tmp/ccT1kfMR.s 			page 52


 2082               		.stabn	68,0,799,.LM312-.LFBB27
 2083               	.LM312:
 2084 0920 81E0      		ldi r24,lo8(1)
 2085 0922 8093 0000 		sts modeLigneDroite,r24
 2086               	.L245:
 800:projet.cpp    **** 			dernierCapteur = 1; //Mettre le dernier virage comme √©tant celui de gauche
 2087               		.stabn	68,0,800,.LM313-.LFBB27
 2088               	.LM313:
 2089 0926 8093 0000 		sts dernierCapteur,r24
 2090 092a 0895      		ret
 2091               	.L208:
 801:projet.cpp    **** 		}
 802:projet.cpp    **** 	}
 803:projet.cpp    **** 	else if(modeReculer)
 2092               		.stabn	68,0,803,.LM314-.LFBB27
 2093               	.LM314:
 2094 092c 8091 0000 		lds r24,modeReculer
 2095 0930 8823      		tst r24
 2096 0932 01F0      		breq .L192
 804:projet.cpp    **** 	{
 805:projet.cpp    **** 		if(reculer())
 2097               		.stabn	68,0,805,.LM315-.LFBB27
 2098               	.LM315:
 2099 0934 0E94 0000 		call _Z7reculerv
 2100 0938 8823      		tst r24
 2101 093a 01F0      		breq .L192
 806:projet.cpp    **** 		{
 807:projet.cpp    **** 			/*tomberEnModerDetecterTypeIntersection(true); //detection forc√©e
 808:projet.cpp    **** 			determinerTypeIntersection();*/
 809:projet.cpp    **** 			
 810:projet.cpp    **** 			tempsDepuisIntersection = 0;
 2102               		.stabn	68,0,810,.LM316-.LFBB27
 2103               	.LM316:
 2104 093c 1092 0000 		sts tempsDepuisIntersection+1,__zero_reg__
 2105 0940 1092 0000 		sts tempsDepuisIntersection,__zero_reg__
 811:projet.cpp    **** 			tempsLigneDroiteActive = 0;
 2106               		.stabn	68,0,811,.LM317-.LFBB27
 2107               	.LM317:
 2108 0944 1092 0000 		sts tempsLigneDroiteActive+1,__zero_reg__
 2109 0948 1092 0000 		sts tempsLigneDroiteActive,__zero_reg__
 812:projet.cpp    **** 			tempsLigneDroiteDepuisIntersection = 0;
 2110               		.stabn	68,0,812,.LM318-.LFBB27
 2111               	.LM318:
 2112 094c 1092 0000 		sts tempsLigneDroiteDepuisIntersection+1,__zero_reg__
 2113 0950 1092 0000 		sts tempsLigneDroiteDepuisIntersection,__zero_reg__
 813:projet.cpp    **** 			tempsActifSansCapteur = 0;
 2114               		.stabn	68,0,813,.LM319-.LFBB27
 2115               	.LM319:
 2116 0954 1092 0000 		sts tempsActifSansCapteur+1,__zero_reg__
 2117 0958 1092 0000 		sts tempsActifSansCapteur,__zero_reg__
 814:projet.cpp    **** 			modeLigneDroite = true;
 2118               		.stabn	68,0,814,.LM320-.LFBB27
 2119               	.LM320:
 2120 095c 81E0      		ldi r24,lo8(1)
 2121 095e 8093 0000 		sts modeLigneDroite,r24
 2122               	.L192:
 2123 0962 0895      		ret
GAS LISTING /tmp/ccT1kfMR.s 			page 53


 2124               		.size	_Z24gestionDeplacementSourisv, .-_Z24gestionDeplacementSourisv
 2125               	.Lscope27:
 2126               		.stabs	"",36,0,0,.Lscope27-.LFBB27
 2127               		.stabd	78,0,0
 2128               		.stabs	"_Z23afficheLumiereCoteForcev:F(0,4)",36,0,819,_Z23afficheLumiereCoteForcev
 2129               	.global	_Z23afficheLumiereCoteForcev
 2130               		.type	_Z23afficheLumiereCoteForcev, @function
 2131               	_Z23afficheLumiereCoteForcev:
 2132               		.stabd	46,0,0
 815:projet.cpp    **** 		}
 816:projet.cpp    **** 	}
 817:projet.cpp    **** }
 818:projet.cpp    **** 
 819:projet.cpp    **** void afficheLumiereCoteForce()
 820:projet.cpp    **** {
 2133               		.stabn	68,0,820,.LM321-.LFBB28
 2134               	.LM321:
 2135               	.LFBB28:
 2136               	/* prologue: function */
 2137               	/* frame size = 0 */
 2138               	/* stack size = 0 */
 2139               	.L__stack_usage = 0
 821:projet.cpp    **** 	//Gauche = vert, Droite = rouge
 822:projet.cpp    **** 
 823:projet.cpp    **** 	r.eteindreDEL(portDEL, pinCouleur, pinCouleur2);
 2140               		.stabn	68,0,823,.LM322-.LFBB28
 2141               	.LM322:
 2142 0964 4091 0000 		lds r20,pinCouleur2
 2143 0968 6091 0000 		lds r22,pinCouleur
 2144 096c 85E2      		ldi r24,lo8(37)
 2145 096e 90E0      		ldi r25,0
 2146 0970 0E94 0000 		call _ZN8LibRobot11eteindreDELERVhhh
 824:projet.cpp    **** 	if(coteForce == 1)
 2147               		.stabn	68,0,824,.LM323-.LFBB28
 2148               	.LM323:
 2149 0974 8091 0000 		lds r24,coteForce
 2150 0978 8130      		cpi r24,lo8(1)
 2151 097a 01F4      		brne .L248
 825:projet.cpp    **** 	{
 826:projet.cpp    **** 		r.allumerDEL(portDEL, pinCouleur2);
 2152               		.stabn	68,0,826,.LM324-.LFBB28
 2153               	.LM324:
 2154 097c 6091 0000 		lds r22,pinCouleur2
 2155 0980 00C0      		rjmp .L250
 2156               	.L248:
 827:projet.cpp    **** 	}
 828:projet.cpp    **** 	else if(coteForce == 2)
 2157               		.stabn	68,0,828,.LM325-.LFBB28
 2158               	.LM325:
 2159 0982 8230      		cpi r24,lo8(2)
 2160 0984 01F4      		brne .L247
 829:projet.cpp    **** 	{
 830:projet.cpp    **** 		r.allumerDEL(portDEL, pinCouleur);
 2161               		.stabn	68,0,830,.LM326-.LFBB28
 2162               	.LM326:
 2163 0986 6091 0000 		lds r22,pinCouleur
 2164               	.L250:
GAS LISTING /tmp/ccT1kfMR.s 			page 54


 2165 098a 85E2      		ldi r24,lo8(37)
 2166 098c 90E0      		ldi r25,0
 2167 098e 0C94 0000 		jmp _ZN8LibRobot10allumerDELERVhh
 2168               	.L247:
 2169 0992 0895      		ret
 2170               		.size	_Z23afficheLumiereCoteForcev, .-_Z23afficheLumiereCoteForcev
 2171               	.Lscope28:
 2172               		.stabs	"",36,0,0,.Lscope28-.LFBB28
 2173               		.stabd	78,0,0
 2174               		.stabs	"_Z16getValeurLumierev:F(0,29)",36,0,834,_Z16getValeurLumierev
 2175               	.global	_Z16getValeurLumierev
 2176               		.type	_Z16getValeurLumierev, @function
 2177               	_Z16getValeurLumierev:
 2178               		.stabd	46,0,0
 831:projet.cpp    **** 	}
 832:projet.cpp    **** }
 833:projet.cpp    **** 
 834:projet.cpp    **** uint8_t getValeurLumiere()
 835:projet.cpp    **** {
 2179               		.stabn	68,0,835,.LM327-.LFBB29
 2180               	.LM327:
 2181               	.LFBB29:
 2182 0994 1F93      		push r17
 2183 0996 CF93      		push r28
 2184 0998 DF93      		push r29
 2185 099a 00D0      		rcall .
 2186 099c CDB7      		in r28,__SP_L__
 2187 099e DEB7      		in r29,__SP_H__
 2188               	/* prologue: function */
 2189               	/* frame size = 2 */
 2190               	/* stack size = 5 */
 2191               	.L__stack_usage = 5
 2192               	.LBB50:
 836:projet.cpp    **** 	can capteurDroit;
 2193               		.stabn	68,0,836,.LM328-.LFBB29
 2194               	.LM328:
 2195 09a0 CE01      		movw r24,r28
 2196 09a2 0296      		adiw r24,2
 2197 09a4 0E94 0000 		call _ZN3canC1Ev
 837:projet.cpp    **** 	can capteurGauche;
 2198               		.stabn	68,0,837,.LM329-.LFBB29
 2199               	.LM329:
 2200 09a8 CE01      		movw r24,r28
 2201 09aa 0196      		adiw r24,1
 2202 09ac 0E94 0000 		call _ZN3canC1Ev
 838:projet.cpp    **** 	uint16_t valeurD = capteurDroit.lecture(1); 	// Garder seulement les 8 bits de poids faible.
 2203               		.stabn	68,0,838,.LM330-.LFBB29
 2204               	.LM330:
 2205 09b0 61E0      		ldi r22,lo8(1)
 2206 09b2 CE01      		movw r24,r28
 2207 09b4 0296      		adiw r24,2
 2208 09b6 0E94 0000 		call _ZN3can7lectureEh
 839:projet.cpp    **** 	valeurD = valeurD >> 2;
 2209               		.stabn	68,0,839,.LM331-.LFBB29
 2210               	.LM331:
 2211 09ba 9695      		lsr r25
 2212 09bc 8795      		ror r24
GAS LISTING /tmp/ccT1kfMR.s 			page 55


 2213 09be 9695      		lsr r25
 2214 09c0 8795      		ror r24
 840:projet.cpp    **** 	uint8_t valeur8D = (valeurD & 0x00FF);
 2215               		.stabn	68,0,840,.LM332-.LFBB29
 2216               	.LM332:
 2217 09c2 182F      		mov r17,r24
 841:projet.cpp    **** 
 842:projet.cpp    **** 	uint16_t valeurG = capteurGauche.lecture(0);
 2218               		.stabn	68,0,842,.LM333-.LFBB29
 2219               	.LM333:
 2220 09c4 60E0      		ldi r22,0
 2221 09c6 CE01      		movw r24,r28
 2222 09c8 0196      		adiw r24,1
 2223 09ca 0E94 0000 		call _ZN3can7lectureEh
 843:projet.cpp    **** 	valeurG = valeurG >> 2;
 2224               		.stabn	68,0,843,.LM334-.LFBB29
 2225               	.LM334:
 2226 09ce 9695      		lsr r25
 2227 09d0 8795      		ror r24
 2228 09d2 9695      		lsr r25
 2229 09d4 8795      		ror r24
 844:projet.cpp    **** 	uint8_t valeur8G = (valeurG & 0x00FF); 
 845:projet.cpp    **** 
 846:projet.cpp    **** 	if(valeur8G < 235 && valeur8D < 235)
 2230               		.stabn	68,0,846,.LM335-.LFBB29
 2231               	.LM335:
 2232 09d6 8B3E      		cpi r24,lo8(-21)
 2233 09d8 00F4      		brsh .L252
 2234               		.stabn	68,0,846,.LM336-.LFBB29
 2235               	.LM336:
 2236 09da 1B3E      		cpi r17,lo8(-21)
 2237 09dc 00F0      		brlo .L255
 2238               	.L254:
 847:projet.cpp    **** 		return 0;
 848:projet.cpp    **** 
 849:projet.cpp    **** 	if(valeur8G >= 235 && valeur8G > valeur8D)
 850:projet.cpp    **** 		return 1;
 851:projet.cpp    **** 
 852:projet.cpp    **** 	return 2;
 2239               		.stabn	68,0,852,.LM337-.LFBB29
 2240               	.LM337:
 2241 09de 12E0      		ldi r17,lo8(2)
 2242 09e0 00C0      		rjmp .L253
 2243               	.L252:
 849:projet.cpp    **** 	if(valeur8G >= 235 && valeur8G > valeur8D)
 2244               		.stabn	68,0,849,.LM338-.LFBB29
 2245               	.LM338:
 2246 09e2 1817      		cp r17,r24
 2247 09e4 00F4      		brsh .L254
 850:projet.cpp    **** 		return 1;
 2248               		.stabn	68,0,850,.LM339-.LFBB29
 2249               	.LM339:
 2250 09e6 11E0      		ldi r17,lo8(1)
 2251 09e8 00C0      		rjmp .L253
 2252               	.L255:
 847:projet.cpp    **** 		return 0;
 2253               		.stabn	68,0,847,.LM340-.LFBB29
GAS LISTING /tmp/ccT1kfMR.s 			page 56


 2254               	.LM340:
 2255 09ea 10E0      		ldi r17,0
 2256               	.L253:
 2257               		.stabn	68,0,852,.LM341-.LFBB29
 2258               	.LM341:
 2259 09ec CE01      		movw r24,r28
 2260 09ee 0196      		adiw r24,1
 2261 09f0 0E94 0000 		call _ZN3canD1Ev
 2262 09f4 CE01      		movw r24,r28
 2263 09f6 0296      		adiw r24,2
 2264 09f8 0E94 0000 		call _ZN3canD1Ev
 2265               	.LBE50:
 853:projet.cpp    **** }
 2266               		.stabn	68,0,853,.LM342-.LFBB29
 2267               	.LM342:
 2268 09fc 812F      		mov r24,r17
 2269               	/* epilogue start */
 2270 09fe 0F90      		pop __tmp_reg__
 2271 0a00 0F90      		pop __tmp_reg__
 2272 0a02 DF91      		pop r29
 2273 0a04 CF91      		pop r28
 2274 0a06 1F91      		pop r17
 2275 0a08 0895      		ret
 2276               		.size	_Z16getValeurLumierev, .-_Z16getValeurLumierev
 2277               		.stabs	"capteurDroit:(0,86)",128,0,836,2
 2278               		.stabs	"capteurGauche:(0,86)",128,0,837,1
 2279               		.stabs	"valeur8D:r(0,29)",64,0,840,17
 2280               		.stabs	"valeur8G:r(0,29)",64,0,844,24
 2281               		.stabn	192,0,0,.LBB50-.LFBB29
 2282               		.stabn	224,0,0,.LBE50-.LFBB29
 2283               	.Lscope29:
 2284               		.stabs	"",36,0,0,.Lscope29-.LFBB29
 2285               		.stabd	78,0,0
 2286               		.stabs	"_Z14gestionLumierev:F(0,4)",36,0,855,_Z14gestionLumierev
 2287               	.global	_Z14gestionLumierev
 2288               		.type	_Z14gestionLumierev, @function
 2289               	_Z14gestionLumierev:
 2290               		.stabd	46,0,0
 854:projet.cpp    **** 
 855:projet.cpp    **** void gestionLumiere()
 856:projet.cpp    **** {
 2291               		.stabn	68,0,856,.LM343-.LFBB30
 2292               	.LM343:
 2293               	.LFBB30:
 2294               	/* prologue: function */
 2295               	/* frame size = 0 */
 2296               	/* stack size = 0 */
 2297               	.L__stack_usage = 0
 2298               	.LBB51:
 857:projet.cpp    **** 	delaiLumiereCourrant++;
 2299               		.stabn	68,0,857,.LM344-.LFBB30
 2300               	.LM344:
 2301 0a0a 8091 0000 		lds r24,delaiLumiereCourrant
 2302 0a0e 8F5F      		subi r24,lo8(-(1))
 2303 0a10 8093 0000 		sts delaiLumiereCourrant,r24
 858:projet.cpp    **** 	if(delaiLumiereCourrant < delaiLumiereMax)
 2304               		.stabn	68,0,858,.LM345-.LFBB30
GAS LISTING /tmp/ccT1kfMR.s 			page 57


 2305               	.LM345:
 2306 0a14 9091 0000 		lds r25,delaiLumiereMax
 2307 0a18 8917      		cp r24,r25
 2308 0a1a 00F0      		brlo .L256
 859:projet.cpp    **** 		return;
 860:projet.cpp    **** 
 861:projet.cpp    **** 	delaiLumiereCourrant = 0;
 2309               		.stabn	68,0,861,.LM346-.LFBB30
 2310               	.LM346:
 2311 0a1c 1092 0000 		sts delaiLumiereCourrant,__zero_reg__
 862:projet.cpp    **** 	uint8_t lumiere = getValeurLumiere();
 2312               		.stabn	68,0,862,.LM347-.LFBB30
 2313               	.LM347:
 2314 0a20 0E94 0000 		call _Z16getValeurLumierev
 863:projet.cpp    **** 	if(lumiere > 0)
 2315               		.stabn	68,0,863,.LM348-.LFBB30
 2316               	.LM348:
 2317 0a24 8111      		cpse r24,__zero_reg__
 864:projet.cpp    **** 		coteForce = lumiere;
 2318               		.stabn	68,0,864,.LM349-.LFBB30
 2319               	.LM349:
 2320 0a26 8093 0000 		sts coteForce,r24
 2321               	.L258:
 865:projet.cpp    **** 	afficheLumiereCoteForce();
 2322               		.stabn	68,0,865,.LM350-.LFBB30
 2323               	.LM350:
 2324 0a2a 0C94 0000 		jmp _Z23afficheLumiereCoteForcev
 2325               	.L256:
 2326 0a2e 0895      		ret
 2327               	.LBE51:
 2328               		.size	_Z14gestionLumierev, .-_Z14gestionLumierev
 2329               		.stabs	"lumiere:r(0,29)",64,0,862,24
 2330               		.stabn	192,0,0,.LBB51-.LFBB30
 2331               		.stabn	224,0,0,.LBE51-.LFBB30
 2332               	.Lscope30:
 2333               		.stabs	"",36,0,0,.Lscope30-.LFBB30
 2334               		.stabd	78,0,0
 2335               		.section	.text.startup,"ax",@progbits
 2336               		.stabs	"main:F(0,9)",36,0,868,main
 2337               	.global	main
 2338               		.type	main, @function
 2339               	main:
 2340               		.stabd	46,0,0
 866:projet.cpp    **** }
 867:projet.cpp    **** 
 868:projet.cpp    **** int main()
 869:projet.cpp    **** {
 2341               		.stabn	68,0,869,.LM351-.LFBB31
 2342               	.LM351:
 2343               	.LFBB31:
 2344               	/* prologue: function */
 2345               	/* frame size = 0 */
 2346               	/* stack size = 0 */
 2347               	.L__stack_usage = 0
 870:projet.cpp    **** 	r.initialisation();
 2348               		.stabn	68,0,870,.LM352-.LFBB31
 2349               	.LM352:
GAS LISTING /tmp/ccT1kfMR.s 			page 58


 2350 0000 0E94 0000 		call _ZN8LibRobot14initialisationEv
 871:projet.cpp    **** 	r.debut();
 2351               		.stabn	68,0,871,.LM353-.LFBB31
 2352               	.LM353:
 2353 0004 0E94 0000 		call _ZN8LibRobot5debutEv
 872:projet.cpp    **** 	r.partirMinuterieSon(255); //Partir le timer pour les decision al√©atoire
 2354               		.stabn	68,0,872,.LM354-.LFBB31
 2355               	.LM354:
 2356 0008 8FEF      		ldi r24,lo8(-1)
 2357 000a 90E0      		ldi r25,0
 2358 000c 0E94 0000 		call _ZN8LibRobot18partirMinuterieSonEj
 873:projet.cpp    **** 
 874:projet.cpp    **** 	//------------------------
 875:projet.cpp    **** 	//Initialisation des ports
 876:projet.cpp    **** 	//------------------------
 877:projet.cpp    **** 
 878:projet.cpp    **** 	//LE son sur B2-3
 879:projet.cpp    **** 	DDRB = 0xff; // sortie, del
 2359               		.stabn	68,0,879,.LM355-.LFBB31
 2360               	.LM355:
 2361 0010 8FEF      		ldi r24,lo8(-1)
 2362 0012 84B9      		out 0x4,r24
 880:projet.cpp    **** 
 881:projet.cpp    **** 	DDRC = 0xff; // sortie, son
 2363               		.stabn	68,0,881,.LM356-.LFBB31
 2364               	.LM356:
 2365 0014 87B9      		out 0x7,r24
 882:projet.cpp    **** 
 883:projet.cpp    **** 	DDRA = 0x00; // Entree, capteur ligne	
 2366               		.stabn	68,0,883,.LM357-.LFBB31
 2367               	.LM357:
 2368 0016 11B8      		out 0x1,__zero_reg__
 884:projet.cpp    **** 
 885:projet.cpp    **** 	DDRD = 0xff; // sortie, moteurs
 2369               		.stabn	68,0,885,.LM358-.LFBB31
 2370               	.LM358:
 2371 0018 8AB9      		out 0xa,r24
 886:projet.cpp    **** 
 887:projet.cpp    **** 	//------------------------
 888:projet.cpp    **** 	//Initialisation variables globales
 889:projet.cpp    **** 	//------------------------
 890:projet.cpp    **** 
 891:projet.cpp    **** 	//var virage
 892:projet.cpp    **** 		vitesseVirage = 120; //120, 100, 95
 2372               		.stabn	68,0,892,.LM359-.LFBB31
 2373               	.LM359:
 2374 001a 88E7      		ldi r24,lo8(120)
 2375 001c 8093 0000 		sts vitesseVirage,r24
 893:projet.cpp    **** 		detecteurEnabled = false;
 2376               		.stabn	68,0,893,.LM360-.LFBB31
 2377               	.LM360:
 2378 0020 1092 0000 		sts detecteurEnabled,__zero_reg__
 894:projet.cpp    **** 
 895:projet.cpp    **** 		varianceVitesseVirage = 0;
 2379               		.stabn	68,0,895,.LM361-.LFBB31
 2380               	.LM361:
 2381 0024 1092 0000 		sts varianceVitesseVirage,__zero_reg__
GAS LISTING /tmp/ccT1kfMR.s 			page 59


 896:projet.cpp    **** 		varianceVitesseVirageDeceleration = 2;
 2382               		.stabn	68,0,896,.LM362-.LFBB31
 2383               	.LM362:
 2384 0028 22E0      		ldi r18,lo8(2)
 2385 002a 2093 0000 		sts varianceVitesseVirageDeceleration,r18
 897:projet.cpp    **** 		varianceVitesseVirageMax = 0;
 2386               		.stabn	68,0,897,.LM363-.LFBB31
 2387               	.LM363:
 2388 002e 1092 0000 		sts varianceVitesseVirageMax,__zero_reg__
 898:projet.cpp    **** 		varianceVitesseVirageMin = -50;
 2389               		.stabn	68,0,898,.LM364-.LFBB31
 2390               	.LM364:
 2391 0032 8EEC      		ldi r24,lo8(-50)
 2392 0034 8093 0000 		sts varianceVitesseVirageMin,r24
 899:projet.cpp    **** 
 900:projet.cpp    **** 	//Var intersection
 901:projet.cpp    **** 		modeLigneDroite = true;
 2393               		.stabn	68,0,901,.LM365-.LFBB31
 2394               	.LM365:
 2395 0038 31E0      		ldi r19,lo8(1)
 2396 003a 3093 0000 		sts modeLigneDroite,r19
 902:projet.cpp    **** 		modeIntersection = false;
 2397               		.stabn	68,0,902,.LM366-.LFBB31
 2398               	.LM366:
 2399 003e 1092 0000 		sts modeIntersection,__zero_reg__
 903:projet.cpp    **** 		modeVirageGauche = false;
 2400               		.stabn	68,0,903,.LM367-.LFBB31
 2401               	.LM367:
 2402 0042 1092 0000 		sts modeVirageGauche,__zero_reg__
 904:projet.cpp    **** 		modeVirageDroite = false;
 2403               		.stabn	68,0,904,.LM368-.LFBB31
 2404               	.LM368:
 2405 0046 1092 0000 		sts modeVirageDroite,__zero_reg__
 905:projet.cpp    **** 		modeReculer = false;
 2406               		.stabn	68,0,905,.LM369-.LFBB31
 2407               	.LM369:
 2408 004a 1092 0000 		sts modeReculer,__zero_reg__
 906:projet.cpp    **** 
 907:projet.cpp    **** 		franchieGauche = false;
 2409               		.stabn	68,0,907,.LM370-.LFBB31
 2410               	.LM370:
 2411 004e 1092 0000 		sts franchieGauche,__zero_reg__
 908:projet.cpp    **** 		franchieMilieu = false;
 2412               		.stabn	68,0,908,.LM371-.LFBB31
 2413               	.LM371:
 2414 0052 1092 0000 		sts franchieMilieu,__zero_reg__
 909:projet.cpp    **** 		franchieDroite = false;
 2415               		.stabn	68,0,909,.LM372-.LFBB31
 2416               	.LM372:
 2417 0056 1092 0000 		sts franchieDroite,__zero_reg__
 910:projet.cpp    **** 
 911:projet.cpp    **** 		tempsIntersection = 0;
 2418               		.stabn	68,0,911,.LM373-.LFBB31
 2419               	.LM373:
 2420 005a 1092 0000 		sts tempsIntersection+1,__zero_reg__
 2421 005e 1092 0000 		sts tempsIntersection,__zero_reg__
 912:projet.cpp    **** 		tempsIntersectionMax = 350;
GAS LISTING /tmp/ccT1kfMR.s 			page 60


 2422               		.stabn	68,0,912,.LM374-.LFBB31
 2423               	.LM374:
 2424 0062 8EE5      		ldi r24,lo8(94)
 2425 0064 91E0      		ldi r25,lo8(1)
 2426 0066 9093 0000 		sts tempsIntersectionMax+1,r25
 2427 006a 8093 0000 		sts tempsIntersectionMax,r24
 913:projet.cpp    **** 		seuilTempsActifToutDroit = 300;
 2428               		.stabn	68,0,913,.LM375-.LFBB31
 2429               	.LM375:
 2430 006e 8CE2      		ldi r24,lo8(44)
 2431 0070 91E0      		ldi r25,lo8(1)
 2432 0072 9093 0000 		sts seuilTempsActifToutDroit+1,r25
 2433 0076 8093 0000 		sts seuilTempsActifToutDroit,r24
 914:projet.cpp    **** 
 915:projet.cpp    **** 		tempsDepuisIntersection = 0;
 2434               		.stabn	68,0,915,.LM376-.LFBB31
 2435               	.LM376:
 2436 007a 1092 0000 		sts tempsDepuisIntersection+1,__zero_reg__
 2437 007e 1092 0000 		sts tempsDepuisIntersection,__zero_reg__
 916:projet.cpp    **** 		tempsAttenteMaxIntersection = 2500; //2250
 2438               		.stabn	68,0,916,.LM377-.LFBB31
 2439               	.LM377:
 2440 0082 84EC      		ldi r24,lo8(-60)
 2441 0084 99E0      		ldi r25,lo8(9)
 2442 0086 9093 0000 		sts tempsAttenteMaxIntersection+1,r25
 2443 008a 8093 0000 		sts tempsAttenteMaxIntersection,r24
 917:projet.cpp    **** 
 918:projet.cpp    **** 		virageForce = false;
 2444               		.stabn	68,0,918,.LM378-.LFBB31
 2445               	.LM378:
 2446 008e 1092 0000 		sts virageForce,__zero_reg__
 919:projet.cpp    **** 
 920:projet.cpp    **** 	//Var ligne droite
 921:projet.cpp    **** 		dernierCapteur = 2;
 2447               		.stabn	68,0,921,.LM379-.LFBB31
 2448               	.LM379:
 2449 0092 2093 0000 		sts dernierCapteur,r18
 922:projet.cpp    **** 		vitesseBase = 130; //130
 2450               		.stabn	68,0,922,.LM380-.LFBB31
 2451               	.LM380:
 2452 0096 82E8      		ldi r24,lo8(-126)
 2453 0098 8093 0000 		sts vitesseBase,r24
 923:projet.cpp    **** 		ajustementGauche = 0;
 2454               		.stabn	68,0,923,.LM381-.LFBB31
 2455               	.LM381:
 2456 009c 1092 0000 		sts ajustementGauche,__zero_reg__
 924:projet.cpp    **** 		ajustementDroit = 0;
 2457               		.stabn	68,0,924,.LM382-.LFBB31
 2458               	.LM382:
 2459 00a0 1092 0000 		sts ajustementDroit,__zero_reg__
 925:projet.cpp    **** 		ajustementVirageLeger = 20;
 2460               		.stabn	68,0,925,.LM383-.LFBB31
 2461               	.LM383:
 2462 00a4 84E1      		ldi r24,lo8(20)
 2463 00a6 8093 0000 		sts ajustementVirageLeger,r24
 926:projet.cpp    **** 		ajustementVirageMoyen = 35;
 2464               		.stabn	68,0,926,.LM384-.LFBB31
GAS LISTING /tmp/ccT1kfMR.s 			page 61


 2465               	.LM384:
 2466 00aa 83E2      		ldi r24,lo8(35)
 2467 00ac 8093 0000 		sts ajustementVirageMoyen,r24
 927:projet.cpp    **** 		ajustementMax = 14;
 2468               		.stabn	68,0,927,.LM385-.LFBB31
 2469               	.LM385:
 2470 00b0 8EE0      		ldi r24,lo8(14)
 2471 00b2 8093 0000 		sts ajustementMax,r24
 928:projet.cpp    **** 		ajustementMin = ajustementMax * -1;
 2472               		.stabn	68,0,928,.LM386-.LFBB31
 2473               	.LM386:
 2474 00b6 82EF      		ldi r24,lo8(-14)
 2475 00b8 8093 0000 		sts ajustementMin,r24
 929:projet.cpp    **** 		ajustementRetour = 1;
 2476               		.stabn	68,0,929,.LM387-.LFBB31
 2477               	.LM387:
 2478 00bc 3093 0000 		sts ajustementRetour,r19
 930:projet.cpp    **** 		delaisLigneDroite = 0;
 2479               		.stabn	68,0,930,.LM388-.LFBB31
 2480               	.LM388:
 2481 00c0 1092 0000 		sts delaisLigneDroite+1,__zero_reg__
 2482 00c4 1092 0000 		sts delaisLigneDroite,__zero_reg__
 931:projet.cpp    **** 		delaisMaxLigneDroite = 50;
 2483               		.stabn	68,0,931,.LM389-.LFBB31
 2484               	.LM389:
 2485 00c8 82E3      		ldi r24,lo8(50)
 2486 00ca 90E0      		ldi r25,0
 2487 00cc 9093 0000 		sts delaisMaxLigneDroite+1,r25
 2488 00d0 8093 0000 		sts delaisMaxLigneDroite,r24
 932:projet.cpp    **** 
 933:projet.cpp    **** 	//Var ajustement
 934:projet.cpp    **** 		delaisAjustementTemporaire = 0;
 2489               		.stabn	68,0,934,.LM390-.LFBB31
 2490               	.LM390:
 2491 00d4 1092 0000 		sts delaisAjustementTemporaire+1,__zero_reg__
 2492 00d8 1092 0000 		sts delaisAjustementTemporaire,__zero_reg__
 935:projet.cpp    **** 		ajustementTournant = 15;
 2493               		.stabn	68,0,935,.LM391-.LFBB31
 2494               	.LM391:
 2495 00dc 8FE0      		ldi r24,lo8(15)
 2496 00de 8093 0000 		sts ajustementTournant,r24
 936:projet.cpp    **** 		ajustementLigneDroite = 2;
 2497               		.stabn	68,0,936,.LM392-.LFBB31
 2498               	.LM392:
 2499 00e2 2093 0000 		sts ajustementLigneDroite,r18
 937:projet.cpp    **** 		dureeAjustementTournant = 50;
 2500               		.stabn	68,0,937,.LM393-.LFBB31
 2501               	.LM393:
 2502 00e6 92E3      		ldi r25,lo8(50)
 2503 00e8 9093 0000 		sts dureeAjustementTournant,r25
 938:projet.cpp    **** 		dureeAjustementLigneDroite = 10;
 2504               		.stabn	68,0,938,.LM394-.LFBB31
 2505               	.LM394:
 2506 00ec 8AE0      		ldi r24,lo8(10)
 2507 00ee 8093 0000 		sts dureeAjustementLigneDroite,r24
 939:projet.cpp    **** 
 940:projet.cpp    **** 	//Var reculer
GAS LISTING /tmp/ccT1kfMR.s 			page 62


 941:projet.cpp    **** 		vitesseReculer = 170;//130
 2508               		.stabn	68,0,941,.LM395-.LFBB31
 2509               	.LM395:
 2510 00f2 2AEA      		ldi r18,lo8(-86)
 2511 00f4 2093 0000 		sts vitesseReculer,r18
 942:projet.cpp    **** 		tempsReculActif = 0;
 2512               		.stabn	68,0,942,.LM396-.LFBB31
 2513               	.LM396:
 2514 00f8 1092 0000 		sts tempsReculActif,__zero_reg__
 943:projet.cpp    **** 		tempsReculActifMax = 100;
 2515               		.stabn	68,0,943,.LM397-.LFBB31
 2516               	.LM397:
 2517 00fc 24E6      		ldi r18,lo8(100)
 2518 00fe 2093 0000 		sts tempsReculActifMax,r18
 944:projet.cpp    **** 		tempsReculExtra = 0;
 2519               		.stabn	68,0,944,.LM398-.LFBB31
 2520               	.LM398:
 2521 0102 1092 0000 		sts tempsReculExtra,__zero_reg__
 945:projet.cpp    **** 		tempsReculExtraMax = 50;
 2522               		.stabn	68,0,945,.LM399-.LFBB31
 2523               	.LM399:
 2524 0106 9093 0000 		sts tempsReculExtraMax,r25
 946:projet.cpp    **** 		
 947:projet.cpp    **** 	//Var lumi√®res
 948:projet.cpp    **** 		seuilEclaire = 235;
 2525               		.stabn	68,0,948,.LM400-.LFBB31
 2526               	.LM400:
 2527 010a 9BEE      		ldi r25,lo8(-21)
 2528 010c 9093 0000 		sts seuilEclaire,r25
 949:projet.cpp    **** 		coteForce = 0;
 2529               		.stabn	68,0,949,.LM401-.LFBB31
 2530               	.LM401:
 2531 0110 1092 0000 		sts coteForce,__zero_reg__
 950:projet.cpp    **** 		delaiLumiereMax = 10;
 2532               		.stabn	68,0,950,.LM402-.LFBB31
 2533               	.LM402:
 2534 0114 8093 0000 		sts delaiLumiereMax,r24
 951:projet.cpp    **** 		delaiLumiereCourrant = 0;
 2535               		.stabn	68,0,951,.LM403-.LFBB31
 2536               	.LM403:
 2537 0118 1092 0000 		sts delaiLumiereCourrant,__zero_reg__
 952:projet.cpp    **** 
 953:projet.cpp    **** 	//Var tomber
 954:projet.cpp    **** 		tempsLigneDroiteActive = 0;
 2538               		.stabn	68,0,954,.LM404-.LFBB31
 2539               	.LM404:
 2540 011c 1092 0000 		sts tempsLigneDroiteActive+1,__zero_reg__
 2541 0120 1092 0000 		sts tempsLigneDroiteActive,__zero_reg__
 955:projet.cpp    **** 		tempsLigneDroiteDepuisIntersection = 0;
 2542               		.stabn	68,0,955,.LM405-.LFBB31
 2543               	.LM405:
 2544 0124 1092 0000 		sts tempsLigneDroiteDepuisIntersection+1,__zero_reg__
 2545 0128 1092 0000 		sts tempsLigneDroiteDepuisIntersection,__zero_reg__
 956:projet.cpp    **** 		tempsLigneDroiteActiveMax = 250; //On regarde le temps actif sur les dernieres 250 ms
 2546               		.stabn	68,0,956,.LM406-.LFBB31
 2547               	.LM406:
 2548 012c 8AEF      		ldi r24,lo8(-6)
GAS LISTING /tmp/ccT1kfMR.s 			page 63


 2549 012e 90E0      		ldi r25,0
 2550 0130 9093 0000 		sts tempsLigneDroiteActiveMax+1,r25
 2551 0134 8093 0000 		sts tempsLigneDroiteActiveMax,r24
 957:projet.cpp    **** 		tempsLigneDroiteActiveSeuil = 120; //Seuil a atteindre pour continuer tout droit, sans quoi on re
 2552               		.stabn	68,0,957,.LM407-.LFBB31
 2553               	.LM407:
 2554 0138 88E7      		ldi r24,lo8(120)
 2555 013a 90E0      		ldi r25,0
 2556 013c 9093 0000 		sts tempsLigneDroiteActiveSeuil+1,r25
 2557 0140 8093 0000 		sts tempsLigneDroiteActiveSeuil,r24
 958:projet.cpp    **** 
 959:projet.cpp    **** 		tempsActifSansCapteur = 0;
 2558               		.stabn	68,0,959,.LM408-.LFBB31
 2559               	.LM408:
 2560 0144 1092 0000 		sts tempsActifSansCapteur+1,__zero_reg__
 2561 0148 1092 0000 		sts tempsActifSansCapteur,__zero_reg__
 960:projet.cpp    **** 		tempsActifSansCapteurMax = 140;
 2562               		.stabn	68,0,960,.LM409-.LFBB31
 2563               	.LM409:
 2564 014c 8CE8      		ldi r24,lo8(-116)
 2565 014e 90E0      		ldi r25,0
 2566 0150 9093 0000 		sts tempsActifSansCapteurMax+1,r25
 2567 0154 8093 0000 		sts tempsActifSansCapteurMax,r24
 2568               	.L263:
 961:projet.cpp    **** 		
 962:projet.cpp    **** 
 963:projet.cpp    **** 	//------------------------
 964:projet.cpp    **** 	//Boucle de d√©placement
 965:projet.cpp    **** 	//------------------------
 966:projet.cpp    **** 
 967:projet.cpp    **** 	while(true)
 968:projet.cpp    **** 	{	
 969:projet.cpp    **** 		gestionDeplacementSouris();
 2569               		.stabn	68,0,969,.LM410-.LFBB31
 2570               	.LM410:
 2571 0158 0E94 0000 		call _Z24gestionDeplacementSourisv
 970:projet.cpp    **** 		gestionLumiere();
 2572               		.stabn	68,0,970,.LM411-.LFBB31
 2573               	.LM411:
 2574 015c 0E94 0000 		call _Z14gestionLumierev
 2575               	.LBB52:
 2576               	.LBB53:
 2577               		.stabs	"/usr/lib/gcc/avr/4.7.3/../../../../avr/include/util/delay.h",132,0,0,.Ltext1
 2578               	.Ltext1:
   1:/usr/lib/gcc/avr/4.7.3/../../../../avr/include/util/delay.h **** /* Copyright (c) 2002, Marek Michalkiewicz
   2:/usr/lib/gcc/avr/4.7.3/../../../../avr/include/util/delay.h ****    Copyright (c) 2004,2005,2007 Joerg Wunsch
   3:/usr/lib/gcc/avr/4.7.3/../../../../avr/include/util/delay.h ****    Copyright (c) 2007  Florin-Viorel Petrov
   4:/usr/lib/gcc/avr/4.7.3/../../../../avr/include/util/delay.h ****    All rights reserved.
   5:/usr/lib/gcc/avr/4.7.3/../../../../avr/include/util/delay.h **** 
   6:/usr/lib/gcc/avr/4.7.3/../../../../avr/include/util/delay.h ****    Redistribution and use in source and binary forms, with or without
   7:/usr/lib/gcc/avr/4.7.3/../../../../avr/include/util/delay.h ****    modification, are permitted provided that the following conditions are met:
   8:/usr/lib/gcc/avr/4.7.3/../../../../avr/include/util/delay.h **** 
   9:/usr/lib/gcc/avr/4.7.3/../../../../avr/include/util/delay.h ****    * Redistributions of source code must retain the above copyright
  10:/usr/lib/gcc/avr/4.7.3/../../../../avr/include/util/delay.h ****      notice, this list of conditions and the following disclaimer.
  11:/usr/lib/gcc/avr/4.7.3/../../../../avr/include/util/delay.h **** 
  12:/usr/lib/gcc/avr/4.7.3/../../../../avr/include/util/delay.h ****    * Redistributions in binary form must reproduce the above copyright
  13:/usr/lib/gcc/avr/4.7.3/../../../../avr/include/util/delay.h ****      notice, this list of conditions and the following disclaimer in
GAS LISTING /tmp/ccT1kfMR.s 			page 64


  14:/usr/lib/gcc/avr/4.7.3/../../../../avr/include/util/delay.h ****      the documentation and/or other materials provided with the
  15:/usr/lib/gcc/avr/4.7.3/../../../../avr/include/util/delay.h ****      distribution.
  16:/usr/lib/gcc/avr/4.7.3/../../../../avr/include/util/delay.h **** 
  17:/usr/lib/gcc/avr/4.7.3/../../../../avr/include/util/delay.h ****    * Neither the name of the copyright holders nor the names of
  18:/usr/lib/gcc/avr/4.7.3/../../../../avr/include/util/delay.h ****      contributors may be used to endorse or promote products derived
  19:/usr/lib/gcc/avr/4.7.3/../../../../avr/include/util/delay.h ****      from this software without specific prior written permission.
  20:/usr/lib/gcc/avr/4.7.3/../../../../avr/include/util/delay.h **** 
  21:/usr/lib/gcc/avr/4.7.3/../../../../avr/include/util/delay.h ****   THIS SOFTWARE IS PROVIDED BY THE COPYRIGHT HOLDERS AND CONTRIBUTORS "AS IS"
  22:/usr/lib/gcc/avr/4.7.3/../../../../avr/include/util/delay.h ****   AND ANY EXPRESS OR IMPLIED WARRANTIES, INCLUDING, BUT NOT LIMITED TO, THE
  23:/usr/lib/gcc/avr/4.7.3/../../../../avr/include/util/delay.h ****   IMPLIED WARRANTIES OF MERCHANTABILITY AND FITNESS FOR A PARTICULAR PURPOSE
  24:/usr/lib/gcc/avr/4.7.3/../../../../avr/include/util/delay.h ****   ARE DISCLAIMED. IN NO EVENT SHALL THE COPYRIGHT OWNER OR CONTRIBUTORS BE
  25:/usr/lib/gcc/avr/4.7.3/../../../../avr/include/util/delay.h ****   LIABLE FOR ANY DIRECT, INDIRECT, INCIDENTAL, SPECIAL, EXEMPLARY, OR
  26:/usr/lib/gcc/avr/4.7.3/../../../../avr/include/util/delay.h ****   CONSEQUENTIAL DAMAGES (INCLUDING, BUT NOT LIMITED TO, PROCUREMENT OF
  27:/usr/lib/gcc/avr/4.7.3/../../../../avr/include/util/delay.h ****   SUBSTITUTE GOODS OR SERVICES; LOSS OF USE, DATA, OR PROFITS; OR BUSINESS
  28:/usr/lib/gcc/avr/4.7.3/../../../../avr/include/util/delay.h ****   INTERRUPTION) HOWEVER CAUSED AND ON ANY THEORY OF LIABILITY, WHETHER IN
  29:/usr/lib/gcc/avr/4.7.3/../../../../avr/include/util/delay.h ****   CONTRACT, STRICT LIABILITY, OR TORT (INCLUDING NEGLIGENCE OR OTHERWISE)
  30:/usr/lib/gcc/avr/4.7.3/../../../../avr/include/util/delay.h ****   ARISING IN ANY WAY OUT OF THE USE OF THIS SOFTWARE, EVEN IF ADVISED OF THE
  31:/usr/lib/gcc/avr/4.7.3/../../../../avr/include/util/delay.h ****   POSSIBILITY OF SUCH DAMAGE. */
  32:/usr/lib/gcc/avr/4.7.3/../../../../avr/include/util/delay.h **** 
  33:/usr/lib/gcc/avr/4.7.3/../../../../avr/include/util/delay.h **** /* $Id: delay.h.in 2251 2011-09-14 08:20:33Z joerg_wunsch $ */
  34:/usr/lib/gcc/avr/4.7.3/../../../../avr/include/util/delay.h **** 
  35:/usr/lib/gcc/avr/4.7.3/../../../../avr/include/util/delay.h **** #ifndef _UTIL_DELAY_H_
  36:/usr/lib/gcc/avr/4.7.3/../../../../avr/include/util/delay.h **** #define _UTIL_DELAY_H_ 1
  37:/usr/lib/gcc/avr/4.7.3/../../../../avr/include/util/delay.h **** 
  38:/usr/lib/gcc/avr/4.7.3/../../../../avr/include/util/delay.h **** #ifndef __HAS_DELAY_CYCLES
  39:/usr/lib/gcc/avr/4.7.3/../../../../avr/include/util/delay.h **** #define __HAS_DELAY_CYCLES 1
  40:/usr/lib/gcc/avr/4.7.3/../../../../avr/include/util/delay.h **** #endif
  41:/usr/lib/gcc/avr/4.7.3/../../../../avr/include/util/delay.h **** 
  42:/usr/lib/gcc/avr/4.7.3/../../../../avr/include/util/delay.h **** #include <inttypes.h>
  43:/usr/lib/gcc/avr/4.7.3/../../../../avr/include/util/delay.h **** #include <util/delay_basic.h>
  44:/usr/lib/gcc/avr/4.7.3/../../../../avr/include/util/delay.h **** #include <math.h>
  45:/usr/lib/gcc/avr/4.7.3/../../../../avr/include/util/delay.h **** 
  46:/usr/lib/gcc/avr/4.7.3/../../../../avr/include/util/delay.h **** /** \file */
  47:/usr/lib/gcc/avr/4.7.3/../../../../avr/include/util/delay.h **** /** \defgroup util_delay <util/delay.h>: Convenience functions for busy-wait delay loops
  48:/usr/lib/gcc/avr/4.7.3/../../../../avr/include/util/delay.h ****     \code
  49:/usr/lib/gcc/avr/4.7.3/../../../../avr/include/util/delay.h ****     #define F_CPU 1000000UL  // 1 MHz
  50:/usr/lib/gcc/avr/4.7.3/../../../../avr/include/util/delay.h ****     //#define F_CPU 14.7456E6
  51:/usr/lib/gcc/avr/4.7.3/../../../../avr/include/util/delay.h ****     #include <util/delay.h>
  52:/usr/lib/gcc/avr/4.7.3/../../../../avr/include/util/delay.h ****     \endcode
  53:/usr/lib/gcc/avr/4.7.3/../../../../avr/include/util/delay.h **** 
  54:/usr/lib/gcc/avr/4.7.3/../../../../avr/include/util/delay.h ****     \note As an alternative method, it is possible to pass the
  55:/usr/lib/gcc/avr/4.7.3/../../../../avr/include/util/delay.h ****     F_CPU macro down to the compiler from the Makefile.
  56:/usr/lib/gcc/avr/4.7.3/../../../../avr/include/util/delay.h ****     Obviously, in that case, no \c \#define statement should be
  57:/usr/lib/gcc/avr/4.7.3/../../../../avr/include/util/delay.h ****     used.
  58:/usr/lib/gcc/avr/4.7.3/../../../../avr/include/util/delay.h **** 
  59:/usr/lib/gcc/avr/4.7.3/../../../../avr/include/util/delay.h ****     The functions in this header file are wrappers around the basic
  60:/usr/lib/gcc/avr/4.7.3/../../../../avr/include/util/delay.h ****     busy-wait functions from <util/delay_basic.h>.  They are meant as
  61:/usr/lib/gcc/avr/4.7.3/../../../../avr/include/util/delay.h ****     convenience functions where actual time values can be specified
  62:/usr/lib/gcc/avr/4.7.3/../../../../avr/include/util/delay.h ****     rather than a number of cycles to wait for.  The idea behind is
  63:/usr/lib/gcc/avr/4.7.3/../../../../avr/include/util/delay.h ****     that compile-time constant expressions will be eliminated by
  64:/usr/lib/gcc/avr/4.7.3/../../../../avr/include/util/delay.h ****     compiler optimization so floating-point expressions can be used
  65:/usr/lib/gcc/avr/4.7.3/../../../../avr/include/util/delay.h ****     to calculate the number of delay cycles needed based on the CPU
  66:/usr/lib/gcc/avr/4.7.3/../../../../avr/include/util/delay.h ****     frequency passed by the macro F_CPU.
  67:/usr/lib/gcc/avr/4.7.3/../../../../avr/include/util/delay.h **** 
  68:/usr/lib/gcc/avr/4.7.3/../../../../avr/include/util/delay.h ****     \note In order for these functions to work as intended, compiler
  69:/usr/lib/gcc/avr/4.7.3/../../../../avr/include/util/delay.h ****     optimizations <em>must</em> be enabled, and the delay time
  70:/usr/lib/gcc/avr/4.7.3/../../../../avr/include/util/delay.h ****     <em>must</em> be an expression that is a known constant at
GAS LISTING /tmp/ccT1kfMR.s 			page 65


  71:/usr/lib/gcc/avr/4.7.3/../../../../avr/include/util/delay.h ****     compile-time.  If these requirements are not met, the resulting
  72:/usr/lib/gcc/avr/4.7.3/../../../../avr/include/util/delay.h ****     delay will be much longer (and basically unpredictable), and
  73:/usr/lib/gcc/avr/4.7.3/../../../../avr/include/util/delay.h ****     applications that otherwise do not use floating-point calculations
  74:/usr/lib/gcc/avr/4.7.3/../../../../avr/include/util/delay.h ****     will experience severe code bloat by the floating-point library
  75:/usr/lib/gcc/avr/4.7.3/../../../../avr/include/util/delay.h ****     routines linked into the application.
  76:/usr/lib/gcc/avr/4.7.3/../../../../avr/include/util/delay.h **** 
  77:/usr/lib/gcc/avr/4.7.3/../../../../avr/include/util/delay.h ****     The functions available allow the specification of microsecond, and
  78:/usr/lib/gcc/avr/4.7.3/../../../../avr/include/util/delay.h ****     millisecond delays directly, using the application-supplied macro
  79:/usr/lib/gcc/avr/4.7.3/../../../../avr/include/util/delay.h ****     F_CPU as the CPU clock frequency (in Hertz).
  80:/usr/lib/gcc/avr/4.7.3/../../../../avr/include/util/delay.h **** 
  81:/usr/lib/gcc/avr/4.7.3/../../../../avr/include/util/delay.h **** */
  82:/usr/lib/gcc/avr/4.7.3/../../../../avr/include/util/delay.h **** 
  83:/usr/lib/gcc/avr/4.7.3/../../../../avr/include/util/delay.h **** #if !defined(__DOXYGEN__)
  84:/usr/lib/gcc/avr/4.7.3/../../../../avr/include/util/delay.h **** static inline void _delay_us(double __us) __attribute__((always_inline));
  85:/usr/lib/gcc/avr/4.7.3/../../../../avr/include/util/delay.h **** static inline void _delay_ms(double __ms) __attribute__((always_inline));
  86:/usr/lib/gcc/avr/4.7.3/../../../../avr/include/util/delay.h **** #endif
  87:/usr/lib/gcc/avr/4.7.3/../../../../avr/include/util/delay.h **** 
  88:/usr/lib/gcc/avr/4.7.3/../../../../avr/include/util/delay.h **** #ifndef F_CPU
  89:/usr/lib/gcc/avr/4.7.3/../../../../avr/include/util/delay.h **** /* prevent compiler error by supplying a default */
  90:/usr/lib/gcc/avr/4.7.3/../../../../avr/include/util/delay.h **** # warning "F_CPU not defined for <util/delay.h>"
  91:/usr/lib/gcc/avr/4.7.3/../../../../avr/include/util/delay.h **** # define F_CPU 1000000UL
  92:/usr/lib/gcc/avr/4.7.3/../../../../avr/include/util/delay.h **** #endif
  93:/usr/lib/gcc/avr/4.7.3/../../../../avr/include/util/delay.h **** 
  94:/usr/lib/gcc/avr/4.7.3/../../../../avr/include/util/delay.h **** #ifndef __OPTIMIZE__
  95:/usr/lib/gcc/avr/4.7.3/../../../../avr/include/util/delay.h **** # warning "Compiler optimizations disabled; functions from <util/delay.h> won't work as designed"
  96:/usr/lib/gcc/avr/4.7.3/../../../../avr/include/util/delay.h **** #endif
  97:/usr/lib/gcc/avr/4.7.3/../../../../avr/include/util/delay.h **** 
  98:/usr/lib/gcc/avr/4.7.3/../../../../avr/include/util/delay.h **** #if __HAS_DELAY_CYCLES && defined(__OPTIMIZE__) && \
  99:/usr/lib/gcc/avr/4.7.3/../../../../avr/include/util/delay.h ****   !defined(__DELAY_BACKWARD_COMPATIBLE__) &&	   \
 100:/usr/lib/gcc/avr/4.7.3/../../../../avr/include/util/delay.h ****   __STDC_HOSTED__
 101:/usr/lib/gcc/avr/4.7.3/../../../../avr/include/util/delay.h **** #  include <math.h>
 102:/usr/lib/gcc/avr/4.7.3/../../../../avr/include/util/delay.h **** #endif
 103:/usr/lib/gcc/avr/4.7.3/../../../../avr/include/util/delay.h **** 
 104:/usr/lib/gcc/avr/4.7.3/../../../../avr/include/util/delay.h **** /**
 105:/usr/lib/gcc/avr/4.7.3/../../../../avr/include/util/delay.h ****    \ingroup util_delay
 106:/usr/lib/gcc/avr/4.7.3/../../../../avr/include/util/delay.h **** 
 107:/usr/lib/gcc/avr/4.7.3/../../../../avr/include/util/delay.h ****    Perform a delay of \c __ms milliseconds, using _delay_loop_2().
 108:/usr/lib/gcc/avr/4.7.3/../../../../avr/include/util/delay.h **** 
 109:/usr/lib/gcc/avr/4.7.3/../../../../avr/include/util/delay.h ****    The macro F_CPU is supposed to be defined to a
 110:/usr/lib/gcc/avr/4.7.3/../../../../avr/include/util/delay.h ****    constant defining the CPU clock frequency (in Hertz).
 111:/usr/lib/gcc/avr/4.7.3/../../../../avr/include/util/delay.h **** 
 112:/usr/lib/gcc/avr/4.7.3/../../../../avr/include/util/delay.h ****    The maximal possible delay is 262.14 ms / F_CPU in MHz.
 113:/usr/lib/gcc/avr/4.7.3/../../../../avr/include/util/delay.h **** 
 114:/usr/lib/gcc/avr/4.7.3/../../../../avr/include/util/delay.h ****    When the user request delay which exceed the maximum possible one,
 115:/usr/lib/gcc/avr/4.7.3/../../../../avr/include/util/delay.h ****    _delay_ms() provides a decreased resolution functionality. In this
 116:/usr/lib/gcc/avr/4.7.3/../../../../avr/include/util/delay.h ****    mode _delay_ms() will work with a resolution of 1/10 ms, providing
 117:/usr/lib/gcc/avr/4.7.3/../../../../avr/include/util/delay.h ****    delays up to 6.5535 seconds (independent from CPU frequency).  The
 118:/usr/lib/gcc/avr/4.7.3/../../../../avr/include/util/delay.h ****    user will not be informed about decreased resolution.
 119:/usr/lib/gcc/avr/4.7.3/../../../../avr/include/util/delay.h **** 
 120:/usr/lib/gcc/avr/4.7.3/../../../../avr/include/util/delay.h ****    If the avr-gcc toolchain has __builtin_avr_delay_cycles(unsigned long)
 121:/usr/lib/gcc/avr/4.7.3/../../../../avr/include/util/delay.h ****    support, maximal possible delay is 4294967.295 ms/ F_CPU in MHz. For
 122:/usr/lib/gcc/avr/4.7.3/../../../../avr/include/util/delay.h ****    values greater than the maximal possible delay, overflows results in
 123:/usr/lib/gcc/avr/4.7.3/../../../../avr/include/util/delay.h ****    no delay i.e., 0ms.
 124:/usr/lib/gcc/avr/4.7.3/../../../../avr/include/util/delay.h **** 
 125:/usr/lib/gcc/avr/4.7.3/../../../../avr/include/util/delay.h ****    Conversion of __us into clock cycles may not always result in integer.
 126:/usr/lib/gcc/avr/4.7.3/../../../../avr/include/util/delay.h ****    By default, the clock cycles rounded up to next integer. This ensures that
 127:/usr/lib/gcc/avr/4.7.3/../../../../avr/include/util/delay.h ****    the user gets atleast __us microseconds of delay.
GAS LISTING /tmp/ccT1kfMR.s 			page 66


 128:/usr/lib/gcc/avr/4.7.3/../../../../avr/include/util/delay.h **** 
 129:/usr/lib/gcc/avr/4.7.3/../../../../avr/include/util/delay.h ****    Alternatively, user can define __DELAY_ROUND_DOWN__ and __DELAY_ROUND_CLOSEST__
 130:/usr/lib/gcc/avr/4.7.3/../../../../avr/include/util/delay.h ****    to round down and round to closest integer.
 131:/usr/lib/gcc/avr/4.7.3/../../../../avr/include/util/delay.h **** 
 132:/usr/lib/gcc/avr/4.7.3/../../../../avr/include/util/delay.h ****    Note: The new implementation of _delay_ms(double __ms) with 
 133:/usr/lib/gcc/avr/4.7.3/../../../../avr/include/util/delay.h ****     __builtin_avr_delay_cycles(unsigned long) support is not backward compatible. 
 134:/usr/lib/gcc/avr/4.7.3/../../../../avr/include/util/delay.h ****    User can define __DELAY_BACKWARD_COMPATIBLE__ to get a backward compatible delay.
 135:/usr/lib/gcc/avr/4.7.3/../../../../avr/include/util/delay.h ****    Also, the backward compatible
 136:/usr/lib/gcc/avr/4.7.3/../../../../avr/include/util/delay.h ****    algorithm will be chosen if the code is compiled in a <em>freestanding
 137:/usr/lib/gcc/avr/4.7.3/../../../../avr/include/util/delay.h ****    environment</em> (GCC option \c -ffreestanding), as the math functions
 138:/usr/lib/gcc/avr/4.7.3/../../../../avr/include/util/delay.h ****    required for rounding are not available to the compiler then.
 139:/usr/lib/gcc/avr/4.7.3/../../../../avr/include/util/delay.h **** 
 140:/usr/lib/gcc/avr/4.7.3/../../../../avr/include/util/delay.h ****  */
 141:/usr/lib/gcc/avr/4.7.3/../../../../avr/include/util/delay.h **** void
 142:/usr/lib/gcc/avr/4.7.3/../../../../avr/include/util/delay.h **** _delay_ms(double __ms)
 143:/usr/lib/gcc/avr/4.7.3/../../../../avr/include/util/delay.h **** {
 144:/usr/lib/gcc/avr/4.7.3/../../../../avr/include/util/delay.h **** 	uint16_t __ticks;
 145:/usr/lib/gcc/avr/4.7.3/../../../../avr/include/util/delay.h **** 	double __tmp ; 
 146:/usr/lib/gcc/avr/4.7.3/../../../../avr/include/util/delay.h **** #if __HAS_DELAY_CYCLES && defined(__OPTIMIZE__) && \
 147:/usr/lib/gcc/avr/4.7.3/../../../../avr/include/util/delay.h ****   !defined(__DELAY_BACKWARD_COMPATIBLE__) &&	   \
 148:/usr/lib/gcc/avr/4.7.3/../../../../avr/include/util/delay.h ****   __STDC_HOSTED__
 149:/usr/lib/gcc/avr/4.7.3/../../../../avr/include/util/delay.h **** 	uint32_t __ticks_dc;
 150:/usr/lib/gcc/avr/4.7.3/../../../../avr/include/util/delay.h **** 	extern void __builtin_avr_delay_cycles(unsigned long);
 151:/usr/lib/gcc/avr/4.7.3/../../../../avr/include/util/delay.h **** 	__tmp = ((F_CPU) / 1e3) * __ms;
 152:/usr/lib/gcc/avr/4.7.3/../../../../avr/include/util/delay.h **** 
 153:/usr/lib/gcc/avr/4.7.3/../../../../avr/include/util/delay.h **** 	#if defined(__DELAY_ROUND_DOWN__)
 154:/usr/lib/gcc/avr/4.7.3/../../../../avr/include/util/delay.h **** 		__ticks_dc = (uint32_t)fabs(__tmp);
 155:/usr/lib/gcc/avr/4.7.3/../../../../avr/include/util/delay.h **** 
 156:/usr/lib/gcc/avr/4.7.3/../../../../avr/include/util/delay.h **** 	#elif defined(__DELAY_ROUND_CLOSEST__)
 157:/usr/lib/gcc/avr/4.7.3/../../../../avr/include/util/delay.h **** 		__ticks_dc = (uint32_t)(fabs(__tmp)+0.5);
 158:/usr/lib/gcc/avr/4.7.3/../../../../avr/include/util/delay.h **** 
 159:/usr/lib/gcc/avr/4.7.3/../../../../avr/include/util/delay.h **** 	#else
 160:/usr/lib/gcc/avr/4.7.3/../../../../avr/include/util/delay.h **** 		//round up by default
 161:/usr/lib/gcc/avr/4.7.3/../../../../avr/include/util/delay.h **** 		__ticks_dc = (uint32_t)(ceil(fabs(__tmp)));
 162:/usr/lib/gcc/avr/4.7.3/../../../../avr/include/util/delay.h **** 	#endif
 163:/usr/lib/gcc/avr/4.7.3/../../../../avr/include/util/delay.h **** 
 164:/usr/lib/gcc/avr/4.7.3/../../../../avr/include/util/delay.h **** 	__builtin_avr_delay_cycles(__ticks_dc);
 2579               		.stabn	68,0,164,.LM412-.LFBB31
 2580               	.LM412:
 2581 0160 8FE1      		ldi r24,lo8(19999)
 2582 0162 9EE4      		ldi r25,hi8(19999)
 2583 0164 0197      		1: sbiw r24,1
 2584 0166 01F4      		brne 1b
 2585 0168 00C0      		rjmp .
 2586 016a 0000      		nop
 2587 016c 00C0      		rjmp .L263
 2588               	.LBE53:
 2589               	.LBE52:
 2590               		.size	main, .-main
 2591               	.Lscope31:
 2592               		.stabs	"",36,0,0,.Lscope31-.LFBB31
 2593               		.stabd	78,0,0
 2594               		.stabs	"_GLOBAL__sub_I_r:f(0,4)",36,0,976,_GLOBAL__sub_I_r
 2595               		.type	_GLOBAL__sub_I_r, @function
 2596               	_GLOBAL__sub_I_r:
 2597               		.stabd	46,0,0
 2598               		.stabs	"projet.cpp",132,0,0,.Ltext2
GAS LISTING /tmp/ccT1kfMR.s 			page 67


 2599               	.Ltext2:
 971:projet.cpp    **** 		_delay_ms(10);
 972:projet.cpp    **** 	}
 973:projet.cpp    **** 
 974:projet.cpp    **** 
 975:projet.cpp    **** 	return 0;
 976:projet.cpp    **** }
 2600               		.stabn	68,0,976,.LM413-.LFBB32
 2601               	.LM413:
 2602               	.LFBB32:
 2603               	/* prologue: function */
 2604               	/* frame size = 0 */
 2605               	/* stack size = 0 */
 2606               	.L__stack_usage = 0
 2607               	.LBB58:
 2608               	.LBB59:
  38:projet.cpp    **** LibRobot r;
 2609               		.stabn	68,0,38,.LM414-.LFBB32
 2610               	.LM414:
 2611 016e 80E0      		ldi r24,lo8(r)
 2612 0170 90E0      		ldi r25,hi8(r)
 2613 0172 0C94 0000 		jmp _ZN8LibRobotC1Ev
 2614               	.LBE59:
 2615               	.LBE58:
 2616               		.size	_GLOBAL__sub_I_r, .-_GLOBAL__sub_I_r
 2617               	.Lscope32:
 2618               		.stabs	"",36,0,0,.Lscope32-.LFBB32
 2619               		.stabd	78,0,0
 2620               		.global __do_global_ctors
 2621               		.section .ctors,"a",@progbits
 2622               		.p2align	1
 2623 0000 0000      		.word	gs(_GLOBAL__sub_I_r)
 2624               		.section	.text.exit,"ax",@progbits
 2625               		.stabs	"_GLOBAL__sub_D_r:f(0,4)",36,0,976,_GLOBAL__sub_D_r
 2626               		.type	_GLOBAL__sub_D_r, @function
 2627               	_GLOBAL__sub_D_r:
 2628               		.stabd	46,0,0
 2629               		.stabn	68,0,976,.LM415-.LFBB33
 2630               	.LM415:
 2631               	.LFBB33:
 2632               	/* prologue: function */
 2633               	/* frame size = 0 */
 2634               	/* stack size = 0 */
 2635               	.L__stack_usage = 0
 2636               	.LBB64:
 2637               	.LBB65:
 2638               	.LBB66:
 2639               	.LBB67:
  38:projet.cpp    **** LibRobot r;
 2640               		.stabn	68,0,38,.LM416-.LFBB33
 2641               	.LM416:
 2642 0000 80E0      		ldi r24,lo8(r)
 2643 0002 90E0      		ldi r25,hi8(r)
 2644 0004 0C94 0000 		jmp _ZN8LibRobotD1Ev
 2645               	.LBE67:
 2646               	.LBE66:
 2647               	.LBE65:
GAS LISTING /tmp/ccT1kfMR.s 			page 68


 2648               	.LBE64:
 2649               		.size	_GLOBAL__sub_D_r, .-_GLOBAL__sub_D_r
 2650               	.Lscope33:
 2651               		.stabs	"",36,0,0,.Lscope33-.LFBB33
 2652               		.stabd	78,0,0
 2653               		.global __do_global_dtors
 2654               		.section .dtors,"a",@progbits
 2655               		.p2align	1
 2656 0000 0000      		.word	gs(_GLOBAL__sub_D_r)
 2657               	.global	debug
 2658               		.section .bss
 2659               		.type	debug, @object
 2660               		.size	debug, 1
 2661               	debug:
 2662 0000 00        		.zero	1
 2663               	.global	tempsActifSansCapteurMax
 2664               		.type	tempsActifSansCapteurMax, @object
 2665               		.size	tempsActifSansCapteurMax, 2
 2666               	tempsActifSansCapteurMax:
 2667 0001 0000      		.zero	2
 2668               	.global	tempsActifSansCapteur
 2669               		.type	tempsActifSansCapteur, @object
 2670               		.size	tempsActifSansCapteur, 2
 2671               	tempsActifSansCapteur:
 2672 0003 0000      		.zero	2
 2673               	.global	tempsLigneDroiteActiveSeuil
 2674               		.type	tempsLigneDroiteActiveSeuil, @object
 2675               		.size	tempsLigneDroiteActiveSeuil, 2
 2676               	tempsLigneDroiteActiveSeuil:
 2677 0005 0000      		.zero	2
 2678               	.global	tempsLigneDroiteActiveMax
 2679               		.type	tempsLigneDroiteActiveMax, @object
 2680               		.size	tempsLigneDroiteActiveMax, 2
 2681               	tempsLigneDroiteActiveMax:
 2682 0007 0000      		.zero	2
 2683               	.global	tempsLigneDroiteDepuisIntersection
 2684               		.type	tempsLigneDroiteDepuisIntersection, @object
 2685               		.size	tempsLigneDroiteDepuisIntersection, 2
 2686               	tempsLigneDroiteDepuisIntersection:
 2687 0009 0000      		.zero	2
 2688               	.global	tempsLigneDroiteActive
 2689               		.type	tempsLigneDroiteActive, @object
 2690               		.size	tempsLigneDroiteActive, 2
 2691               	tempsLigneDroiteActive:
 2692 000b 0000      		.zero	2
 2693               	.global	delaiLumiereCourrant
 2694               		.type	delaiLumiereCourrant, @object
 2695               		.size	delaiLumiereCourrant, 1
 2696               	delaiLumiereCourrant:
 2697 000d 00        		.zero	1
 2698               	.global	delaiLumiereMax
 2699               		.type	delaiLumiereMax, @object
 2700               		.size	delaiLumiereMax, 1
 2701               	delaiLumiereMax:
 2702 000e 00        		.zero	1
 2703               	.global	coteForce
 2704               		.type	coteForce, @object
GAS LISTING /tmp/ccT1kfMR.s 			page 69


 2705               		.size	coteForce, 1
 2706               	coteForce:
 2707 000f 00        		.zero	1
 2708               	.global	seuilEclaire
 2709               		.type	seuilEclaire, @object
 2710               		.size	seuilEclaire, 1
 2711               	seuilEclaire:
 2712 0010 00        		.zero	1
 2713               	.global	tempsReculExtraMax
 2714               		.type	tempsReculExtraMax, @object
 2715               		.size	tempsReculExtraMax, 1
 2716               	tempsReculExtraMax:
 2717 0011 00        		.zero	1
 2718               	.global	tempsReculExtra
 2719               		.type	tempsReculExtra, @object
 2720               		.size	tempsReculExtra, 1
 2721               	tempsReculExtra:
 2722 0012 00        		.zero	1
 2723               	.global	finRecul
 2724               		.type	finRecul, @object
 2725               		.size	finRecul, 1
 2726               	finRecul:
 2727 0013 00        		.zero	1
 2728               	.global	tempsReculActifMax
 2729               		.type	tempsReculActifMax, @object
 2730               		.size	tempsReculActifMax, 1
 2731               	tempsReculActifMax:
 2732 0014 00        		.zero	1
 2733               	.global	tempsReculActif
 2734               		.type	tempsReculActif, @object
 2735               		.size	tempsReculActif, 1
 2736               	tempsReculActif:
 2737 0015 00        		.zero	1
 2738               	.global	vitesseReculer
 2739               		.type	vitesseReculer, @object
 2740               		.size	vitesseReculer, 1
 2741               	vitesseReculer:
 2742 0016 00        		.zero	1
 2743               	.global	tempsAttenteMaxIntersection
 2744               		.type	tempsAttenteMaxIntersection, @object
 2745               		.size	tempsAttenteMaxIntersection, 2
 2746               	tempsAttenteMaxIntersection:
 2747 0017 0000      		.zero	2
 2748               	.global	tempsDepuisIntersection
 2749               		.type	tempsDepuisIntersection, @object
 2750               		.size	tempsDepuisIntersection, 2
 2751               	tempsDepuisIntersection:
 2752 0019 0000      		.zero	2
 2753               	.global	dureeAjustementLigneDroite
 2754               		.type	dureeAjustementLigneDroite, @object
 2755               		.size	dureeAjustementLigneDroite, 1
 2756               	dureeAjustementLigneDroite:
 2757 001b 00        		.zero	1
 2758               	.global	dureeAjustementTournant
 2759               		.type	dureeAjustementTournant, @object
 2760               		.size	dureeAjustementTournant, 1
 2761               	dureeAjustementTournant:
GAS LISTING /tmp/ccT1kfMR.s 			page 70


 2762 001c 00        		.zero	1
 2763               	.global	ajustementLigneDroite
 2764               		.type	ajustementLigneDroite, @object
 2765               		.size	ajustementLigneDroite, 1
 2766               	ajustementLigneDroite:
 2767 001d 00        		.zero	1
 2768               	.global	ajustementTournant
 2769               		.type	ajustementTournant, @object
 2770               		.size	ajustementTournant, 1
 2771               	ajustementTournant:
 2772 001e 00        		.zero	1
 2773               	.global	ajustementTemporaireD
 2774               		.type	ajustementTemporaireD, @object
 2775               		.size	ajustementTemporaireD, 1
 2776               	ajustementTemporaireD:
 2777 001f 00        		.zero	1
 2778               	.global	ajustementTemporaireG
 2779               		.type	ajustementTemporaireG, @object
 2780               		.size	ajustementTemporaireG, 1
 2781               	ajustementTemporaireG:
 2782 0020 00        		.zero	1
 2783               	.global	delaisAjustementTemporaire
 2784               		.type	delaisAjustementTemporaire, @object
 2785               		.size	delaisAjustementTemporaire, 2
 2786               	delaisAjustementTemporaire:
 2787 0021 0000      		.zero	2
 2788               	.global	delaisMaxLigneDroite
 2789               		.type	delaisMaxLigneDroite, @object
 2790               		.size	delaisMaxLigneDroite, 2
 2791               	delaisMaxLigneDroite:
 2792 0023 0000      		.zero	2
 2793               	.global	delaisLigneDroite
 2794               		.type	delaisLigneDroite, @object
 2795               		.size	delaisLigneDroite, 2
 2796               	delaisLigneDroite:
 2797 0025 0000      		.zero	2
 2798               	.global	ajustementVirageMoyen
 2799               		.type	ajustementVirageMoyen, @object
 2800               		.size	ajustementVirageMoyen, 1
 2801               	ajustementVirageMoyen:
 2802 0027 00        		.zero	1
 2803               	.global	ajustementVirageLeger
 2804               		.type	ajustementVirageLeger, @object
 2805               		.size	ajustementVirageLeger, 1
 2806               	ajustementVirageLeger:
 2807 0028 00        		.zero	1
 2808               	.global	ajustementRetour
 2809               		.type	ajustementRetour, @object
 2810               		.size	ajustementRetour, 1
 2811               	ajustementRetour:
 2812 0029 00        		.zero	1
 2813               	.global	ajustementMin
 2814               		.type	ajustementMin, @object
 2815               		.size	ajustementMin, 1
 2816               	ajustementMin:
 2817 002a 00        		.zero	1
 2818               	.global	ajustementMax
GAS LISTING /tmp/ccT1kfMR.s 			page 71


 2819               		.type	ajustementMax, @object
 2820               		.size	ajustementMax, 1
 2821               	ajustementMax:
 2822 002b 00        		.zero	1
 2823               	.global	ajustementDroit
 2824               		.type	ajustementDroit, @object
 2825               		.size	ajustementDroit, 1
 2826               	ajustementDroit:
 2827 002c 00        		.zero	1
 2828               	.global	ajustementGauche
 2829               		.type	ajustementGauche, @object
 2830               		.size	ajustementGauche, 1
 2831               	ajustementGauche:
 2832 002d 00        		.zero	1
 2833               	.global	vitesseBase
 2834               		.type	vitesseBase, @object
 2835               		.size	vitesseBase, 1
 2836               	vitesseBase:
 2837 002e 00        		.zero	1
 2838               	.global	dernierCapteur
 2839               		.type	dernierCapteur, @object
 2840               		.size	dernierCapteur, 1
 2841               	dernierCapteur:
 2842 002f 00        		.zero	1
 2843               	.global	dernierCapteurIntersection
 2844               		.type	dernierCapteurIntersection, @object
 2845               		.size	dernierCapteurIntersection, 1
 2846               	dernierCapteurIntersection:
 2847 0030 00        		.zero	1
 2848               	.global	seuilTempsActifToutDroit
 2849               		.type	seuilTempsActifToutDroit, @object
 2850               		.size	seuilTempsActifToutDroit, 2
 2851               	seuilTempsActifToutDroit:
 2852 0031 0000      		.zero	2
 2853               	.global	tempsActif
 2854               		.type	tempsActif, @object
 2855               		.size	tempsActif, 2
 2856               	tempsActif:
 2857 0033 0000      		.zero	2
 2858               	.global	tempsIntersectionMax
 2859               		.type	tempsIntersectionMax, @object
 2860               		.size	tempsIntersectionMax, 2
 2861               	tempsIntersectionMax:
 2862 0035 0000      		.zero	2
 2863               	.global	tempsIntersection
 2864               		.type	tempsIntersection, @object
 2865               		.size	tempsIntersection, 2
 2866               	tempsIntersection:
 2867 0037 0000      		.zero	2
 2868               	.global	milieuExiste
 2869               		.type	milieuExiste, @object
 2870               		.size	milieuExiste, 1
 2871               	milieuExiste:
 2872 0039 00        		.zero	1
 2873               	.global	droiteExiste
 2874               		.type	droiteExiste, @object
 2875               		.size	droiteExiste, 1
GAS LISTING /tmp/ccT1kfMR.s 			page 72


 2876               	droiteExiste:
 2877 003a 00        		.zero	1
 2878               	.global	gaucheExiste
 2879               		.type	gaucheExiste, @object
 2880               		.size	gaucheExiste, 1
 2881               	gaucheExiste:
 2882 003b 00        		.zero	1
 2883               	.global	franchieDroite
 2884               		.type	franchieDroite, @object
 2885               		.size	franchieDroite, 1
 2886               	franchieDroite:
 2887 003c 00        		.zero	1
 2888               	.global	franchieMilieu
 2889               		.type	franchieMilieu, @object
 2890               		.size	franchieMilieu, 1
 2891               	franchieMilieu:
 2892 003d 00        		.zero	1
 2893               	.global	franchieGauche
 2894               		.type	franchieGauche, @object
 2895               		.size	franchieGauche, 1
 2896               	franchieGauche:
 2897 003e 00        		.zero	1
 2898               	.global	varianceVitesseVirageMin
 2899               		.type	varianceVitesseVirageMin, @object
 2900               		.size	varianceVitesseVirageMin, 1
 2901               	varianceVitesseVirageMin:
 2902 003f 00        		.zero	1
 2903               	.global	varianceVitesseVirageMax
 2904               		.type	varianceVitesseVirageMax, @object
 2905               		.size	varianceVitesseVirageMax, 1
 2906               	varianceVitesseVirageMax:
 2907 0040 00        		.zero	1
 2908               	.global	varianceVitesseVirageDeceleration
 2909               		.type	varianceVitesseVirageDeceleration, @object
 2910               		.size	varianceVitesseVirageDeceleration, 1
 2911               	varianceVitesseVirageDeceleration:
 2912 0041 00        		.zero	1
 2913               	.global	varianceVitesseVirage
 2914               		.type	varianceVitesseVirage, @object
 2915               		.size	varianceVitesseVirage, 1
 2916               	varianceVitesseVirage:
 2917 0042 00        		.zero	1
 2918               	.global	detecteurEnabled
 2919               		.type	detecteurEnabled, @object
 2920               		.size	detecteurEnabled, 1
 2921               	detecteurEnabled:
 2922 0043 00        		.zero	1
 2923               	.global	virageForce
 2924               		.type	virageForce, @object
 2925               		.size	virageForce, 1
 2926               	virageForce:
 2927 0044 00        		.zero	1
 2928               	.global	vitesseVirage
 2929               		.type	vitesseVirage, @object
 2930               		.size	vitesseVirage, 1
 2931               	vitesseVirage:
 2932 0045 00        		.zero	1
GAS LISTING /tmp/ccT1kfMR.s 			page 73


 2933               	.global	modeReculer
 2934               		.type	modeReculer, @object
 2935               		.size	modeReculer, 1
 2936               	modeReculer:
 2937 0046 00        		.zero	1
 2938               	.global	modeVirageDroite
 2939               		.type	modeVirageDroite, @object
 2940               		.size	modeVirageDroite, 1
 2941               	modeVirageDroite:
 2942 0047 00        		.zero	1
 2943               	.global	modeVirageGauche
 2944               		.type	modeVirageGauche, @object
 2945               		.size	modeVirageGauche, 1
 2946               	modeVirageGauche:
 2947 0048 00        		.zero	1
 2948               	.global	modeIntersection
 2949               		.type	modeIntersection, @object
 2950               		.size	modeIntersection, 1
 2951               	modeIntersection:
 2952 0049 00        		.zero	1
 2953               	.global	modeLigneDroite
 2954               		.type	modeLigneDroite, @object
 2955               		.size	modeLigneDroite, 1
 2956               	modeLigneDroite:
 2957 004a 00        		.zero	1
 2958               	.global	pinCouleur2
 2959               		.data
 2960               		.type	pinCouleur2, @object
 2961               		.size	pinCouleur2, 1
 2962               	pinCouleur2:
 2963 0000 02        		.byte	2
 2964               	.global	pinCouleur
 2965               		.type	pinCouleur, @object
 2966               		.size	pinCouleur, 1
 2967               	pinCouleur:
 2968 0001 01        		.byte	1
 2969               	.global	portDEL
 2970               		.section	.rodata
 2971               		.type	portDEL, @object
 2972               		.size	portDEL, 2
 2973               	portDEL:
 2974 0000 2500      		.word	37
 2975               	.global	r
 2976               		.section .bss
 2977               		.type	r, @object
 2978               		.size	r, 1
 2979               	r:
 2980 004b 00        		.zero	1
 2981               		.stabs	"r:G(0,59)",32,0,38,0
 2982               		.stabs	"portDEL:G(0,90)=&(0,61)",32,0,39,0
 2983               		.stabs	"pinCouleur:G(0,29)",32,0,40,0
 2984               		.stabs	"pinCouleur2:G(0,29)",32,0,41,0
 2985               		.stabs	"modeLigneDroite:G(0,24)",32,0,46,0
 2986               		.stabs	"modeIntersection:G(0,24)",32,0,47,0
 2987               		.stabs	"modeVirageGauche:G(0,24)",32,0,48,0
 2988               		.stabs	"modeVirageDroite:G(0,24)",32,0,49,0
 2989               		.stabs	"modeReculer:G(0,24)",32,0,50,0
GAS LISTING /tmp/ccT1kfMR.s 			page 74


 2990               		.stabs	"vitesseVirage:G(0,28)",32,0,55,0
 2991               		.stabs	"virageForce:G(0,24)",32,0,56,0
 2992               		.stabs	"detecteurEnabled:G(0,24)",32,0,57,0
 2993               		.stabs	"varianceVitesseVirage:G(0,28)",32,0,61,0
 2994               		.stabs	"varianceVitesseVirageDeceleration:G(0,28)",32,0,62,0
 2995               		.stabs	"varianceVitesseVirageMax:G(0,28)",32,0,63,0
 2996               		.stabs	"varianceVitesseVirageMin:G(0,28)",32,0,64,0
 2997               		.stabs	"franchieGauche:G(0,24)",32,0,70,0
 2998               		.stabs	"franchieMilieu:G(0,24)",32,0,71,0
 2999               		.stabs	"franchieDroite:G(0,24)",32,0,72,0
 3000               		.stabs	"gaucheExiste:G(0,24)",32,0,74,0
 3001               		.stabs	"droiteExiste:G(0,24)",32,0,75,0
 3002               		.stabs	"milieuExiste:G(0,24)",32,0,76,0
 3003               		.stabs	"tempsIntersection:G(0,31)",32,0,78,0
 3004               		.stabs	"tempsIntersectionMax:G(0,31)",32,0,79,0
 3005               		.stabs	"tempsActif:G(0,31)",32,0,80,0
 3006               		.stabs	"seuilTempsActifToutDroit:G(0,31)",32,0,81,0
 3007               		.stabs	"dernierCapteurIntersection:G(0,29)",32,0,83,0
 3008               		.stabs	"dernierCapteur:G(0,29)",32,0,88,0
 3009               		.stabs	"vitesseBase:G(0,29)",32,0,89,0
 3010               		.stabs	"ajustementGauche:G(0,28)",32,0,90,0
 3011               		.stabs	"ajustementDroit:G(0,28)",32,0,91,0
 3012               		.stabs	"ajustementMax:G(0,28)",32,0,92,0
 3013               		.stabs	"ajustementMin:G(0,28)",32,0,93,0
 3014               		.stabs	"ajustementRetour:G(0,28)",32,0,94,0
 3015               		.stabs	"ajustementVirageLeger:G(0,28)",32,0,95,0
 3016               		.stabs	"ajustementVirageMoyen:G(0,28)",32,0,96,0
 3017               		.stabs	"delaisLigneDroite:G(0,31)",32,0,97,0
 3018               		.stabs	"delaisMaxLigneDroite:G(0,31)",32,0,98,0
 3019               		.stabs	"delaisAjustementTemporaire:G(0,30)",32,0,100,0
 3020               		.stabs	"ajustementTemporaireG:G(0,28)",32,0,101,0
 3021               		.stabs	"ajustementTemporaireD:G(0,28)",32,0,102,0
 3022               		.stabs	"ajustementTournant:G(0,28)",32,0,103,0
 3023               		.stabs	"ajustementLigneDroite:G(0,28)",32,0,104,0
 3024               		.stabs	"dureeAjustementTournant:G(0,29)",32,0,105,0
 3025               		.stabs	"dureeAjustementLigneDroite:G(0,29)",32,0,106,0
 3026               		.stabs	"tempsDepuisIntersection:G(0,31)",32,0,108,0
 3027               		.stabs	"tempsAttenteMaxIntersection:G(0,31)",32,0,109,0
 3028               		.stabs	"vitesseReculer:G(0,29)",32,0,114,0
 3029               		.stabs	"tempsReculActif:G(0,28)",32,0,115,0
 3030               		.stabs	"tempsReculActifMax:G(0,28)",32,0,116,0
 3031               		.stabs	"finRecul:G(0,24)",32,0,117,0
 3032               		.stabs	"tempsReculExtra:G(0,28)",32,0,118,0
 3033               		.stabs	"tempsReculExtraMax:G(0,28)",32,0,119,0
 3034               		.stabs	"seuilEclaire:G(0,29)",32,0,124,0
 3035               		.stabs	"coteForce:G(0,29)",32,0,125,0
 3036               		.stabs	"delaiLumiereMax:G(0,29)",32,0,126,0
 3037               		.stabs	"delaiLumiereCourrant:G(0,29)",32,0,127,0
 3038               		.stabs	"tempsLigneDroiteActive:G(0,31)",32,0,135,0
 3039               		.stabs	"tempsLigneDroiteDepuisIntersection:G(0,31)",32,0,136,0
 3040               		.stabs	"tempsLigneDroiteActiveMax:G(0,31)",32,0,137,0
 3041               		.stabs	"tempsLigneDroiteActiveSeuil:G(0,31)",32,0,138,0
 3042               		.stabs	"tempsActifSansCapteur:G(0,31)",32,0,141,0
 3043               		.stabs	"tempsActifSansCapteurMax:G(0,31)",32,0,142,0
 3044               		.stabs	"debug:G(0,24)",32,0,144,0
 3045               		.text
 3046               		.stabs	"",100,0,0,.Letext0
GAS LISTING /tmp/ccT1kfMR.s 			page 75


 3047               	.Letext0:
 3048               		.ident	"GCC: (Fedora 4.7.3-0.1.fc19) 4.7.3 20130216 (prerelease)"
 3049               	.global __do_copy_data
 3050               	.global __do_clear_bss
GAS LISTING /tmp/ccT1kfMR.s 			page 76


DEFINED SYMBOLS
                            *ABS*:0000000000000000 projet.cpp
     /tmp/ccT1kfMR.s:2      *ABS*:000000000000003e __SP_H__
     /tmp/ccT1kfMR.s:3      *ABS*:000000000000003d __SP_L__
     /tmp/ccT1kfMR.s:4      *ABS*:000000000000003f __SREG__
     /tmp/ccT1kfMR.s:5      *ABS*:0000000000000000 __tmp_reg__
     /tmp/ccT1kfMR.s:6      *ABS*:0000000000000001 __zero_reg__
     /tmp/ccT1kfMR.s:80     .text:0000000000000000 _Z12capteurDroitv
     /tmp/ccT1kfMR.s:107    .text:000000000000000e _Z13capteurMilieuv
     /tmp/ccT1kfMR.s:133    .text:000000000000001a _Z13capteurGauchev
     /tmp/ccT1kfMR.s:160    .text:0000000000000028 _Z21desactiveLumiereForcev
     /tmp/ccT1kfMR.s:2706   .bss:000000000000000f coteForce
     /tmp/ccT1kfMR.s:2962   .data:0000000000000000 pinCouleur2
     /tmp/ccT1kfMR.s:2967   .data:0000000000000001 pinCouleur
     /tmp/ccT1kfMR.s:186    .text:000000000000003c _Z15ajusterFranchiev
     /tmp/ccT1kfMR.s:2896   .bss:000000000000003e franchieGauche
     /tmp/ccT1kfMR.s:2891   .bss:000000000000003d franchieMilieu
     /tmp/ccT1kfMR.s:2886   .bss:000000000000003c franchieDroite
     /tmp/ccT1kfMR.s:233    .text:0000000000000068 _Z30ajusterPossibiliteIntersectionv
     /tmp/ccT1kfMR.s:2846   .bss:0000000000000030 dernierCapteurIntersection
     /tmp/ccT1kfMR.s:2881   .bss:000000000000003b gaucheExiste
     /tmp/ccT1kfMR.s:2876   .bss:000000000000003a droiteExiste
     /tmp/ccT1kfMR.s:319    .text:00000000000000c8 _Z20detecterIntersectionv
     /tmp/ccT1kfMR.s:360    .text:00000000000000e4 _Z6perduev
     /tmp/ccT1kfMR.s:405    .text:0000000000000104 _Z37tomberEnModerDetecterTypeIntersectionb
     /tmp/ccT1kfMR.s:2926   .bss:0000000000000044 virageForce
     /tmp/ccT1kfMR.s:2751   .bss:0000000000000019 tempsDepuisIntersection
     /tmp/ccT1kfMR.s:2691   .bss:000000000000000b tempsLigneDroiteActive
     /tmp/ccT1kfMR.s:2686   .bss:0000000000000009 tempsLigneDroiteDepuisIntersection
     /tmp/ccT1kfMR.s:2671   .bss:0000000000000003 tempsActifSansCapteur
     /tmp/ccT1kfMR.s:2916   .bss:0000000000000042 varianceVitesseVirage
     /tmp/ccT1kfMR.s:2956   .bss:000000000000004a modeLigneDroite
     /tmp/ccT1kfMR.s:2951   .bss:0000000000000049 modeIntersection
     /tmp/ccT1kfMR.s:2871   .bss:0000000000000039 milieuExiste
     /tmp/ccT1kfMR.s:2866   .bss:0000000000000037 tempsIntersection
     /tmp/ccT1kfMR.s:2856   .bss:0000000000000033 tempsActif
     /tmp/ccT1kfMR.s:2841   .bss:000000000000002f dernierCapteur
     /tmp/ccT1kfMR.s:481    .text:0000000000000168 _Z26determinerTypeIntersectionv
     /tmp/ccT1kfMR.s:2851   .bss:0000000000000031 seuilTempsActifToutDroit
     /tmp/ccT1kfMR.s:2861   .bss:0000000000000035 tempsIntersectionMax
     /tmp/ccT1kfMR.s:656    .text:000000000000026a _Z21ajusterDernierCapteurv
     /tmp/ccT1kfMR.s:703    .text:0000000000000296 _Z17limiterAjustementv
     /tmp/ccT1kfMR.s:2821   .bss:000000000000002b ajustementMax
     /tmp/ccT1kfMR.s:2831   .bss:000000000000002d ajustementGauche
     /tmp/ccT1kfMR.s:2826   .bss:000000000000002c ajustementDroit
     /tmp/ccT1kfMR.s:2816   .bss:000000000000002a ajustementMin
     /tmp/ccT1kfMR.s:759    .text:00000000000002d0 _Z17ajustementVitesseb
     /tmp/ccT1kfMR.s:2796   .bss:0000000000000025 delaisLigneDroite
     /tmp/ccT1kfMR.s:2791   .bss:0000000000000023 delaisMaxLigneDroite
     /tmp/ccT1kfMR.s:827    .text:0000000000000322 _Z21avancerAvecAjustementii
     /tmp/ccT1kfMR.s:2786   .bss:0000000000000021 delaisAjustementTemporaire
     /tmp/ccT1kfMR.s:2776   .bss:000000000000001f ajustementTemporaireD
     /tmp/ccT1kfMR.s:2781   .bss:0000000000000020 ajustementTemporaireG
     /tmp/ccT1kfMR.s:870    .text:0000000000000352 _Z21viragePourLigneDroiteba.part.5
     /tmp/ccT1kfMR.s:2836   .bss:000000000000002e vitesseBase
     /tmp/ccT1kfMR.s:912    .text:000000000000037a _Z21reculerAvecAjustementii
     /tmp/ccT1kfMR.s:955    .text:0000000000000396 _Z21viragePourLigneDroiteba
GAS LISTING /tmp/ccT1kfMR.s 			page 77


     /tmp/ccT1kfMR.s:1018   .text:00000000000003de _Z19tomberEnModeReculerv
     /tmp/ccT1kfMR.s:2736   .bss:0000000000000015 tempsReculActif
     /tmp/ccT1kfMR.s:2726   .bss:0000000000000013 finRecul
     /tmp/ccT1kfMR.s:2721   .bss:0000000000000012 tempsReculExtra
     /tmp/ccT1kfMR.s:2936   .bss:0000000000000046 modeReculer
     /tmp/ccT1kfMR.s:1054   .text:00000000000003f8 _Z14decisionViragebb
     /tmp/ccT1kfMR.s:2946   .bss:0000000000000048 modeVirageGauche
     /tmp/ccT1kfMR.s:2941   .bss:0000000000000047 modeVirageDroite
     /tmp/ccT1kfMR.s:1272   .text:00000000000004b8 _Z20ajusterVitesseViragev
     /tmp/ccT1kfMR.s:2911   .bss:0000000000000041 varianceVitesseVirageDeceleration
     /tmp/ccT1kfMR.s:2901   .bss:000000000000003f varianceVitesseVirageMin
     /tmp/ccT1kfMR.s:2906   .bss:0000000000000040 varianceVitesseVirageMax
     /tmp/ccT1kfMR.s:1305   .text:00000000000004d8 _Z32ajusterDelaiAjustementTemporairev
     /tmp/ccT1kfMR.s:1336   .text:00000000000004f2 _Z5virerb
     /tmp/ccT1kfMR.s:2931   .bss:0000000000000045 vitesseVirage
     /tmp/ccT1kfMR.s:2921   .bss:0000000000000043 detecteurEnabled
     /tmp/ccT1kfMR.s:2761   .bss:000000000000001c dureeAjustementTournant
     /tmp/ccT1kfMR.s:2771   .bss:000000000000001e ajustementTournant
     /tmp/ccT1kfMR.s:1464   .text:0000000000000598 _Z18avancerLigneDroitev
     /tmp/ccT1kfMR.s:2801   .bss:0000000000000027 ajustementVirageMoyen
     /tmp/ccT1kfMR.s:2756   .bss:000000000000001b dureeAjustementLigneDroite
     /tmp/ccT1kfMR.s:2766   .bss:000000000000001d ajustementLigneDroite
     /tmp/ccT1kfMR.s:2806   .bss:0000000000000028 ajustementVirageLeger
     /tmp/ccT1kfMR.s:1601   .text:0000000000000656 _Z7reculerv
     /tmp/ccT1kfMR.s:2716   .bss:0000000000000011 tempsReculExtraMax
     /tmp/ccT1kfMR.s:2731   .bss:0000000000000014 tempsReculActifMax
     /tmp/ccT1kfMR.s:2741   .bss:0000000000000016 vitesseReculer
     /tmp/ccT1kfMR.s:1687   .text:00000000000006be _Z23ajusterTempsActifRecentv
     /tmp/ccT1kfMR.s:2681   .bss:0000000000000007 tempsLigneDroiteActiveMax
     /tmp/ccT1kfMR.s:1779   .text:0000000000000754 _Z28ajusterTempsActifSansCapteurv
     /tmp/ccT1kfMR.s:2666   .bss:0000000000000001 tempsActifSansCapteurMax
     /tmp/ccT1kfMR.s:1838   .text:00000000000007a4 _Z24gestionDeplacementSourisv
     /tmp/ccT1kfMR.s:2661   .bss:0000000000000000 debug
     /tmp/ccT1kfMR.s:2746   .bss:0000000000000017 tempsAttenteMaxIntersection
     /tmp/ccT1kfMR.s:2676   .bss:0000000000000005 tempsLigneDroiteActiveSeuil
     /tmp/ccT1kfMR.s:2131   .text:0000000000000964 _Z23afficheLumiereCoteForcev
     /tmp/ccT1kfMR.s:2177   .text:0000000000000994 _Z16getValeurLumierev
     /tmp/ccT1kfMR.s:2289   .text:0000000000000a0a _Z14gestionLumierev
     /tmp/ccT1kfMR.s:2696   .bss:000000000000000d delaiLumiereCourrant
     /tmp/ccT1kfMR.s:2701   .bss:000000000000000e delaiLumiereMax
     /tmp/ccT1kfMR.s:2339   .text.startup:0000000000000000 main
     /tmp/ccT1kfMR.s:2811   .bss:0000000000000029 ajustementRetour
     /tmp/ccT1kfMR.s:2711   .bss:0000000000000010 seuilEclaire
     /tmp/ccT1kfMR.s:2596   .text.startup:000000000000016e _GLOBAL__sub_I_r
     /tmp/ccT1kfMR.s:2979   .bss:000000000000004b r
     /tmp/ccT1kfMR.s:2627   .text.exit:0000000000000000 _GLOBAL__sub_D_r
     /tmp/ccT1kfMR.s:2973   .rodata:0000000000000000 portDEL

UNDEFINED SYMBOLS
_ZN8LibRobot11eteindreDELERVhhh
_ZN8LibRobot7avancerEhhaa
_ZN8LibRobot7reculerEhhaa
_ZN8LibRobot9decoincerEbbb
_ZN8LibRobot5virerEhaab
_ZN8LibRobot8jouerSonEh
_ZN8LibRobot10arreterSonEv
_ZN8LibRobot10allumerDELERVhh
GAS LISTING /tmp/ccT1kfMR.s 			page 78


_ZN3canC1Ev
_ZN3can7lectureEh
_ZN3canD1Ev
_ZN8LibRobot14initialisationEv
_ZN8LibRobot5debutEv
_ZN8LibRobot18partirMinuterieSonEj
_ZN8LibRobotC1Ev
__do_global_ctors
_ZN8LibRobotD1Ev
__do_global_dtors
__do_copy_data
__do_clear_bss
