GAS LISTING /tmp/ccfQOnsU.s 			page 1


   1               		.file	"robot_chat.cpp"
   2               	__SP_H__ = 0x3e
   3               	__SP_L__ = 0x3d
   4               	__SREG__ = 0x3f
   5               	__tmp_reg__ = 0
   6               	__zero_reg__ = 1
   7               		.stabs	"/usagers/damaib/Documents/Session3/inf1995/inf1995-20/equipe/inf1995-1620/codeCommun/Tp/pr
   8               		.stabs	"robot_chat.cpp",100,0,4,.Ltext0
   9               		.text
  10               	.Ltext0:
  11               		.stabs	"gcc2_compiled.",60,0,0,0
  12               		.stabs	"__uint24:t(0,1)=@s24;r(0,1);0;077777777;",128,0,0,0
  13               		.stabs	"__int24:t(0,2)=@s24;r(0,2);040000000;037777777;",128,0,0,0
  14               		.stabs	"__builtin_va_list:t(0,3)=*(0,4)=(0,4)",128,0,0,0
  15               		.stabs	"complex long double:t(0,5)=R3;8;0;",128,0,0,0
  16               		.stabs	"complex double:t(0,6)=R3;8;0;",128,0,0,0
  17               		.stabs	"complex float:t(0,7)=R3;8;0;",128,0,0,0
  18               		.stabs	"complex int:t(0,8)=s4real:(0,9)=r(0,9);-32768;32767;,0,16;imag:(0,9),16,16;;",128,0,0,0
  19               		.stabs	"long long unsigned int:t(0,10)=@s64;r(0,10);0;01777777777777777777777;",128,0,0,0
  20               		.stabs	"long unsigned int:t(0,11)=@s32;r(0,11);0;037777777777;",128,0,0,0
  21               		.stabs	"unsigned int:t(0,12)=r(0,12);0;0177777;",128,0,0,0
  22               		.stabs	"unsigned char:t(0,13)=@s8;r(0,13);0;255;",128,0,0,0
  23               		.stabs	"long long int:t(0,14)=@s64;r(0,14);01000000000000000000000;0777777777777777777777;",128,0,
  24               		.stabs	"long int:t(0,15)=@s32;r(0,15);020000000000;017777777777;",128,0,0,0
  25               		.stabs	"int:t(0,9)",128,0,0,0
  26               		.stabs	"signed char:t(0,16)=@s8;r(0,16);-128;127;",128,0,0,0
  27               		.stabs	"char:t(0,17)=@s8;r(0,17);0;255;",128,0,0,0
  28               		.stabs	"signed:t(0,9)",128,0,0,0
  29               		.stabs	"unsigned long:t(0,11)",128,0,0,0
  30               		.stabs	"long long unsigned:t(0,10)",128,0,0,0
  31               		.stabs	"short int:t(0,18)=r(0,18);-32768;32767;",128,0,0,0
  32               		.stabs	"short unsigned int:t(0,19)=r(0,19);0;0177777;",128,0,0,0
  33               		.stabs	"unsigned short:t(0,19)",128,0,0,0
  34               		.stabs	"float:t(0,20)=r(0,9);4;0;",128,0,0,0
  35               		.stabs	"double:t(0,21)=r(0,9);4;0;",128,0,0,0
  36               		.stabs	"long double:t(0,22)=r(0,9);4;0;",128,0,0,0
  37               		.stabs	"void:t(0,4)",128,0,0,0
  38               		.stabs	"wchar_t:t(0,23)=r(0,23);-32768;32767;",128,0,0,0
  39               		.stabs	"bool:t(0,24)=@s8;-16;",128,0,0,0
  40               		.stabs	"__vtbl_ptr_type:t(0,25)=*(0,26)=f(0,9)",128,0,0,0
  41               		.stabs	"decltype(nullptr):t(0,27)=(0,27)",128,0,0,0
  42               		.stabs	"int8_t:t(0,28)=(0,16)",128,0,121,0
  43               		.stabs	"uint8_t:t(0,29)=(0,13)",128,0,122,0
  44               		.stabs	"int16_t:t(0,30)=(0,9)",128,0,123,0
  45               		.stabs	"uint16_t:t(0,31)=(0,12)",128,0,124,0
  46               		.stabs	"int32_t:t(0,32)=(0,15)",128,0,125,0
  47               		.stabs	"uint32_t:t(0,33)=(0,11)",128,0,126,0
  48               		.stabs	"int64_t:t(0,34)=(0,14)",128,0,128,0
  49               		.stabs	"uint64_t:t(0,35)=(0,10)",128,0,129,0
  50               		.stabs	"intptr_t:t(0,36)=(0,30)",128,0,142,0
  51               		.stabs	"uintptr_t:t(0,37)=(0,31)",128,0,147,0
  52               		.stabs	"int_least8_t:t(0,38)=(0,28)",128,0,159,0
  53               		.stabs	"uint_least8_t:t(0,39)=(0,29)",128,0,164,0
  54               		.stabs	"int_least16_t:t(0,40)=(0,30)",128,0,169,0
  55               		.stabs	"uint_least16_t:t(0,41)=(0,31)",128,0,174,0
  56               		.stabs	"int_least32_t:t(0,42)=(0,32)",128,0,179,0
  57               		.stabs	"uint_least32_t:t(0,43)=(0,33)",128,0,184,0
GAS LISTING /tmp/ccfQOnsU.s 			page 2


  58               		.stabs	"int_least64_t:t(0,44)=(0,34)",128,0,192,0
  59               		.stabs	"uint_least64_t:t(0,45)=(0,35)",128,0,199,0
  60               		.stabs	"int_fast8_t:t(0,46)=(0,28)",128,0,213,0
  61               		.stabs	"uint_fast8_t:t(0,47)=(0,29)",128,0,218,0
  62               		.stabs	"int_fast16_t:t(0,48)=(0,30)",128,0,223,0
  63               		.stabs	"uint_fast16_t:t(0,49)=(0,31)",128,0,228,0
  64               		.stabs	"int_fast32_t:t(0,50)=(0,32)",128,0,233,0
  65               		.stabs	"uint_fast32_t:t(0,51)=(0,33)",128,0,238,0
  66               		.stabs	"int_fast64_t:t(0,52)=(0,34)",128,0,246,0
  67               		.stabs	"uint_fast64_t:t(0,53)=(0,35)",128,0,253,0
  68               		.stabs	"intmax_t:t(0,54)=(0,34)",128,0,273,0
  69               		.stabs	"uintmax_t:t(0,55)=(0,35)",128,0,278,0
  70               		.stabs	"int_farptr_t:t(0,56)=(0,32)",128,0,77,0
  71               		.stabs	"uint_farptr_t:t(0,57)=(0,33)",128,0,81,0
  72               		.stabs	"._0:Tt(0,58)=s3low:(0,13),0,8;high:(0,13),8,8;extended:(0,13),16,8;;",128,0,240,0
  73               		.stabs	"__fuse_t:t(0,58)",128,0,244,0
  74               		.stabs	"LibRobot:Tt(0,59)=s1debut_:/2(0,24):_ZN8LibRobot6debut_E;fin_:/2(0,24):_ZN8LibRobot4fin_E;
  75               		.stabs	"can:Tt(0,77)=s1__base_ctor ::(0,78)=#(0,77),(0,4),(0,79)=*(0,77),(0,4);:_ZN3canC2Ev;2A.;__
  76               		.stabs	"_Z18ajusterOrientationb.part.2:f(0,4)",36,0,391,_Z18ajusterOrientationb.part.2
  77               		.type	_Z18ajusterOrientationb.part.2, @function
  78               	_Z18ajusterOrientationb.part.2:
  79               		.stabd	46,0,0
   1:robot_chat.cpp **** /****************************************************************************
   2:robot_chat.cpp ****  * Fichier: robot_chat.cpp
   3:robot_chat.cpp ****  * Auteur: Mario Saliby(1668958) et Youssef Zemmahi(1665843) et Yannick Ouellet et David Mainville 
   4:robot_chat.cpp ****  * DESCRIPTION : Chat
   5:robot_chat.cpp ****  ****************************************************************************/
   6:robot_chat.cpp **** 
   7:robot_chat.cpp **** /* Information sur branchements */
   8:robot_chat.cpp **** 
   9:robot_chat.cpp **** /* Port A0 branché sur capteur distance*/
  10:robot_chat.cpp **** 
  11:robot_chat.cpp **** /* Port B0 branché sur +        DEL*/
  12:robot_chat.cpp **** /* Port B1 branché sur -        DEL*/
  13:robot_chat.cpp **** /* Port B2 branché sur module de son*/
  14:robot_chat.cpp **** 
  15:robot_chat.cpp **** /* Port C2 branché sur capteur ligne gauche*/
  16:robot_chat.cpp **** /* Port C4 branché sur capteur ligne milieu*/
  17:robot_chat.cpp **** /* Port C6 branché sur capteur ligne droit*/
  18:robot_chat.cpp **** 
  19:robot_chat.cpp **** /* Port D4 branché sur enable moteur gauche*/
  20:robot_chat.cpp **** /* Port D6 branché sur sens moteur gauche*/
  21:robot_chat.cpp **** 
  22:robot_chat.cpp **** /* Port D5 branché sur enable moteur droit*/
  23:robot_chat.cpp **** /* Port D7 branché sur sens moteur droit*/
  24:robot_chat.cpp **** 
  25:robot_chat.cpp **** #define F_CPU 8000000UL
  26:robot_chat.cpp **** #include<avr/io.h>
  27:robot_chat.cpp **** #include<util/delay.h>
  28:robot_chat.cpp **** #include "lib/libRobot.h"
  29:robot_chat.cpp **** #include <avr/interrupt.h> 
  30:robot_chat.cpp **** #include "can.h"
  31:robot_chat.cpp **** 
  32:robot_chat.cpp **** #define VALEURANALOGIQUE (PINA & _BV(1))
  33:robot_chat.cpp **** #define BOUTON_ENFONCE (PIND & _BV(2))
  34:robot_chat.cpp **** 
  35:robot_chat.cpp **** //-----------------------------
GAS LISTING /tmp/ccfQOnsU.s 			page 3


  36:robot_chat.cpp **** //Lib et utils
  37:robot_chat.cpp **** //-----------------------------
  38:robot_chat.cpp **** LibRobot r;
  39:robot_chat.cpp **** volatile uint8_t& portDEL = PORTB;
  40:robot_chat.cpp **** uint8_t pinCouleur  = _BV(PORTB0);
  41:robot_chat.cpp **** uint8_t pinCouleur2  = _BV(PORTB1);
  42:robot_chat.cpp **** 
  43:robot_chat.cpp **** //-----------------------------
  44:robot_chat.cpp **** //Constantes et variables pour les décision du chat
  45:robot_chat.cpp **** //-----------------------------
  46:robot_chat.cpp **** 
  47:robot_chat.cpp **** 	//-----------------------------
  48:robot_chat.cpp **** 	//Mode de déplacement, prise de décision
  49:robot_chat.cpp **** 	//-----------------------------
  50:robot_chat.cpp **** 	bool modeLigneDroite;
  51:robot_chat.cpp **** 	bool modeIntersection;
  52:robot_chat.cpp **** 	bool modeVirageGauche;
  53:robot_chat.cpp **** 	bool modeVirageDroite;
  54:robot_chat.cpp **** 	bool modeReculer;
  55:robot_chat.cpp **** 
  56:robot_chat.cpp **** 	uint8_t directionCourrante; //1 = nord, 2= est, 3 = sud, 4 = ouest
  57:robot_chat.cpp **** 	int8_t positionRalativeX; //Nombre de case en x de la position de la souris, ex: 1 -> 1 case a l'e
  58:robot_chat.cpp **** 	int8_t positionRalativeY; //Nombre de case en y de la position de la souris, ex: 1 -> 1 case au no
  59:robot_chat.cpp **** 	int8_t distanceAParcourirX;
  60:robot_chat.cpp **** 	int8_t distanceAParcourirY;
  61:robot_chat.cpp **** 
  62:robot_chat.cpp **** 	uint16_t distance16;
  63:robot_chat.cpp **** 	uint8_t distance8;	//Valeur sur 8 bit de la distance calculé par le capteur lors du dernier cicle
  64:robot_chat.cpp **** 
  65:robot_chat.cpp **** 	bool modeRecherche;
  66:robot_chat.cpp **** 	bool modeFoncer;
  67:robot_chat.cpp **** 	bool modeVictoire;
  68:robot_chat.cpp **** 	bool modeDetection;
  69:robot_chat.cpp **** 	
  70:robot_chat.cpp **** 	uint8_t vitesseFoncer;
  71:robot_chat.cpp **** 	uint8_t modeFoncerConsecutif;
  72:robot_chat.cpp **** 	uint8_t modeFoncerConsecutifMax;
  73:robot_chat.cpp **** 
  74:robot_chat.cpp **** 	uint8_t vitesseVirageDetection;
  75:robot_chat.cpp **** 
  76:robot_chat.cpp **** 	int8_t varianceVitesseVirageDetection; 			
  77:robot_chat.cpp **** 	int8_t varianceVitesseVirageDetectionDeceleration; 	
  78:robot_chat.cpp **** 	int8_t varianceVitesseVirageDetectionMax;		
  79:robot_chat.cpp **** 	int8_t varianceVitesseVirageDetectionMin;
  80:robot_chat.cpp **** 	uint8_t directionInitialeDetection;
  81:robot_chat.cpp **** 
  82:robot_chat.cpp **** 	uint16_t delaiMemeOrientation;
  83:robot_chat.cpp **** 	uint16_t delaiMemeOrientationMax;
  84:robot_chat.cpp **** 
  85:robot_chat.cpp **** 	uint8_t nbIntersection;
  86:robot_chat.cpp **** 	uint8_t nbIntersectionMax;
  87:robot_chat.cpp **** 
  88:robot_chat.cpp **** 
  89:robot_chat.cpp **** //-----------------------------
  90:robot_chat.cpp **** //Constantes et variables pour le déplacement stable
  91:robot_chat.cpp **** //-----------------------------
  92:robot_chat.cpp **** 
GAS LISTING /tmp/ccfQOnsU.s 			page 4


  93:robot_chat.cpp **** 	//-----------------------------
  94:robot_chat.cpp **** 	//Constante et variable pour virage
  95:robot_chat.cpp **** 	//-----------------------------
  96:robot_chat.cpp **** 	int8_t vitesseVirage;
  97:robot_chat.cpp **** 	bool virageForce; //Si le mode détection est provoquer par le temps
  98:robot_chat.cpp **** 	bool detecteurEnabled; 	//Est a vrai si le detecteur peut signuifier la fin d'un virage
  99:robot_chat.cpp **** 				//Pour etre valide le détecteur doit être éteint au moins une fois pendant un virage
 100:robot_chat.cpp **** 				//Permet d'éviter de concidèrer un ligne droite comme un tournant lors d'un virage
 101:robot_chat.cpp **** 
 102:robot_chat.cpp **** 	int8_t varianceVitesseVirage; 			//Utiliser pour faire varier la vitesse du virage pendant le vira
 103:robot_chat.cpp **** 	int8_t varianceVitesseVirageDeceleration; 	//Cependant étant donné que le moteur ne peut aller e
 104:robot_chat.cpp **** 	int8_t varianceVitesseVirageMax;		//vitesse au maximum par moment, la vitesse ocille donc, entre v
 105:robot_chat.cpp **** 	int8_t varianceVitesseVirageMin;		//vitesseVirage + varianceVitesseVirageMin
 106:robot_chat.cpp **** 
 107:robot_chat.cpp **** 
 108:robot_chat.cpp **** 	//-----------------------------
 109:robot_chat.cpp **** 	//Constante et variable pour determinerTypeIntersection
 110:robot_chat.cpp **** 	//-----------------------------
 111:robot_chat.cpp **** 	bool franchieGauche;
 112:robot_chat.cpp **** 	bool franchieMilieu;
 113:robot_chat.cpp **** 	bool franchieDroite;
 114:robot_chat.cpp **** 
 115:robot_chat.cpp **** 	bool gaucheExiste; //On peut tourner a gauche
 116:robot_chat.cpp **** 	bool droiteExiste;
 117:robot_chat.cpp **** 	bool milieuExiste;
 118:robot_chat.cpp **** 
 119:robot_chat.cpp **** 	uint16_t tempsIntersection;
 120:robot_chat.cpp **** 	uint16_t tempsIntersectionMax; //Temps maximum pour détecter le type d'intersection
 121:robot_chat.cpp **** 	uint16_t tempsActif;
 122:robot_chat.cpp **** 	uint16_t seuilTempsActifToutDroit; //Temps actif minimum pour pouvoir continuer tout droit
 123:robot_chat.cpp **** 
 124:robot_chat.cpp **** 	uint8_t dernierCapteurIntersection; //1 gauche, 2 milieu, 3 droite, 0 rien
 125:robot_chat.cpp **** 
 126:robot_chat.cpp **** 	//-----------------------------
 127:robot_chat.cpp **** 	//Constante et variable pour avancerLigneDroite
 128:robot_chat.cpp **** 	//-----------------------------
 129:robot_chat.cpp **** 	uint8_t dernierCapteur; //1 gauche, 2 milieu, 3 droite, 0 rien
 130:robot_chat.cpp **** 	uint8_t vitesseBase;
 131:robot_chat.cpp **** 	int8_t ajustementGauche;
 132:robot_chat.cpp **** 	int8_t ajustementDroit;
 133:robot_chat.cpp **** 	int8_t ajustementMax;
 134:robot_chat.cpp **** 	int8_t ajustementMin;
 135:robot_chat.cpp **** 	int8_t ajustementRetour; //Lorsque l'on revient au centre, aujustement pour remttre le robot droit
 136:robot_chat.cpp **** 	int8_t ajustementVirageLeger; //Ajustement de la vitesse lors d'une stabilisation
 137:robot_chat.cpp **** 	int8_t ajustementVirageMoyen;
 138:robot_chat.cpp **** 	uint16_t delaisLigneDroite;
 139:robot_chat.cpp **** 	uint16_t delaisMaxLigneDroite;
 140:robot_chat.cpp **** 
 141:robot_chat.cpp **** 	int16_t delaisAjustementTemporaire;
 142:robot_chat.cpp **** 	int8_t ajustementTemporaireG;
 143:robot_chat.cpp **** 	int8_t ajustementTemporaireD;
 144:robot_chat.cpp **** 	int8_t ajustementTournant;
 145:robot_chat.cpp **** 	int8_t ajustementLigneDroite;
 146:robot_chat.cpp **** 	uint8_t dureeAjustementTournant;
 147:robot_chat.cpp **** 	uint8_t dureeAjustementLigneDroite;
 148:robot_chat.cpp **** 
 149:robot_chat.cpp **** 	uint16_t tempsDepuisIntersection;
GAS LISTING /tmp/ccfQOnsU.s 			page 5


 150:robot_chat.cpp **** 	uint16_t tempsAttenteMaxIntersection; //Temps d'attente maximal, avant de déclancher un intersect
 151:robot_chat.cpp **** 
 152:robot_chat.cpp **** 	//-----------------------------
 153:robot_chat.cpp **** 	//Constante et variable pour reculer
 154:robot_chat.cpp **** 	//-----------------------------
 155:robot_chat.cpp **** 	uint8_t vitesseReculer;
 156:robot_chat.cpp **** 	int8_t tempsReculActif;
 157:robot_chat.cpp **** 	int8_t tempsReculActifMax;
 158:robot_chat.cpp **** 	bool finRecul; //Utiliser pour faire reculer un peu plus apres avoir retrouvé la ligne
 159:robot_chat.cpp **** 	int8_t tempsReculExtra;
 160:robot_chat.cpp **** 	int8_t tempsReculExtraMax;
 161:robot_chat.cpp **** 
 162:robot_chat.cpp **** 	//-----------------------------
 163:robot_chat.cpp **** 	//Constante et variable pour éviter de tomber
 164:robot_chat.cpp **** 	//-----------------------------
 165:robot_chat.cpp **** 	//Vérifier le % de temps actif dans un delai recent pour s'assurer qu'on n'est pas dans le vide
 166:robot_chat.cpp **** 	//La vérification de la limite sera faite lors des déclenchement de delai max atteint
 167:robot_chat.cpp **** 	uint16_t tempsLigneDroiteActive;
 168:robot_chat.cpp **** 	uint16_t tempsLigneDroiteDepuisIntersection;
 169:robot_chat.cpp **** 	uint16_t tempsLigneDroiteActiveMax;
 170:robot_chat.cpp **** 	uint16_t tempsLigneDroiteActiveSeuil;
 171:robot_chat.cpp **** 
 172:robot_chat.cpp **** 	//Vérification du temps sans capteur (qui est reset chaque fois qu'un capteur est atteint)
 173:robot_chat.cpp **** 	uint16_t tempsActifSansCapteur;
 174:robot_chat.cpp **** 	uint16_t tempsActifSansCapteurMax;
 175:robot_chat.cpp **** 
 176:robot_chat.cpp **** bool debug = false;
 177:robot_chat.cpp **** 
 178:robot_chat.cpp **** bool capteurDroit()
 179:robot_chat.cpp **** {
 180:robot_chat.cpp **** 	return !(PINC & _BV(PORTC6));
 181:robot_chat.cpp **** }
 182:robot_chat.cpp **** bool capteurMilieu()
 183:robot_chat.cpp **** {
 184:robot_chat.cpp **** 	return !(PINC & _BV(PORTC4));
 185:robot_chat.cpp **** }
 186:robot_chat.cpp **** bool capteurGauche()
 187:robot_chat.cpp **** {
 188:robot_chat.cpp **** 	return !(PINC & _BV(PORTC2));
 189:robot_chat.cpp **** }
 190:robot_chat.cpp **** 
 191:robot_chat.cpp **** void jouerSonDistance(uint16_t valeur)
 192:robot_chat.cpp **** {
 193:robot_chat.cpp **** 	if(valeur>20) 
 194:robot_chat.cpp **** 	{	
 195:robot_chat.cpp **** 		// Intervalles qui definissent les differents sons emis dependamment de la force du signal de ret
 196:robot_chat.cpp **** 		if (valeur>7 && valeur<=17)
 197:robot_chat.cpp **** 			r.jouerSon(66);
 198:robot_chat.cpp **** 		else if (valeur>17 && valeur<=33)
 199:robot_chat.cpp **** 			r.jouerSon(67);
 200:robot_chat.cpp **** 		else if (valeur>33 && valeur<=49)
 201:robot_chat.cpp **** 			r.jouerSon(68);
 202:robot_chat.cpp **** 		else if (valeur>49 && valeur<=65)
 203:robot_chat.cpp **** 			r.jouerSon(69);
 204:robot_chat.cpp **** 		else if (valeur>65 && valeur<=81)
 205:robot_chat.cpp **** 			r.jouerSon(70);
 206:robot_chat.cpp **** 		else if  (valeur>81 && valeur<=97)
GAS LISTING /tmp/ccfQOnsU.s 			page 6


 207:robot_chat.cpp **** 			r.jouerSon(71);
 208:robot_chat.cpp **** 		else if (valeur>97 && valeur<=113)
 209:robot_chat.cpp **** 			r.jouerSon(72);
 210:robot_chat.cpp **** 		else if (valeur>113 && valeur<=129)
 211:robot_chat.cpp **** 			r.jouerSon(73);
 212:robot_chat.cpp **** 		else if (valeur>129 && valeur<=145)
 213:robot_chat.cpp **** 			r.jouerSon(74);
 214:robot_chat.cpp **** 		else if  (valeur>145 && valeur<=161)
 215:robot_chat.cpp **** 			r.jouerSon(75);
 216:robot_chat.cpp **** 		else if (valeur>161 && valeur<=177)
 217:robot_chat.cpp **** 			r.jouerSon(76);
 218:robot_chat.cpp **** 		else if (valeur>177 && valeur<=193)
 219:robot_chat.cpp **** 			r.jouerSon(77);
 220:robot_chat.cpp **** 		else if (valeur>193 && valeur<=209)
 221:robot_chat.cpp **** 			r.jouerSon(78);
 222:robot_chat.cpp **** 		else if  (valeur>209 && valeur<=225)
 223:robot_chat.cpp **** 			r.jouerSon(79);
 224:robot_chat.cpp **** 		else if(valeur>225 && valeur<=241)
 225:robot_chat.cpp **** 			r.jouerSon(80);
 226:robot_chat.cpp **** 		else if (valeur>241 && valeur<256)
 227:robot_chat.cpp **** 			r.jouerSon(81);
 228:robot_chat.cpp **** 	}
 229:robot_chat.cpp **** 	else
 230:robot_chat.cpp **** 	{
 231:robot_chat.cpp **** 		r.arreterSon();
 232:robot_chat.cpp **** 	}
 233:robot_chat.cpp **** }
 234:robot_chat.cpp **** 
 235:robot_chat.cpp **** 
 236:robot_chat.cpp **** uint8_t getDistanceSouris()
 237:robot_chat.cpp **** {
 238:robot_chat.cpp **** 	if(distance8 <= 50)
 239:robot_chat.cpp **** 		return 4; //on ne le voit pas
 240:robot_chat.cpp **** 
 241:robot_chat.cpp **** 	if(distance8 > 140)
 242:robot_chat.cpp **** 		return 0; //victoire
 243:robot_chat.cpp **** 
 244:robot_chat.cpp **** 	if(distance8 >50 && distance8<=140)
 245:robot_chat.cpp **** 		return 2;
 246:robot_chat.cpp **** 
 247:robot_chat.cpp **** 	return 3;
 248:robot_chat.cpp **** }
 249:robot_chat.cpp **** 
 250:robot_chat.cpp **** void ajusterPositionRelative(uint8_t axeCourrant)
 251:robot_chat.cpp **** {
 252:robot_chat.cpp **** 	//Assigne une valeur a position relative X et Y
 253:robot_chat.cpp **** 
 254:robot_chat.cpp **** 	//axe courrant : 1 = nord, 2 = est, 3 = sud, 4 = ouest, 5 = nord-est, 6 = sud-est, 7 = sud-ouest, 
 255:robot_chat.cpp **** 	//positionRalativeX
 256:robot_chat.cpp **** 	//positionRalativeY
 257:robot_chat.cpp **** 
 258:robot_chat.cpp **** 	int8_t axe_x = 0;
 259:robot_chat.cpp **** 	int8_t axe_y = 0;
 260:robot_chat.cpp **** 
 261:robot_chat.cpp **** 	if(distance8>50)   
 262:robot_chat.cpp **** 	{
 263:robot_chat.cpp **** 		switch (axeCourrant) // cas 0,1,2  , axe des x , angle , axe des y
GAS LISTING /tmp/ccfQOnsU.s 			page 7


 264:robot_chat.cpp **** 		{
 265:robot_chat.cpp **** 			case 1 : //Nord
 266:robot_chat.cpp **** 			{
 267:robot_chat.cpp **** 				if(distance8 >80 && distance8<=140)
 268:robot_chat.cpp **** 				{
 269:robot_chat.cpp **** 					axe_x=0;
 270:robot_chat.cpp **** 					axe_y=2;
 271:robot_chat.cpp **** 				}
 272:robot_chat.cpp **** 				else if(distance8 <=80)
 273:robot_chat.cpp **** 				{
 274:robot_chat.cpp **** 					axe_x=0;
 275:robot_chat.cpp **** 					axe_y=3;
 276:robot_chat.cpp **** 				}
 277:robot_chat.cpp **** 				break;
 278:robot_chat.cpp **** 			}
 279:robot_chat.cpp **** 			case 2 : //Est
 280:robot_chat.cpp **** 			{
 281:robot_chat.cpp **** 				if(distance8 >80 && distance8<=140)
 282:robot_chat.cpp **** 				{
 283:robot_chat.cpp **** 					axe_x=2;
 284:robot_chat.cpp **** 					axe_y=0;
 285:robot_chat.cpp **** 				}
 286:robot_chat.cpp **** 				else if(distance8 <=80)
 287:robot_chat.cpp **** 				{
 288:robot_chat.cpp **** 					axe_x=3;
 289:robot_chat.cpp **** 					axe_y=0;
 290:robot_chat.cpp **** 				}
 291:robot_chat.cpp **** 				break;
 292:robot_chat.cpp **** 			}
 293:robot_chat.cpp **** 			case 3 : //Sud
 294:robot_chat.cpp **** 			{
 295:robot_chat.cpp **** 				if(distance8 >80 && distance8<=140)
 296:robot_chat.cpp **** 				{
 297:robot_chat.cpp **** 					axe_x=0;
 298:robot_chat.cpp **** 					axe_y=-2;
 299:robot_chat.cpp **** 				}
 300:robot_chat.cpp **** 				else if(distance8 <=80)
 301:robot_chat.cpp **** 				{
 302:robot_chat.cpp **** 					axe_x=0;
 303:robot_chat.cpp **** 					axe_y=-3;
 304:robot_chat.cpp **** 				}
 305:robot_chat.cpp **** 				break;
 306:robot_chat.cpp **** 			}
 307:robot_chat.cpp **** 			case 4 : //Ouest
 308:robot_chat.cpp **** 			{
 309:robot_chat.cpp **** 				if(distance8 >80 && distance8<=140)
 310:robot_chat.cpp **** 				{
 311:robot_chat.cpp **** 					axe_x=-2;
 312:robot_chat.cpp **** 					axe_y=0;
 313:robot_chat.cpp **** 				}
 314:robot_chat.cpp **** 				else if(distance8 <=80)
 315:robot_chat.cpp **** 				{
 316:robot_chat.cpp **** 					axe_x=-3;
 317:robot_chat.cpp **** 					axe_y=0;
 318:robot_chat.cpp **** 				}
 319:robot_chat.cpp **** 				break;
 320:robot_chat.cpp **** 			}
GAS LISTING /tmp/ccfQOnsU.s 			page 8


 321:robot_chat.cpp **** 			case 5 :  //Nord-Est, diagonale d'un carre de cote=10 pouces = 14 pouces
 322:robot_chat.cpp **** 			{
 323:robot_chat.cpp **** 				if(distance8 <=140 && distance8 > 90)
 324:robot_chat.cpp **** 				{
 325:robot_chat.cpp **** 					axe_x=1;
 326:robot_chat.cpp **** 					axe_y=1;
 327:robot_chat.cpp **** 				}
 328:robot_chat.cpp **** 				else if(distance8<=90)
 329:robot_chat.cpp **** 				{
 330:robot_chat.cpp **** 					axe_x=2;
 331:robot_chat.cpp **** 					axe_y=2;
 332:robot_chat.cpp **** 				}
 333:robot_chat.cpp **** 				break;
 334:robot_chat.cpp **** 			}
 335:robot_chat.cpp **** 			case 6 :  //Sud-Est
 336:robot_chat.cpp **** 			{
 337:robot_chat.cpp **** 				if(distance8 <=140 && distance8 > 90)
 338:robot_chat.cpp **** 				{
 339:robot_chat.cpp **** 					axe_x=1;
 340:robot_chat.cpp **** 					axe_y=-1;
 341:robot_chat.cpp **** 				}
 342:robot_chat.cpp **** 				else if(distance8<=90)
 343:robot_chat.cpp **** 				{
 344:robot_chat.cpp **** 					axe_x=2;
 345:robot_chat.cpp **** 					axe_y=-2;
 346:robot_chat.cpp **** 				}
 347:robot_chat.cpp **** 				break;
 348:robot_chat.cpp **** 			}
 349:robot_chat.cpp **** 			case 7 :  //Sud-Ouest
 350:robot_chat.cpp **** 			{
 351:robot_chat.cpp **** 				if(distance8 <=140 && distance8 > 90)
 352:robot_chat.cpp **** 				{
 353:robot_chat.cpp **** 					axe_x=-1;
 354:robot_chat.cpp **** 					axe_y=-1;
 355:robot_chat.cpp **** 				}
 356:robot_chat.cpp **** 				else if(distance8<=90)
 357:robot_chat.cpp **** 				{
 358:robot_chat.cpp **** 					axe_x=-2;
 359:robot_chat.cpp **** 					axe_y=-2;
 360:robot_chat.cpp **** 				}
 361:robot_chat.cpp **** 				break;
 362:robot_chat.cpp **** 			}
 363:robot_chat.cpp **** 			case 8 :  //Nord-Ouest
 364:robot_chat.cpp **** 			{
 365:robot_chat.cpp **** 				if(distance8 <=140 && distance8 > 90)
 366:robot_chat.cpp **** 				{
 367:robot_chat.cpp **** 					axe_x=-1;
 368:robot_chat.cpp **** 					axe_y=1;
 369:robot_chat.cpp **** 				}
 370:robot_chat.cpp **** 				else if(distance8<=90)
 371:robot_chat.cpp **** 				{
 372:robot_chat.cpp **** 					axe_x=-2;
 373:robot_chat.cpp **** 					axe_y=2;
 374:robot_chat.cpp **** 				}
 375:robot_chat.cpp **** 				break;
 376:robot_chat.cpp **** 			}
 377:robot_chat.cpp **** 		}   
GAS LISTING /tmp/ccfQOnsU.s 			page 9


 378:robot_chat.cpp **** 	}
 379:robot_chat.cpp **** 	else
 380:robot_chat.cpp **** 	{
 381:robot_chat.cpp **** 		//Tres loin
 382:robot_chat.cpp **** 		axe_x = 4;
 383:robot_chat.cpp **** 		axe_y = 4;
 384:robot_chat.cpp **** 	}
 385:robot_chat.cpp **** 	
 386:robot_chat.cpp **** 	positionRalativeX = axe_x;
 387:robot_chat.cpp **** 	positionRalativeY = axe_y;
 388:robot_chat.cpp **** }
 389:robot_chat.cpp **** 
 390:robot_chat.cpp **** 
 391:robot_chat.cpp **** void ajusterOrientation(bool gauche)
  80               		.stabn	68,0,391,.LM0-.LFBB1
  81               	.LM0:
  82               	.LFBB1:
  83               	/* prologue: function */
  84               	/* frame size = 0 */
  85               	/* stack size = 0 */
  86               	.L__stack_usage = 0
 392:robot_chat.cpp **** {
 393:robot_chat.cpp **** 	if(gauche)
 394:robot_chat.cpp **** 	{
 395:robot_chat.cpp **** 		directionCourrante--;
  87               		.stabn	68,0,395,.LM1-.LFBB1
  88               	.LM1:
  89 0000 8091 0000 		lds r24,directionCourrante
  90 0004 8150      		subi r24,lo8(-(-1))
 396:robot_chat.cpp **** 		if(directionCourrante == 0)
  91               		.stabn	68,0,396,.LM2-.LFBB1
  92               	.LM2:
  93 0006 01F0      		breq .L2
  94 0008 00C0      		rjmp .L4
  95               	.L2:
 397:robot_chat.cpp **** 			directionCourrante = 4;
  96               		.stabn	68,0,397,.LM3-.LFBB1
  97               	.LM3:
  98 000a 84E0      		ldi r24,lo8(4)
  99               	.L4:
 100 000c 8093 0000 		sts directionCourrante,r24
 101 0010 0895      		ret
 102               		.size	_Z18ajusterOrientationb.part.2, .-_Z18ajusterOrientationb.part.2
 103               	.Lscope1:
 104               		.stabs	"",36,0,0,.Lscope1-.LFBB1
 105               		.stabd	78,0,0
 106               		.stabs	"_Z12capteurDroitv:F(0,24)",36,0,178,_Z12capteurDroitv
 107               	.global	_Z12capteurDroitv
 108               		.type	_Z12capteurDroitv, @function
 109               	_Z12capteurDroitv:
 110               		.stabd	46,0,0
 179:robot_chat.cpp **** {
 111               		.stabn	68,0,179,.LM4-.LFBB2
 112               	.LM4:
 113               	.LFBB2:
 114               	/* prologue: function */
 115               	/* frame size = 0 */
GAS LISTING /tmp/ccfQOnsU.s 			page 10


 116               	/* stack size = 0 */
 117               	.L__stack_usage = 0
 180:robot_chat.cpp **** 	return !(PINC & _BV(PORTC6));
 118               		.stabn	68,0,180,.LM5-.LFBB2
 119               	.LM5:
 120 0012 86B1      		in r24,0x6
 121 0014 86FB      		bst r24,6
 122 0016 8827      		clr r24
 123 0018 80F9      		bld r24,0
 181:robot_chat.cpp **** }
 124               		.stabn	68,0,181,.LM6-.LFBB2
 125               	.LM6:
 126 001a 91E0      		ldi r25,lo8(1)
 127 001c 8927      		eor r24,r25
 128 001e 0895      		ret
 129               		.size	_Z12capteurDroitv, .-_Z12capteurDroitv
 130               	.Lscope2:
 131               		.stabs	"",36,0,0,.Lscope2-.LFBB2
 132               		.stabd	78,0,0
 133               		.stabs	"_Z13capteurMilieuv:F(0,24)",36,0,182,_Z13capteurMilieuv
 134               	.global	_Z13capteurMilieuv
 135               		.type	_Z13capteurMilieuv, @function
 136               	_Z13capteurMilieuv:
 137               		.stabd	46,0,0
 183:robot_chat.cpp **** {
 138               		.stabn	68,0,183,.LM7-.LFBB3
 139               	.LM7:
 140               	.LFBB3:
 141               	/* prologue: function */
 142               	/* frame size = 0 */
 143               	/* stack size = 0 */
 144               	.L__stack_usage = 0
 184:robot_chat.cpp **** 	return !(PINC & _BV(PORTC4));
 145               		.stabn	68,0,184,.LM8-.LFBB3
 146               	.LM8:
 147 0020 86B1      		in r24,0x6
 148 0022 8295      		swap r24
 149 0024 8170      		andi r24,1
 185:robot_chat.cpp **** }
 150               		.stabn	68,0,185,.LM9-.LFBB3
 151               	.LM9:
 152 0026 91E0      		ldi r25,lo8(1)
 153 0028 8927      		eor r24,r25
 154 002a 0895      		ret
 155               		.size	_Z13capteurMilieuv, .-_Z13capteurMilieuv
 156               	.Lscope3:
 157               		.stabs	"",36,0,0,.Lscope3-.LFBB3
 158               		.stabd	78,0,0
 159               		.stabs	"_Z13capteurGauchev:F(0,24)",36,0,186,_Z13capteurGauchev
 160               	.global	_Z13capteurGauchev
 161               		.type	_Z13capteurGauchev, @function
 162               	_Z13capteurGauchev:
 163               		.stabd	46,0,0
 187:robot_chat.cpp **** {
 164               		.stabn	68,0,187,.LM10-.LFBB4
 165               	.LM10:
 166               	.LFBB4:
GAS LISTING /tmp/ccfQOnsU.s 			page 11


 167               	/* prologue: function */
 168               	/* frame size = 0 */
 169               	/* stack size = 0 */
 170               	.L__stack_usage = 0
 188:robot_chat.cpp **** 	return !(PINC & _BV(PORTC2));
 171               		.stabn	68,0,188,.LM11-.LFBB4
 172               	.LM11:
 173 002c 86B1      		in r24,0x6
 174 002e 82FB      		bst r24,2
 175 0030 8827      		clr r24
 176 0032 80F9      		bld r24,0
 189:robot_chat.cpp **** }
 177               		.stabn	68,0,189,.LM12-.LFBB4
 178               	.LM12:
 179 0034 91E0      		ldi r25,lo8(1)
 180 0036 8927      		eor r24,r25
 181 0038 0895      		ret
 182               		.size	_Z13capteurGauchev, .-_Z13capteurGauchev
 183               	.Lscope4:
 184               		.stabs	"",36,0,0,.Lscope4-.LFBB4
 185               		.stabd	78,0,0
 186               		.stabs	"_Z16jouerSonDistancej:F(0,4)",36,0,191,_Z16jouerSonDistancej
 187               		.stabs	"valeur:P(0,31)",64,0,191,24
 188               	.global	_Z16jouerSonDistancej
 189               		.type	_Z16jouerSonDistancej, @function
 190               	_Z16jouerSonDistancej:
 191               		.stabd	46,0,0
 192:robot_chat.cpp **** {
 192               		.stabn	68,0,192,.LM13-.LFBB5
 193               	.LM13:
 194               	.LFBB5:
 195               	/* prologue: function */
 196               	/* frame size = 0 */
 197               	/* stack size = 0 */
 198               	.L__stack_usage = 0
 193:robot_chat.cpp **** 	if(valeur>20) 
 199               		.stabn	68,0,193,.LM14-.LFBB5
 200               	.LM14:
 201 003a 8531      		cpi r24,21
 202 003c 9105      		cpc r25,__zero_reg__
 203 003e 00F4      		brsh .+2
 204 0040 00C0      		rjmp .L9
 198:robot_chat.cpp **** 		else if (valeur>17 && valeur<=33)
 205               		.stabn	68,0,198,.LM15-.LFBB5
 206               	.LM15:
 207 0042 9C01      		movw r18,r24
 208 0044 2251      		subi r18,18
 209 0046 3109      		sbc r19,__zero_reg__
 210 0048 2031      		cpi r18,16
 211 004a 3105      		cpc r19,__zero_reg__
 212 004c 00F4      		brsh .L10
 199:robot_chat.cpp **** 			r.jouerSon(67);
 213               		.stabn	68,0,199,.LM16-.LFBB5
 214               	.LM16:
 215 004e 83E4      		ldi r24,lo8(67)
 216 0050 00C0      		rjmp .L25
 217               	.L10:
GAS LISTING /tmp/ccfQOnsU.s 			page 12


 200:robot_chat.cpp **** 		else if (valeur>33 && valeur<=49)
 218               		.stabn	68,0,200,.LM17-.LFBB5
 219               	.LM17:
 220 0052 9C01      		movw r18,r24
 221 0054 2252      		subi r18,34
 222 0056 3109      		sbc r19,__zero_reg__
 223 0058 2031      		cpi r18,16
 224 005a 3105      		cpc r19,__zero_reg__
 225 005c 00F4      		brsh .L11
 201:robot_chat.cpp **** 			r.jouerSon(68);
 226               		.stabn	68,0,201,.LM18-.LFBB5
 227               	.LM18:
 228 005e 84E4      		ldi r24,lo8(68)
 229               	.L25:
 230 0060 0C94 0000 		jmp _ZN8LibRobot8jouerSonEh
 231               	.L11:
 202:robot_chat.cpp **** 		else if (valeur>49 && valeur<=65)
 232               		.stabn	68,0,202,.LM19-.LFBB5
 233               	.LM19:
 234 0064 9C01      		movw r18,r24
 235 0066 2253      		subi r18,50
 236 0068 3109      		sbc r19,__zero_reg__
 237 006a 2031      		cpi r18,16
 238 006c 3105      		cpc r19,__zero_reg__
 239 006e 00F4      		brsh .L12
 203:robot_chat.cpp **** 			r.jouerSon(69);
 240               		.stabn	68,0,203,.LM20-.LFBB5
 241               	.LM20:
 242 0070 85E4      		ldi r24,lo8(69)
 243 0072 00C0      		rjmp .L25
 244               	.L12:
 204:robot_chat.cpp **** 		else if (valeur>65 && valeur<=81)
 245               		.stabn	68,0,204,.LM21-.LFBB5
 246               	.LM21:
 247 0074 9C01      		movw r18,r24
 248 0076 2254      		subi r18,66
 249 0078 3109      		sbc r19,__zero_reg__
 250 007a 2031      		cpi r18,16
 251 007c 3105      		cpc r19,__zero_reg__
 252 007e 00F4      		brsh .L13
 205:robot_chat.cpp **** 			r.jouerSon(70);
 253               		.stabn	68,0,205,.LM22-.LFBB5
 254               	.LM22:
 255 0080 86E4      		ldi r24,lo8(70)
 256 0082 00C0      		rjmp .L25
 257               	.L13:
 206:robot_chat.cpp **** 		else if  (valeur>81 && valeur<=97)
 258               		.stabn	68,0,206,.LM23-.LFBB5
 259               	.LM23:
 260 0084 9C01      		movw r18,r24
 261 0086 2255      		subi r18,82
 262 0088 3109      		sbc r19,__zero_reg__
 263 008a 2031      		cpi r18,16
 264 008c 3105      		cpc r19,__zero_reg__
 265 008e 00F4      		brsh .L14
 207:robot_chat.cpp **** 			r.jouerSon(71);
 266               		.stabn	68,0,207,.LM24-.LFBB5
GAS LISTING /tmp/ccfQOnsU.s 			page 13


 267               	.LM24:
 268 0090 87E4      		ldi r24,lo8(71)
 269 0092 00C0      		rjmp .L25
 270               	.L14:
 271               	.LBB29:
 272               	.LBB30:
 208:robot_chat.cpp **** 		else if (valeur>97 && valeur<=113)
 273               		.stabn	68,0,208,.LM25-.LFBB5
 274               	.LM25:
 275 0094 9C01      		movw r18,r24
 276 0096 2256      		subi r18,98
 277 0098 3109      		sbc r19,__zero_reg__
 278 009a 2031      		cpi r18,16
 279 009c 3105      		cpc r19,__zero_reg__
 280 009e 00F4      		brsh .L15
 209:robot_chat.cpp **** 			r.jouerSon(72);
 281               		.stabn	68,0,209,.LM26-.LFBB5
 282               	.LM26:
 283 00a0 88E4      		ldi r24,lo8(72)
 284 00a2 00C0      		rjmp .L25
 285               	.L15:
 210:robot_chat.cpp **** 		else if (valeur>113 && valeur<=129)
 286               		.stabn	68,0,210,.LM27-.LFBB5
 287               	.LM27:
 288 00a4 9C01      		movw r18,r24
 289 00a6 2257      		subi r18,114
 290 00a8 3109      		sbc r19,__zero_reg__
 291 00aa 2031      		cpi r18,16
 292 00ac 3105      		cpc r19,__zero_reg__
 293 00ae 00F4      		brsh .L16
 211:robot_chat.cpp **** 			r.jouerSon(73);
 294               		.stabn	68,0,211,.LM28-.LFBB5
 295               	.LM28:
 296 00b0 89E4      		ldi r24,lo8(73)
 297 00b2 00C0      		rjmp .L25
 298               	.L16:
 212:robot_chat.cpp **** 		else if (valeur>129 && valeur<=145)
 299               		.stabn	68,0,212,.LM29-.LFBB5
 300               	.LM29:
 301 00b4 9C01      		movw r18,r24
 302 00b6 2258      		subi r18,-126
 303 00b8 3109      		sbc r19,__zero_reg__
 304 00ba 2031      		cpi r18,16
 305 00bc 3105      		cpc r19,__zero_reg__
 306 00be 00F4      		brsh .L17
 213:robot_chat.cpp **** 			r.jouerSon(74);
 307               		.stabn	68,0,213,.LM30-.LFBB5
 308               	.LM30:
 309 00c0 8AE4      		ldi r24,lo8(74)
 310 00c2 00C0      		rjmp .L25
 311               	.L17:
 214:robot_chat.cpp **** 		else if  (valeur>145 && valeur<=161)
 312               		.stabn	68,0,214,.LM31-.LFBB5
 313               	.LM31:
 314 00c4 9C01      		movw r18,r24
 315 00c6 2259      		subi r18,-110
 316 00c8 3109      		sbc r19,__zero_reg__
GAS LISTING /tmp/ccfQOnsU.s 			page 14


 317 00ca 2031      		cpi r18,16
 318 00cc 3105      		cpc r19,__zero_reg__
 319 00ce 00F4      		brsh .L18
 215:robot_chat.cpp **** 			r.jouerSon(75);
 320               		.stabn	68,0,215,.LM32-.LFBB5
 321               	.LM32:
 322 00d0 8BE4      		ldi r24,lo8(75)
 323 00d2 00C0      		rjmp .L25
 324               	.L18:
 216:robot_chat.cpp **** 		else if (valeur>161 && valeur<=177)
 325               		.stabn	68,0,216,.LM33-.LFBB5
 326               	.LM33:
 327 00d4 9C01      		movw r18,r24
 328 00d6 225A      		subi r18,-94
 329 00d8 3109      		sbc r19,__zero_reg__
 330 00da 2031      		cpi r18,16
 331 00dc 3105      		cpc r19,__zero_reg__
 332 00de 00F4      		brsh .L19
 217:robot_chat.cpp **** 			r.jouerSon(76);
 333               		.stabn	68,0,217,.LM34-.LFBB5
 334               	.LM34:
 335 00e0 8CE4      		ldi r24,lo8(76)
 336 00e2 00C0      		rjmp .L25
 337               	.L19:
 218:robot_chat.cpp **** 		else if (valeur>177 && valeur<=193)
 338               		.stabn	68,0,218,.LM35-.LFBB5
 339               	.LM35:
 340 00e4 9C01      		movw r18,r24
 341 00e6 225B      		subi r18,-78
 342 00e8 3109      		sbc r19,__zero_reg__
 343 00ea 2031      		cpi r18,16
 344 00ec 3105      		cpc r19,__zero_reg__
 345 00ee 00F4      		brsh .L20
 219:robot_chat.cpp **** 			r.jouerSon(77);
 346               		.stabn	68,0,219,.LM36-.LFBB5
 347               	.LM36:
 348 00f0 8DE4      		ldi r24,lo8(77)
 349 00f2 00C0      		rjmp .L25
 350               	.L20:
 220:robot_chat.cpp **** 		else if (valeur>193 && valeur<=209)
 351               		.stabn	68,0,220,.LM37-.LFBB5
 352               	.LM37:
 353 00f4 9C01      		movw r18,r24
 354 00f6 225C      		subi r18,-62
 355 00f8 3109      		sbc r19,__zero_reg__
 356 00fa 2031      		cpi r18,16
 357 00fc 3105      		cpc r19,__zero_reg__
 358 00fe 00F4      		brsh .L21
 221:robot_chat.cpp **** 			r.jouerSon(78);
 359               		.stabn	68,0,221,.LM38-.LFBB5
 360               	.LM38:
 361 0100 8EE4      		ldi r24,lo8(78)
 362 0102 00C0      		rjmp .L25
 363               	.L21:
 222:robot_chat.cpp **** 		else if  (valeur>209 && valeur<=225)
 364               		.stabn	68,0,222,.LM39-.LFBB5
 365               	.LM39:
GAS LISTING /tmp/ccfQOnsU.s 			page 15


 366 0104 9C01      		movw r18,r24
 367 0106 225D      		subi r18,-46
 368 0108 3109      		sbc r19,__zero_reg__
 369 010a 2031      		cpi r18,16
 370 010c 3105      		cpc r19,__zero_reg__
 371 010e 00F4      		brsh .L22
 223:robot_chat.cpp **** 			r.jouerSon(79);
 372               		.stabn	68,0,223,.LM40-.LFBB5
 373               	.LM40:
 374 0110 8FE4      		ldi r24,lo8(79)
 375 0112 00C0      		rjmp .L25
 376               	.L22:
 224:robot_chat.cpp **** 		else if(valeur>225 && valeur<=241)
 377               		.stabn	68,0,224,.LM41-.LFBB5
 378               	.LM41:
 379 0114 9C01      		movw r18,r24
 380 0116 225E      		subi r18,-30
 381 0118 3109      		sbc r19,__zero_reg__
 382 011a 2031      		cpi r18,16
 383 011c 3105      		cpc r19,__zero_reg__
 384 011e 00F4      		brsh .L23
 225:robot_chat.cpp **** 			r.jouerSon(80);
 385               		.stabn	68,0,225,.LM42-.LFBB5
 386               	.LM42:
 387 0120 80E5      		ldi r24,lo8(80)
 388 0122 00C0      		rjmp .L25
 389               	.L23:
 226:robot_chat.cpp **** 		else if (valeur>241 && valeur<256)
 390               		.stabn	68,0,226,.LM43-.LFBB5
 391               	.LM43:
 392 0124 825F      		subi r24,-14
 393 0126 9109      		sbc r25,__zero_reg__
 394 0128 0E97      		sbiw r24,14
 395 012a 00F4      		brsh .L8
 227:robot_chat.cpp **** 			r.jouerSon(81);
 396               		.stabn	68,0,227,.LM44-.LFBB5
 397               	.LM44:
 398 012c 81E5      		ldi r24,lo8(81)
 399 012e 00C0      		rjmp .L25
 400               	.L9:
 401               	.LBE30:
 402               	.LBE29:
 231:robot_chat.cpp **** 		r.arreterSon();
 403               		.stabn	68,0,231,.LM45-.LFBB5
 404               	.LM45:
 405 0130 0C94 0000 		jmp _ZN8LibRobot10arreterSonEv
 406               	.L8:
 407 0134 0895      		ret
 408               		.size	_Z16jouerSonDistancej, .-_Z16jouerSonDistancej
 409               	.Lscope5:
 410               		.stabs	"",36,0,0,.Lscope5-.LFBB5
 411               		.stabd	78,0,0
 412               		.stabs	"_Z17getDistanceSourisv:F(0,29)",36,0,236,_Z17getDistanceSourisv
 413               	.global	_Z17getDistanceSourisv
 414               		.type	_Z17getDistanceSourisv, @function
 415               	_Z17getDistanceSourisv:
 416               		.stabd	46,0,0
GAS LISTING /tmp/ccfQOnsU.s 			page 16


 237:robot_chat.cpp **** {
 417               		.stabn	68,0,237,.LM46-.LFBB6
 418               	.LM46:
 419               	.LFBB6:
 420               	/* prologue: function */
 421               	/* frame size = 0 */
 422               	/* stack size = 0 */
 423               	.L__stack_usage = 0
 238:robot_chat.cpp **** 	if(distance8 <= 50)
 424               		.stabn	68,0,238,.LM47-.LFBB6
 425               	.LM47:
 426 0136 8091 0000 		lds r24,distance8
 427 013a 8333      		cpi r24,lo8(51)
 428 013c 00F0      		brlo .L28
 241:robot_chat.cpp **** 	if(distance8 > 140)
 429               		.stabn	68,0,241,.LM48-.LFBB6
 430               	.LM48:
 431 013e 8D38      		cpi r24,lo8(-115)
 432 0140 00F0      		brlo .L29
 242:robot_chat.cpp **** 		return 0; //victoire
 433               		.stabn	68,0,242,.LM49-.LFBB6
 434               	.LM49:
 435 0142 80E0      		ldi r24,0
 436 0144 0895      		ret
 437               	.L28:
 239:robot_chat.cpp **** 		return 4; //on ne le voit pas
 438               		.stabn	68,0,239,.LM50-.LFBB6
 439               	.LM50:
 440 0146 84E0      		ldi r24,lo8(4)
 441 0148 0895      		ret
 442               	.L29:
 245:robot_chat.cpp **** 		return 2;
 443               		.stabn	68,0,245,.LM51-.LFBB6
 444               	.LM51:
 445 014a 82E0      		ldi r24,lo8(2)
 248:robot_chat.cpp **** }
 446               		.stabn	68,0,248,.LM52-.LFBB6
 447               	.LM52:
 448 014c 0895      		ret
 449               		.size	_Z17getDistanceSourisv, .-_Z17getDistanceSourisv
 450               	.Lscope6:
 451               		.stabs	"",36,0,0,.Lscope6-.LFBB6
 452               		.stabd	78,0,0
 453               		.stabs	"_Z23ajusterPositionRelativeh:F(0,4)",36,0,250,_Z23ajusterPositionRelativeh
 454               		.stabs	"axeCourrant:P(0,29)",64,0,250,24
 455               	.global	_Z23ajusterPositionRelativeh
 456               		.type	_Z23ajusterPositionRelativeh, @function
 457               	_Z23ajusterPositionRelativeh:
 458               		.stabd	46,0,0
 251:robot_chat.cpp **** {
 459               		.stabn	68,0,251,.LM53-.LFBB7
 460               	.LM53:
 461               	.LFBB7:
 462               	/* prologue: function */
 463               	/* frame size = 0 */
 464               	/* stack size = 0 */
 465               	.L__stack_usage = 0
GAS LISTING /tmp/ccfQOnsU.s 			page 17


 466               	.LBB31:
 261:robot_chat.cpp **** 	if(distance8>50)   
 467               		.stabn	68,0,261,.LM54-.LFBB7
 468               	.LM54:
 469 014e 9091 0000 		lds r25,distance8
 470 0152 9333      		cpi r25,lo8(51)
 471 0154 00F4      		brsh .+2
 472 0156 00C0      		rjmp .L42
 263:robot_chat.cpp **** 		switch (axeCourrant) // cas 0,1,2  , axe des x , angle , axe des y
 473               		.stabn	68,0,263,.LM55-.LFBB7
 474               	.LM55:
 475 0158 8430      		cpi r24,lo8(4)
 476 015a 01F0      		breq .L35
 477 015c 00F4      		brsh .L40
 478 015e 8230      		cpi r24,lo8(2)
 479 0160 01F0      		breq .L33
 480 0162 00F4      		brsh .L34
 481 0164 8130      		cpi r24,lo8(1)
 482 0166 01F0      		breq .+2
 483 0168 00C0      		rjmp .L43
 484 016a 00C0      		rjmp .L32
 485               	.L40:
 486 016c 8630      		cpi r24,lo8(6)
 487 016e 01F0      		breq .L37
 488 0170 00F0      		brlo .L36
 489 0172 8730      		cpi r24,lo8(7)
 490 0174 01F0      		breq .L38
 491 0176 8830      		cpi r24,lo8(8)
 492 0178 01F4      		brne .L43
 493 017a 00C0      		rjmp .L39
 494               	.L32:
 267:robot_chat.cpp **** 				if(distance8 >80 && distance8<=140)
 495               		.stabn	68,0,267,.LM56-.LFBB7
 496               	.LM56:
 497 017c 892F      		mov r24,r25
 498 017e 8155      		subi r24,lo8(-(-81))
 499 0180 8C33      		cpi r24,lo8(60)
 500 0182 00F0      		brlo .L44
 272:robot_chat.cpp **** 				else if(distance8 <=80)
 501               		.stabn	68,0,272,.LM57-.LFBB7
 502               	.LM57:
 503 0184 9135      		cpi r25,lo8(81)
 504 0186 00F0      		brlo .L45
 505 0188 00C0      		rjmp .L43
 506               	.L33:
 281:robot_chat.cpp **** 				if(distance8 >80 && distance8<=140)
 507               		.stabn	68,0,281,.LM58-.LFBB7
 508               	.LM58:
 509 018a 892F      		mov r24,r25
 510 018c 8155      		subi r24,lo8(-(-81))
 511 018e 8C33      		cpi r24,lo8(60)
 512 0190 00F0      		brlo .L46
 286:robot_chat.cpp **** 				else if(distance8 <=80)
 513               		.stabn	68,0,286,.LM59-.LFBB7
 514               	.LM59:
 515 0192 9135      		cpi r25,lo8(81)
 516 0194 00F0      		brlo .L47
GAS LISTING /tmp/ccfQOnsU.s 			page 18


 517 0196 00C0      		rjmp .L43
 518               	.L34:
 295:robot_chat.cpp **** 				if(distance8 >80 && distance8<=140)
 519               		.stabn	68,0,295,.LM60-.LFBB7
 520               	.LM60:
 521 0198 892F      		mov r24,r25
 522 019a 8155      		subi r24,lo8(-(-81))
 523 019c 8C33      		cpi r24,lo8(60)
 524 019e 00F0      		brlo .L48
 300:robot_chat.cpp **** 				else if(distance8 <=80)
 525               		.stabn	68,0,300,.LM61-.LFBB7
 526               	.LM61:
 527 01a0 9135      		cpi r25,lo8(81)
 528 01a2 00F0      		brlo .L49
 529 01a4 00C0      		rjmp .L43
 530               	.L35:
 309:robot_chat.cpp **** 				if(distance8 >80 && distance8<=140)
 531               		.stabn	68,0,309,.LM62-.LFBB7
 532               	.LM62:
 533 01a6 892F      		mov r24,r25
 534 01a8 8155      		subi r24,lo8(-(-81))
 535 01aa 8C33      		cpi r24,lo8(60)
 536 01ac 00F0      		brlo .L50
 314:robot_chat.cpp **** 				else if(distance8 <=80)
 537               		.stabn	68,0,314,.LM63-.LFBB7
 538               	.LM63:
 539 01ae 9135      		cpi r25,lo8(81)
 540 01b0 00F0      		brlo .L51
 541 01b2 00C0      		rjmp .L43
 542               	.L36:
 323:robot_chat.cpp **** 				if(distance8 <=140 && distance8 > 90)
 543               		.stabn	68,0,323,.LM64-.LFBB7
 544               	.LM64:
 545 01b4 892F      		mov r24,r25
 546 01b6 8B55      		subi r24,lo8(-(-91))
 547 01b8 8233      		cpi r24,lo8(50)
 548 01ba 00F0      		brlo .L52
 328:robot_chat.cpp **** 				else if(distance8<=90)
 549               		.stabn	68,0,328,.LM65-.LFBB7
 550               	.LM65:
 551 01bc 9B35      		cpi r25,lo8(91)
 552 01be 00F0      		brlo .L53
 553 01c0 00C0      		rjmp .L43
 554               	.L37:
 337:robot_chat.cpp **** 				if(distance8 <=140 && distance8 > 90)
 555               		.stabn	68,0,337,.LM66-.LFBB7
 556               	.LM66:
 557 01c2 892F      		mov r24,r25
 558 01c4 8B55      		subi r24,lo8(-(-91))
 559 01c6 8233      		cpi r24,lo8(50)
 560 01c8 00F0      		brlo .L54
 342:robot_chat.cpp **** 				else if(distance8<=90)
 561               		.stabn	68,0,342,.LM67-.LFBB7
 562               	.LM67:
 563 01ca 9B35      		cpi r25,lo8(91)
 564 01cc 00F0      		brlo .L55
 565 01ce 00C0      		rjmp .L43
GAS LISTING /tmp/ccfQOnsU.s 			page 19


 566               	.L38:
 351:robot_chat.cpp **** 				if(distance8 <=140 && distance8 > 90)
 567               		.stabn	68,0,351,.LM68-.LFBB7
 568               	.LM68:
 569 01d0 892F      		mov r24,r25
 570 01d2 8B55      		subi r24,lo8(-(-91))
 571 01d4 8233      		cpi r24,lo8(50)
 572 01d6 00F0      		brlo .L56
 356:robot_chat.cpp **** 				else if(distance8<=90)
 573               		.stabn	68,0,356,.LM69-.LFBB7
 574               	.LM69:
 575 01d8 9B35      		cpi r25,lo8(91)
 576 01da 00F0      		brlo .L57
 577 01dc 00C0      		rjmp .L43
 578               	.L39:
 365:robot_chat.cpp **** 				if(distance8 <=140 && distance8 > 90)
 579               		.stabn	68,0,365,.LM70-.LFBB7
 580               	.LM70:
 581 01de 892F      		mov r24,r25
 582 01e0 8B55      		subi r24,lo8(-(-91))
 583 01e2 8233      		cpi r24,lo8(50)
 584 01e4 00F0      		brlo .L58
 370:robot_chat.cpp **** 				else if(distance8<=90)
 585               		.stabn	68,0,370,.LM71-.LFBB7
 586               	.LM71:
 587 01e6 9B35      		cpi r25,lo8(91)
 588 01e8 00F4      		brsh .L43
 373:robot_chat.cpp **** 					axe_y=2;
 589               		.stabn	68,0,373,.LM72-.LFBB7
 590               	.LM72:
 591 01ea 82E0      		ldi r24,lo8(2)
 592 01ec 00C0      		rjmp .L62
 593               	.L42:
 383:robot_chat.cpp **** 		axe_y = 4;
 594               		.stabn	68,0,383,.LM73-.LFBB7
 595               	.LM73:
 596 01ee 84E0      		ldi r24,lo8(4)
 382:robot_chat.cpp **** 		axe_x = 4;
 597               		.stabn	68,0,382,.LM74-.LFBB7
 598               	.LM74:
 599 01f0 94E0      		ldi r25,lo8(4)
 600 01f2 00C0      		rjmp .L31
 601               	.L43:
 259:robot_chat.cpp **** 	int8_t axe_y = 0;
 602               		.stabn	68,0,259,.LM75-.LFBB7
 603               	.LM75:
 604 01f4 80E0      		ldi r24,0
 605 01f6 00C0      		rjmp .L60
 606               	.L44:
 270:robot_chat.cpp **** 					axe_y=2;
 607               		.stabn	68,0,270,.LM76-.LFBB7
 608               	.LM76:
 609 01f8 82E0      		ldi r24,lo8(2)
 610 01fa 00C0      		rjmp .L60
 611               	.L45:
 275:robot_chat.cpp **** 					axe_y=3;
 612               		.stabn	68,0,275,.LM77-.LFBB7
GAS LISTING /tmp/ccfQOnsU.s 			page 20


 613               	.LM77:
 614 01fc 83E0      		ldi r24,lo8(3)
 615 01fe 00C0      		rjmp .L60
 616               	.L46:
 284:robot_chat.cpp **** 					axe_y=0;
 617               		.stabn	68,0,284,.LM78-.LFBB7
 618               	.LM78:
 619 0200 80E0      		ldi r24,0
 620 0202 00C0      		rjmp .L61
 621               	.L47:
 289:robot_chat.cpp **** 					axe_y=0;
 622               		.stabn	68,0,289,.LM79-.LFBB7
 623               	.LM79:
 624 0204 80E0      		ldi r24,0
 288:robot_chat.cpp **** 					axe_x=3;
 625               		.stabn	68,0,288,.LM80-.LFBB7
 626               	.LM80:
 627 0206 93E0      		ldi r25,lo8(3)
 628 0208 00C0      		rjmp .L31
 629               	.L48:
 298:robot_chat.cpp **** 					axe_y=-2;
 630               		.stabn	68,0,298,.LM81-.LFBB7
 631               	.LM81:
 632 020a 8EEF      		ldi r24,lo8(-2)
 633 020c 00C0      		rjmp .L60
 634               	.L49:
 303:robot_chat.cpp **** 					axe_y=-3;
 635               		.stabn	68,0,303,.LM82-.LFBB7
 636               	.LM82:
 637 020e 8DEF      		ldi r24,lo8(-3)
 638               	.L60:
 302:robot_chat.cpp **** 					axe_x=0;
 639               		.stabn	68,0,302,.LM83-.LFBB7
 640               	.LM83:
 641 0210 90E0      		ldi r25,0
 642 0212 00C0      		rjmp .L31
 643               	.L50:
 312:robot_chat.cpp **** 					axe_y=0;
 644               		.stabn	68,0,312,.LM84-.LFBB7
 645               	.LM84:
 646 0214 80E0      		ldi r24,0
 647 0216 00C0      		rjmp .L62
 648               	.L51:
 317:robot_chat.cpp **** 					axe_y=0;
 649               		.stabn	68,0,317,.LM85-.LFBB7
 650               	.LM85:
 651 0218 80E0      		ldi r24,0
 316:robot_chat.cpp **** 					axe_x=-3;
 652               		.stabn	68,0,316,.LM86-.LFBB7
 653               	.LM86:
 654 021a 9DEF      		ldi r25,lo8(-3)
 655 021c 00C0      		rjmp .L31
 656               	.L52:
 326:robot_chat.cpp **** 					axe_y=1;
 657               		.stabn	68,0,326,.LM87-.LFBB7
 658               	.LM87:
 659 021e 81E0      		ldi r24,lo8(1)
GAS LISTING /tmp/ccfQOnsU.s 			page 21


 660 0220 00C0      		rjmp .L63
 661               	.L53:
 331:robot_chat.cpp **** 					axe_y=2;
 662               		.stabn	68,0,331,.LM88-.LFBB7
 663               	.LM88:
 664 0222 82E0      		ldi r24,lo8(2)
 665 0224 00C0      		rjmp .L61
 666               	.L54:
 340:robot_chat.cpp **** 					axe_y=-1;
 667               		.stabn	68,0,340,.LM89-.LFBB7
 668               	.LM89:
 669 0226 8FEF      		ldi r24,lo8(-1)
 670               	.L63:
 339:robot_chat.cpp **** 					axe_x=1;
 671               		.stabn	68,0,339,.LM90-.LFBB7
 672               	.LM90:
 673 0228 91E0      		ldi r25,lo8(1)
 674 022a 00C0      		rjmp .L31
 675               	.L55:
 345:robot_chat.cpp **** 					axe_y=-2;
 676               		.stabn	68,0,345,.LM91-.LFBB7
 677               	.LM91:
 678 022c 8EEF      		ldi r24,lo8(-2)
 679               	.L61:
 344:robot_chat.cpp **** 					axe_x=2;
 680               		.stabn	68,0,344,.LM92-.LFBB7
 681               	.LM92:
 682 022e 92E0      		ldi r25,lo8(2)
 683 0230 00C0      		rjmp .L31
 684               	.L56:
 354:robot_chat.cpp **** 					axe_y=-1;
 685               		.stabn	68,0,354,.LM93-.LFBB7
 686               	.LM93:
 687 0232 8FEF      		ldi r24,lo8(-1)
 688 0234 00C0      		rjmp .L59
 689               	.L57:
 359:robot_chat.cpp **** 					axe_y=-2;
 690               		.stabn	68,0,359,.LM94-.LFBB7
 691               	.LM94:
 692 0236 8EEF      		ldi r24,lo8(-2)
 693               	.L62:
 358:robot_chat.cpp **** 					axe_x=-2;
 694               		.stabn	68,0,358,.LM95-.LFBB7
 695               	.LM95:
 696 0238 9EEF      		ldi r25,lo8(-2)
 697 023a 00C0      		rjmp .L31
 698               	.L58:
 368:robot_chat.cpp **** 					axe_y=1;
 699               		.stabn	68,0,368,.LM96-.LFBB7
 700               	.LM96:
 701 023c 81E0      		ldi r24,lo8(1)
 702               	.L59:
 367:robot_chat.cpp **** 					axe_x=-1;
 703               		.stabn	68,0,367,.LM97-.LFBB7
 704               	.LM97:
 705 023e 9FEF      		ldi r25,lo8(-1)
 706               	.L31:
GAS LISTING /tmp/ccfQOnsU.s 			page 22


 386:robot_chat.cpp **** 	positionRalativeX = axe_x;
 707               		.stabn	68,0,386,.LM98-.LFBB7
 708               	.LM98:
 709 0240 9093 0000 		sts positionRalativeX,r25
 387:robot_chat.cpp **** 	positionRalativeY = axe_y;
 710               		.stabn	68,0,387,.LM99-.LFBB7
 711               	.LM99:
 712 0244 8093 0000 		sts positionRalativeY,r24
 713 0248 0895      		ret
 714               	.LBE31:
 715               		.size	_Z23ajusterPositionRelativeh, .-_Z23ajusterPositionRelativeh
 716               		.stabs	"axe_x:r(0,28)",64,0,258,25
 717               		.stabs	"axe_y:r(0,28)",64,0,259,24
 718               		.stabn	192,0,0,.LBB31-.LFBB7
 719               		.stabn	224,0,0,.LBE31-.LFBB7
 720               	.Lscope7:
 721               		.stabs	"",36,0,0,.Lscope7-.LFBB7
 722               		.stabd	78,0,0
 723               		.stabs	"_Z18ajusterOrientationb:F(0,4)",36,0,391,_Z18ajusterOrientationb
 724               		.stabs	"gauche:P(0,24)",64,0,391,24
 725               	.global	_Z18ajusterOrientationb
 726               		.type	_Z18ajusterOrientationb, @function
 727               	_Z18ajusterOrientationb:
 728               		.stabd	46,0,0
 392:robot_chat.cpp **** {
 729               		.stabn	68,0,392,.LM100-.LFBB8
 730               	.LM100:
 731               	.LFBB8:
 732               	/* prologue: function */
 733               	/* frame size = 0 */
 734               	/* stack size = 0 */
 735               	.L__stack_usage = 0
 393:robot_chat.cpp **** 	if(gauche)
 736               		.stabn	68,0,393,.LM101-.LFBB8
 737               	.LM101:
 738 024a 8111      		cpse r24,__zero_reg__
 739 024c 0C94 0000 		jmp _Z18ajusterOrientationb.part.2
 740               	.L65:
 398:robot_chat.cpp **** 	}
 399:robot_chat.cpp **** 	else
 400:robot_chat.cpp **** 	{
 401:robot_chat.cpp **** 		directionCourrante++;
 741               		.stabn	68,0,401,.LM102-.LFBB8
 742               	.LM102:
 743 0250 8091 0000 		lds r24,directionCourrante
 744 0254 8F5F      		subi r24,lo8(-(1))
 402:robot_chat.cpp **** 		if(directionCourrante == 5)
 745               		.stabn	68,0,402,.LM103-.LFBB8
 746               	.LM103:
 747 0256 8530      		cpi r24,lo8(5)
 748 0258 01F0      		breq .L66
 749 025a 00C0      		rjmp .L68
 750               	.L66:
 403:robot_chat.cpp **** 			directionCourrante = 1;
 751               		.stabn	68,0,403,.LM104-.LFBB8
 752               	.LM104:
 753 025c 81E0      		ldi r24,lo8(1)
GAS LISTING /tmp/ccfQOnsU.s 			page 23


 754               	.L68:
 755 025e 8093 0000 		sts directionCourrante,r24
 756 0262 0895      		ret
 757               		.size	_Z18ajusterOrientationb, .-_Z18ajusterOrientationb
 758               	.Lscope8:
 759               		.stabs	"",36,0,0,.Lscope8-.LFBB8
 760               		.stabd	78,0,0
 761               		.stabs	"_Z15ajusterFranchiev:F(0,4)",36,0,407,_Z15ajusterFranchiev
 762               	.global	_Z15ajusterFranchiev
 763               		.type	_Z15ajusterFranchiev, @function
 764               	_Z15ajusterFranchiev:
 765               		.stabd	46,0,0
 404:robot_chat.cpp **** 	}
 405:robot_chat.cpp **** }
 406:robot_chat.cpp **** 
 407:robot_chat.cpp **** void ajusterFranchie()//Ajuste les variables de franchissement
 408:robot_chat.cpp **** {
 766               		.stabn	68,0,408,.LM105-.LFBB9
 767               	.LM105:
 768               	.LFBB9:
 769               	/* prologue: function */
 770               	/* frame size = 0 */
 771               	/* stack size = 0 */
 772               	.L__stack_usage = 0
 409:robot_chat.cpp **** 	if(capteurGauche())
 773               		.stabn	68,0,409,.LM106-.LFBB9
 774               	.LM106:
 775 0264 0E94 0000 		call _Z13capteurGauchev
 776 0268 8823      		tst r24
 777 026a 01F0      		breq .L70
 410:robot_chat.cpp **** 		franchieGauche = true;
 778               		.stabn	68,0,410,.LM107-.LFBB9
 779               	.LM107:
 780 026c 81E0      		ldi r24,lo8(1)
 781 026e 8093 0000 		sts franchieGauche,r24
 782               	.L70:
 411:robot_chat.cpp **** 	if(capteurMilieu())
 783               		.stabn	68,0,411,.LM108-.LFBB9
 784               	.LM108:
 785 0272 0E94 0000 		call _Z13capteurMilieuv
 786 0276 8823      		tst r24
 787 0278 01F0      		breq .L71
 412:robot_chat.cpp **** 		franchieMilieu = true;
 788               		.stabn	68,0,412,.LM109-.LFBB9
 789               	.LM109:
 790 027a 81E0      		ldi r24,lo8(1)
 791 027c 8093 0000 		sts franchieMilieu,r24
 792               	.L71:
 413:robot_chat.cpp **** 	if(capteurDroit())
 793               		.stabn	68,0,413,.LM110-.LFBB9
 794               	.LM110:
 795 0280 0E94 0000 		call _Z12capteurDroitv
 796 0284 8823      		tst r24
 797 0286 01F0      		breq .L69
 414:robot_chat.cpp **** 		franchieDroite = true;
 798               		.stabn	68,0,414,.LM111-.LFBB9
 799               	.LM111:
GAS LISTING /tmp/ccfQOnsU.s 			page 24


 800 0288 81E0      		ldi r24,lo8(1)
 801 028a 8093 0000 		sts franchieDroite,r24
 802               	.L69:
 803 028e 0895      		ret
 804               		.size	_Z15ajusterFranchiev, .-_Z15ajusterFranchiev
 805               	.Lscope9:
 806               		.stabs	"",36,0,0,.Lscope9-.LFBB9
 807               		.stabd	78,0,0
 808               		.stabs	"_Z30ajusterPossibiliteIntersectionv:F(0,4)",36,0,417,_Z30ajusterPossibiliteIntersectionv
 809               	.global	_Z30ajusterPossibiliteIntersectionv
 810               		.type	_Z30ajusterPossibiliteIntersectionv, @function
 811               	_Z30ajusterPossibiliteIntersectionv:
 812               		.stabd	46,0,0
 415:robot_chat.cpp **** }
 416:robot_chat.cpp **** 
 417:robot_chat.cpp **** void ajusterPossibiliteIntersection()//Ajuste les variables de tournant possible
 418:robot_chat.cpp **** {
 813               		.stabn	68,0,418,.LM112-.LFBB10
 814               	.LM112:
 815               	.LFBB10:
 816 0290 CF93      		push r28
 817               	/* prologue: function */
 818               	/* frame size = 0 */
 819               	/* stack size = 1 */
 820               	.L__stack_usage = 1
 419:robot_chat.cpp **** 	
 420:robot_chat.cpp **** 	//La gauche et la droite sont disponible si ils le sont en même temps que le milieu
 421:robot_chat.cpp **** 	//Sauf dans les cas ou l'on est décallé du côté inverse (autrement dit, si l'on est décallé 
 422:robot_chat.cpp **** 	//	 a le capteur milieu et le capteur gauche, on ne peut rien conclure)
 423:robot_chat.cpp **** 	if(capteurMilieu() && dernierCapteurIntersection == 2)
 821               		.stabn	68,0,423,.LM113-.LFBB10
 822               	.LM113:
 823 0292 0E94 0000 		call _Z13capteurMilieuv
 824 0296 8823      		tst r24
 825 0298 01F0      		breq .L84
 826               		.stabn	68,0,423,.LM114-.LFBB10
 827               	.LM114:
 828 029a 8091 0000 		lds r24,dernierCapteurIntersection
 829 029e 8230      		cpi r24,lo8(2)
 830 02a0 01F4      		brne .L84
 831 02a2 00C0      		rjmp .L85
 832               	.L91:
 424:robot_chat.cpp **** 	{
 425:robot_chat.cpp **** 		if(capteurGauche())
 426:robot_chat.cpp **** 			gaucheExiste = true;
 833               		.stabn	68,0,426,.LM115-.LFBB10
 834               	.LM115:
 835 02a4 81E0      		ldi r24,lo8(1)
 836 02a6 8093 0000 		sts gaucheExiste,r24
 837               	.L92:
 427:robot_chat.cpp **** 		if(capteurDroit())
 838               		.stabn	68,0,427,.LM116-.LFBB10
 839               	.LM116:
 840 02aa 0E94 0000 		call _Z12capteurDroitv
 841 02ae 8823      		tst r24
 842 02b0 01F0      		breq .L84
 428:robot_chat.cpp **** 			droiteExiste = true;
GAS LISTING /tmp/ccfQOnsU.s 			page 25


 843               		.stabn	68,0,428,.LM117-.LFBB10
 844               	.LM117:
 845 02b2 81E0      		ldi r24,lo8(1)
 846 02b4 8093 0000 		sts droiteExiste,r24
 847               	.L84:
 429:robot_chat.cpp **** 	}
 430:robot_chat.cpp **** 
 431:robot_chat.cpp **** 
 432:robot_chat.cpp **** 	if(dernierCapteurIntersection == 1) //On est a droite de la ligne, puisque le dernier capteur est 
 848               		.stabn	68,0,432,.LM118-.LFBB10
 849               	.LM118:
 850 02b8 C091 0000 		lds r28,dernierCapteurIntersection
 851 02bc C130      		cpi r28,lo8(1)
 852 02be 01F4      		brne .L87
 433:robot_chat.cpp **** 	{
 434:robot_chat.cpp **** 		//Lorsqu'on est déja décallé a droite, le simple fait d'activer le capteut droit signifie que 
 435:robot_chat.cpp **** 		if(capteurDroit())
 853               		.stabn	68,0,435,.LM119-.LFBB10
 854               	.LM119:
 855 02c0 0E94 0000 		call _Z12capteurDroitv
 856 02c4 8823      		tst r24
 857 02c6 01F0      		breq .L82
 436:robot_chat.cpp **** 			droiteExiste = true;
 858               		.stabn	68,0,436,.LM120-.LFBB10
 859               	.LM120:
 860 02c8 C093 0000 		sts droiteExiste,r28
 861 02cc 00C0      		rjmp .L82
 862               	.L87:
 437:robot_chat.cpp **** 
 438:robot_chat.cpp **** 		//Pour pouvoir déterminer si le milieu existe, 
 439:robot_chat.cpp **** 	}
 440:robot_chat.cpp **** 	else if(dernierCapteurIntersection == 3)//On est a gauche de la ligne
 863               		.stabn	68,0,440,.LM121-.LFBB10
 864               	.LM121:
 865 02ce C330      		cpi r28,lo8(3)
 866 02d0 01F4      		brne .L82
 441:robot_chat.cpp **** 	{
 442:robot_chat.cpp **** 		//Lorsqu'on est déja décallé a gauche, le simple fait d'activer le capteut gauche signifie que
 443:robot_chat.cpp **** 		if(capteurGauche())
 867               		.stabn	68,0,443,.LM122-.LFBB10
 868               	.LM122:
 869 02d2 0E94 0000 		call _Z13capteurGauchev
 870 02d6 8823      		tst r24
 871 02d8 01F0      		breq .L82
 444:robot_chat.cpp **** 			gaucheExiste = true;
 872               		.stabn	68,0,444,.LM123-.LFBB10
 873               	.LM123:
 874 02da 81E0      		ldi r24,lo8(1)
 875 02dc 8093 0000 		sts gaucheExiste,r24
 876 02e0 00C0      		rjmp .L82
 877               	.L85:
 425:robot_chat.cpp **** 		if(capteurGauche())
 878               		.stabn	68,0,425,.LM124-.LFBB10
 879               	.LM124:
 880 02e2 0E94 0000 		call _Z13capteurGauchev
 881 02e6 8111      		cpse r24,__zero_reg__
 882 02e8 00C0      		rjmp .L91
GAS LISTING /tmp/ccfQOnsU.s 			page 26


 883 02ea 00C0      		rjmp .L92
 884               	.L82:
 885               	/* epilogue start */
 445:robot_chat.cpp **** 	}
 446:robot_chat.cpp **** }
 886               		.stabn	68,0,446,.LM125-.LFBB10
 887               	.LM125:
 888 02ec CF91      		pop r28
 889 02ee 0895      		ret
 890               		.size	_Z30ajusterPossibiliteIntersectionv, .-_Z30ajusterPossibiliteIntersectionv
 891               	.Lscope10:
 892               		.stabs	"",36,0,0,.Lscope10-.LFBB10
 893               		.stabd	78,0,0
 894               		.stabs	"_Z20detecterIntersectionv:F(0,24)",36,0,449,_Z20detecterIntersectionv
 895               	.global	_Z20detecterIntersectionv
 896               		.type	_Z20detecterIntersectionv, @function
 897               	_Z20detecterIntersectionv:
 898               		.stabd	46,0,0
 447:robot_chat.cpp **** 
 448:robot_chat.cpp **** 
 449:robot_chat.cpp **** bool detecterIntersection() //Return true si une intersection est trouvé
 450:robot_chat.cpp **** {
 899               		.stabn	68,0,450,.LM126-.LFBB11
 900               	.LM126:
 901               	.LFBB11:
 902               	/* prologue: function */
 903               	/* frame size = 0 */
 904               	/* stack size = 0 */
 905               	.L__stack_usage = 0
 451:robot_chat.cpp **** 	return (capteurMilieu() && (capteurGauche() || capteurDroit()));
 906               		.stabn	68,0,451,.LM127-.LFBB11
 907               	.LM127:
 908 02f0 0E94 0000 		call _Z13capteurMilieuv
 909 02f4 8823      		tst r24
 910 02f6 01F0      		breq .L101
 911               		.stabn	68,0,451,.LM128-.LFBB11
 912               	.LM128:
 913 02f8 0E94 0000 		call _Z13capteurGauchev
 914 02fc 8111      		cpse r24,__zero_reg__
 915 02fe 00C0      		rjmp .L102
 916               	.LBB34:
 917               	.LBB35:
 918               		.stabn	68,0,451,.LM129-.LFBB11
 919               	.LM129:
 920 0300 0C94 0000 		jmp _Z12capteurDroitv
 921               	.L101:
 922               	.LBE35:
 923               	.LBE34:
 924 0304 80E0      		ldi r24,0
 925 0306 0895      		ret
 926               	.L102:
 927 0308 81E0      		ldi r24,lo8(1)
 452:robot_chat.cpp **** }
 928               		.stabn	68,0,452,.LM130-.LFBB11
 929               	.LM130:
 930 030a 0895      		ret
 931               		.size	_Z20detecterIntersectionv, .-_Z20detecterIntersectionv
GAS LISTING /tmp/ccfQOnsU.s 			page 27


 932               	.Lscope11:
 933               		.stabs	"",36,0,0,.Lscope11-.LFBB11
 934               		.stabd	78,0,0
 935               		.stabs	"_Z6perduev:F(0,24)",36,0,454,_Z6perduev
 936               	.global	_Z6perduev
 937               		.type	_Z6perduev, @function
 938               	_Z6perduev:
 939               		.stabd	46,0,0
 453:robot_chat.cpp **** 
 454:robot_chat.cpp **** bool perdue()
 455:robot_chat.cpp **** {
 940               		.stabn	68,0,455,.LM131-.LFBB12
 941               	.LM131:
 942               	.LFBB12:
 943               	/* prologue: function */
 944               	/* frame size = 0 */
 945               	/* stack size = 0 */
 946               	.L__stack_usage = 0
 456:robot_chat.cpp **** 	return (!capteurDroit() && !capteurMilieu() && !capteurGauche());
 947               		.stabn	68,0,456,.LM132-.LFBB12
 948               	.LM132:
 949 030c 0E94 0000 		call _Z12capteurDroitv
 950 0310 8823      		tst r24
 951 0312 01F0      		breq .L104
 952               	.L106:
 953 0314 90E0      		ldi r25,0
 954 0316 00C0      		rjmp .L105
 955               	.L104:
 956               		.stabn	68,0,456,.LM133-.LFBB12
 957               	.LM133:
 958 0318 0E94 0000 		call _Z13capteurMilieuv
 959 031c 8111      		cpse r24,__zero_reg__
 960 031e 00C0      		rjmp .L106
 961               	.LBB38:
 962               	.LBB39:
 963               		.stabn	68,0,456,.LM134-.LFBB12
 964               	.LM134:
 965 0320 0E94 0000 		call _Z13capteurGauchev
 966 0324 91E0      		ldi r25,lo8(1)
 967 0326 9827      		eor r25,r24
 968               	.L105:
 969               	.LBE39:
 970               	.LBE38:
 457:robot_chat.cpp **** }
 971               		.stabn	68,0,457,.LM135-.LFBB12
 972               	.LM135:
 973 0328 892F      		mov r24,r25
 974 032a 0895      		ret
 975               		.size	_Z6perduev, .-_Z6perduev
 976               	.Lscope12:
 977               		.stabs	"",36,0,0,.Lscope12-.LFBB12
 978               		.stabd	78,0,0
 979               		.stabs	"_Z21tomberEnModeDetectionv:F(0,4)",36,0,459,_Z21tomberEnModeDetectionv
 980               	.global	_Z21tomberEnModeDetectionv
 981               		.type	_Z21tomberEnModeDetectionv, @function
 982               	_Z21tomberEnModeDetectionv:
 983               		.stabd	46,0,0
GAS LISTING /tmp/ccfQOnsU.s 			page 28


 458:robot_chat.cpp **** 
 459:robot_chat.cpp **** void tomberEnModeDetection()
 460:robot_chat.cpp **** {
 984               		.stabn	68,0,460,.LM136-.LFBB13
 985               	.LM136:
 986               	.LFBB13:
 987               	/* prologue: function */
 988               	/* frame size = 0 */
 989               	/* stack size = 0 */
 990               	.L__stack_usage = 0
 461:robot_chat.cpp **** 	modeDetection = true;
 991               		.stabn	68,0,461,.LM137-.LFBB13
 992               	.LM137:
 993 032c 81E0      		ldi r24,lo8(1)
 994 032e 8093 0000 		sts modeDetection,r24
 462:robot_chat.cpp **** 	modeLigneDroite = false;
 995               		.stabn	68,0,462,.LM138-.LFBB13
 996               	.LM138:
 997 0332 1092 0000 		sts modeLigneDroite,__zero_reg__
 463:robot_chat.cpp **** 
 464:robot_chat.cpp **** 	varianceVitesseVirageDetection = 0;
 998               		.stabn	68,0,464,.LM139-.LFBB13
 999               	.LM139:
 1000 0336 1092 0000 		sts varianceVitesseVirageDetection,__zero_reg__
 465:robot_chat.cpp **** 	directionInitialeDetection = directionCourrante;
 1001               		.stabn	68,0,465,.LM140-.LFBB13
 1002               	.LM140:
 1003 033a 8091 0000 		lds r24,directionCourrante
 1004 033e 8093 0000 		sts directionInitialeDetection,r24
 1005 0342 0895      		ret
 1006               		.size	_Z21tomberEnModeDetectionv, .-_Z21tomberEnModeDetectionv
 1007               	.Lscope13:
 1008               		.stabs	"",36,0,0,.Lscope13-.LFBB13
 1009               		.stabd	78,0,0
 1010               		.stabs	"_Z37tomberEnModerDetecterTypeIntersectionb:F(0,4)",36,0,468,_Z37tomberEnModerDetecterTypeI
 1011               		.stabs	"force:P(0,24)",64,0,468,24
 1012               	.global	_Z37tomberEnModerDetecterTypeIntersectionb
 1013               		.type	_Z37tomberEnModerDetecterTypeIntersectionb, @function
 1014               	_Z37tomberEnModerDetecterTypeIntersectionb:
 1015               		.stabd	46,0,0
 466:robot_chat.cpp **** }
 467:robot_chat.cpp **** 
 468:robot_chat.cpp **** void tomberEnModerDetecterTypeIntersection(bool force) //bool force, détermine si on est en détec
 469:robot_chat.cpp **** {
 1016               		.stabn	68,0,469,.LM141-.LFBB14
 1017               	.LM141:
 1018               	.LFBB14:
 1019               	/* prologue: function */
 1020               	/* frame size = 0 */
 1021               	/* stack size = 0 */
 1022               	.L__stack_usage = 0
 470:robot_chat.cpp **** 	virageForce = force;
 1023               		.stabn	68,0,470,.LM142-.LFBB14
 1024               	.LM142:
 1025 0344 8093 0000 		sts virageForce,r24
 471:robot_chat.cpp **** 	tempsDepuisIntersection = 0;
 1026               		.stabn	68,0,471,.LM143-.LFBB14
GAS LISTING /tmp/ccfQOnsU.s 			page 29


 1027               	.LM143:
 1028 0348 1092 0000 		sts tempsDepuisIntersection+1,__zero_reg__
 1029 034c 1092 0000 		sts tempsDepuisIntersection,__zero_reg__
 472:robot_chat.cpp **** 	tempsLigneDroiteActive = 0;
 1030               		.stabn	68,0,472,.LM144-.LFBB14
 1031               	.LM144:
 1032 0350 1092 0000 		sts tempsLigneDroiteActive+1,__zero_reg__
 1033 0354 1092 0000 		sts tempsLigneDroiteActive,__zero_reg__
 473:robot_chat.cpp **** 	tempsLigneDroiteDepuisIntersection = 0;
 1034               		.stabn	68,0,473,.LM145-.LFBB14
 1035               	.LM145:
 1036 0358 1092 0000 		sts tempsLigneDroiteDepuisIntersection+1,__zero_reg__
 1037 035c 1092 0000 		sts tempsLigneDroiteDepuisIntersection,__zero_reg__
 474:robot_chat.cpp **** 	tempsActifSansCapteur = 0;
 1038               		.stabn	68,0,474,.LM146-.LFBB14
 1039               	.LM146:
 1040 0360 1092 0000 		sts tempsActifSansCapteur+1,__zero_reg__
 1041 0364 1092 0000 		sts tempsActifSansCapteur,__zero_reg__
 475:robot_chat.cpp **** 	varianceVitesseVirage = 0;
 1042               		.stabn	68,0,475,.LM147-.LFBB14
 1043               	.LM147:
 1044 0368 1092 0000 		sts varianceVitesseVirage,__zero_reg__
 476:robot_chat.cpp **** 	
 477:robot_chat.cpp **** 	//Changer en mode Trouver intersection
 478:robot_chat.cpp **** 	modeLigneDroite = false;
 1045               		.stabn	68,0,478,.LM148-.LFBB14
 1046               	.LM148:
 1047 036c 1092 0000 		sts modeLigneDroite,__zero_reg__
 479:robot_chat.cpp **** 	modeIntersection = true;
 1048               		.stabn	68,0,479,.LM149-.LFBB14
 1049               	.LM149:
 1050 0370 81E0      		ldi r24,lo8(1)
 1051 0372 8093 0000 		sts modeIntersection,r24
 480:robot_chat.cpp **** 
 481:robot_chat.cpp **** 	franchieGauche = false;
 1052               		.stabn	68,0,481,.LM150-.LFBB14
 1053               	.LM150:
 1054 0376 1092 0000 		sts franchieGauche,__zero_reg__
 482:robot_chat.cpp **** 	franchieMilieu = false;
 1055               		.stabn	68,0,482,.LM151-.LFBB14
 1056               	.LM151:
 1057 037a 1092 0000 		sts franchieMilieu,__zero_reg__
 483:robot_chat.cpp **** 	franchieDroite = false;
 1058               		.stabn	68,0,483,.LM152-.LFBB14
 1059               	.LM152:
 1060 037e 1092 0000 		sts franchieDroite,__zero_reg__
 484:robot_chat.cpp **** 
 485:robot_chat.cpp **** 	gaucheExiste = false;
 1061               		.stabn	68,0,485,.LM153-.LFBB14
 1062               	.LM153:
 1063 0382 1092 0000 		sts gaucheExiste,__zero_reg__
 486:robot_chat.cpp **** 	droiteExiste = false;
 1064               		.stabn	68,0,486,.LM154-.LFBB14
 1065               	.LM154:
 1066 0386 1092 0000 		sts droiteExiste,__zero_reg__
 487:robot_chat.cpp **** 	milieuExiste = false;
 1067               		.stabn	68,0,487,.LM155-.LFBB14
GAS LISTING /tmp/ccfQOnsU.s 			page 30


 1068               	.LM155:
 1069 038a 1092 0000 		sts milieuExiste,__zero_reg__
 488:robot_chat.cpp **** 
 489:robot_chat.cpp **** 	tempsIntersection = 0;
 1070               		.stabn	68,0,489,.LM156-.LFBB14
 1071               	.LM156:
 1072 038e 1092 0000 		sts tempsIntersection+1,__zero_reg__
 1073 0392 1092 0000 		sts tempsIntersection,__zero_reg__
 490:robot_chat.cpp **** 	tempsActif = 0;
 1074               		.stabn	68,0,490,.LM157-.LFBB14
 1075               	.LM157:
 1076 0396 1092 0000 		sts tempsActif+1,__zero_reg__
 1077 039a 1092 0000 		sts tempsActif,__zero_reg__
 491:robot_chat.cpp **** 	dernierCapteurIntersection = dernierCapteur;
 1078               		.stabn	68,0,491,.LM158-.LFBB14
 1079               	.LM158:
 1080 039e 8091 0000 		lds r24,dernierCapteur
 1081 03a2 8093 0000 		sts dernierCapteurIntersection,r24
 1082 03a6 0895      		ret
 1083               		.size	_Z37tomberEnModerDetecterTypeIntersectionb, .-_Z37tomberEnModerDetecterTypeIntersectionb
 1084               	.Lscope14:
 1085               		.stabs	"",36,0,0,.Lscope14-.LFBB14
 1086               		.stabd	78,0,0
 1087               		.stabs	"_Z26determinerTypeIntersectionv:F(0,24)",36,0,494,_Z26determinerTypeIntersectionv
 1088               	.global	_Z26determinerTypeIntersectionv
 1089               		.type	_Z26determinerTypeIntersectionv, @function
 1090               	_Z26determinerTypeIntersectionv:
 1091               		.stabd	46,0,0
 492:robot_chat.cpp **** }
 493:robot_chat.cpp **** 
 494:robot_chat.cpp **** bool determinerTypeIntersection() //return true si le type est trouvé, false sinon
 495:robot_chat.cpp **** {
 1092               		.stabn	68,0,495,.LM159-.LFBB15
 1093               	.LM159:
 1094               	.LFBB15:
 1095               	/* prologue: function */
 1096               	/* frame size = 0 */
 1097               	/* stack size = 0 */
 1098               	.L__stack_usage = 0
 496:robot_chat.cpp **** 	if(milieuExiste && modeFoncer) //Si on est en mode foncer et que le milieu existe on choisit le mi
 1099               		.stabn	68,0,496,.LM160-.LFBB15
 1100               	.LM160:
 1101 03a8 8091 0000 		lds r24,milieuExiste
 1102 03ac 8823      		tst r24
 1103 03ae 01F0      		breq .L110
 1104               		.stabn	68,0,496,.LM161-.LFBB15
 1105               	.LM161:
 1106 03b0 8091 0000 		lds r24,modeFoncer
 1107 03b4 8823      		tst r24
 1108 03b6 01F0      		breq .L110
 497:robot_chat.cpp **** 	{
 498:robot_chat.cpp **** 		droiteExiste = false;
 1109               		.stabn	68,0,498,.LM162-.LFBB15
 1110               	.LM162:
 1111 03b8 1092 0000 		sts droiteExiste,__zero_reg__
 499:robot_chat.cpp **** 		gaucheExiste = false;
 1112               		.stabn	68,0,499,.LM163-.LFBB15
GAS LISTING /tmp/ccfQOnsU.s 			page 31


 1113               	.LM163:
 1114 03bc 1092 0000 		sts gaucheExiste,__zero_reg__
 1115 03c0 00C0      		rjmp .L145
 1116               	.L110:
 500:robot_chat.cpp **** 		return true;
 501:robot_chat.cpp **** 	}
 502:robot_chat.cpp **** 
 503:robot_chat.cpp **** 	//Vérifier si on passe en mode detecter intersection normale
 504:robot_chat.cpp **** 	if(virageForce && detecterIntersection()) //Dans quel cas, on retourne en mode detecter intersecti
 1117               		.stabn	68,0,504,.LM164-.LFBB15
 1118               	.LM164:
 1119 03c2 8091 0000 		lds r24,virageForce
 1120 03c6 8823      		tst r24
 1121 03c8 01F0      		breq .L120
 1122               		.stabn	68,0,504,.LM165-.LFBB15
 1123               	.LM165:
 1124 03ca 0E94 0000 		call _Z20detecterIntersectionv
 1125 03ce 8111      		cpse r24,__zero_reg__
 1126 03d0 00C0      		rjmp .L113
 1127               	.L120:
 505:robot_chat.cpp **** 	{
 506:robot_chat.cpp **** 		//Reseter la détection d'intersection
 507:robot_chat.cpp **** 		tomberEnModerDetecterTypeIntersection(false);		
 508:robot_chat.cpp **** 	}
 509:robot_chat.cpp **** 
 510:robot_chat.cpp **** 	tempsIntersection += 10;
 1128               		.stabn	68,0,510,.LM166-.LFBB15
 1129               	.LM166:
 1130 03d2 8091 0000 		lds r24,tempsIntersection
 1131 03d6 9091 0000 		lds r25,tempsIntersection+1
 1132 03da 0A96      		adiw r24,10
 1133 03dc 9093 0000 		sts tempsIntersection+1,r25
 1134 03e0 8093 0000 		sts tempsIntersection,r24
 511:robot_chat.cpp **** 	if(!perdue())	//Si au moins 1 capteurs actif augmenter le temps actif
 1135               		.stabn	68,0,511,.LM167-.LFBB15
 1136               	.LM167:
 1137 03e4 0E94 0000 		call _Z6perduev
 1138 03e8 8111      		cpse r24,__zero_reg__
 1139 03ea 00C0      		rjmp .L114
 512:robot_chat.cpp **** 		tempsActif +=10;
 1140               		.stabn	68,0,512,.LM168-.LFBB15
 1141               	.LM168:
 1142 03ec 8091 0000 		lds r24,tempsActif
 1143 03f0 9091 0000 		lds r25,tempsActif+1
 1144 03f4 0A96      		adiw r24,10
 1145 03f6 9093 0000 		sts tempsActif+1,r25
 1146 03fa 8093 0000 		sts tempsActif,r24
 1147               	.L114:
 513:robot_chat.cpp **** 
 514:robot_chat.cpp **** 	if(tempsActif >= seuilTempsActifToutDroit)
 1148               		.stabn	68,0,514,.LM169-.LFBB15
 1149               	.LM169:
 1150 03fe 2091 0000 		lds r18,tempsActif
 1151 0402 3091 0000 		lds r19,tempsActif+1
 1152 0406 8091 0000 		lds r24,seuilTempsActifToutDroit
 1153 040a 9091 0000 		lds r25,seuilTempsActifToutDroit+1
 1154 040e 2817      		cp r18,r24
GAS LISTING /tmp/ccfQOnsU.s 			page 32


 1155 0410 3907      		cpc r19,r25
 1156 0412 00F0      		brlo .L115
 515:robot_chat.cpp **** 		milieuExiste = true;
 1157               		.stabn	68,0,515,.LM170-.LFBB15
 1158               	.LM170:
 1159 0414 81E0      		ldi r24,lo8(1)
 1160 0416 8093 0000 		sts milieuExiste,r24
 1161               	.L115:
 516:robot_chat.cpp **** 
 517:robot_chat.cpp **** 	//Si au moins la moitié du temps a été passé, qu'on est en virage forcé, qu'aucun capteur est
 518:robot_chat.cpp **** 	//prendre une décision tout de suite
 519:robot_chat.cpp **** 	if(perdue() && tempsActif < 120 && tempsIntersection > tempsIntersectionMax>>1 && virageForce)
 1162               		.stabn	68,0,519,.LM171-.LFBB15
 1163               	.LM171:
 1164 041a 0E94 0000 		call _Z6perduev
 1165 041e 4091 0000 		lds r20,tempsIntersection
 1166 0422 5091 0000 		lds r21,tempsIntersection+1
 1167 0426 2091 0000 		lds r18,tempsIntersectionMax
 1168 042a 3091 0000 		lds r19,tempsIntersectionMax+1
 1169 042e 8823      		tst r24
 1170 0430 01F0      		breq .L116
 1171               		.stabn	68,0,519,.LM172-.LFBB15
 1172               	.LM172:
 1173 0432 8091 0000 		lds r24,tempsActif
 1174 0436 9091 0000 		lds r25,tempsActif+1
 1175 043a 8837      		cpi r24,120
 1176 043c 9105      		cpc r25,__zero_reg__
 1177 043e 00F4      		brsh .L116
 1178               		.stabn	68,0,519,.LM173-.LFBB15
 1179               	.LM173:
 1180 0440 C901      		movw r24,r18
 1181 0442 9695      		lsr r25
 1182 0444 8795      		ror r24
 1183 0446 8417      		cp r24,r20
 1184 0448 9507      		cpc r25,r21
 1185 044a 00F4      		brsh .L116
 1186               		.stabn	68,0,519,.LM174-.LFBB15
 1187               	.LM174:
 1188 044c 8091 0000 		lds r24,virageForce
 1189 0450 8111      		cpse r24,__zero_reg__
 1190 0452 00C0      		rjmp .L117
 1191 0454 00C0      		rjmp .L116
 1192               	.L121:
 520:robot_chat.cpp **** 	{
 521:robot_chat.cpp **** 		//Ici on recule peu importe, étant donné qu'aucune intersection n'a été détecté, sans quoi 
 522:robot_chat.cpp **** 		franchieDroite = false;
 523:robot_chat.cpp **** 		franchieGauche = false;
 524:robot_chat.cpp **** 		franchieMilieu = false;
 525:robot_chat.cpp **** 		return true;
 526:robot_chat.cpp **** 	}
 527:robot_chat.cpp **** 
 528:robot_chat.cpp **** 	if(tempsIntersection >= tempsIntersectionMax) //Le temps est écoulé, prendre une decision
 529:robot_chat.cpp **** 	{
 530:robot_chat.cpp **** 
 531:robot_chat.cpp **** 		if(!franchieDroite)
 1193               		.stabn	68,0,531,.LM175-.LFBB15
 1194               	.LM175:
GAS LISTING /tmp/ccfQOnsU.s 			page 33


 1195 0456 8091 0000 		lds r24,franchieDroite
 1196 045a 8111      		cpse r24,__zero_reg__
 1197 045c 00C0      		rjmp .L118
 532:robot_chat.cpp **** 		{	
 533:robot_chat.cpp **** 			droiteExiste = false;
 1198               		.stabn	68,0,533,.LM176-.LFBB15
 1199               	.LM176:
 1200 045e 1092 0000 		sts droiteExiste,__zero_reg__
 534:robot_chat.cpp **** 			gaucheExiste = true;
 1201               		.stabn	68,0,534,.LM177-.LFBB15
 1202               	.LM177:
 1203 0462 81E0      		ldi r24,lo8(1)
 1204 0464 8093 0000 		sts gaucheExiste,r24
 1205 0468 0895      		ret
 1206               	.L118:
 535:robot_chat.cpp **** 		}
 536:robot_chat.cpp **** 		else if(!franchieGauche)
 1207               		.stabn	68,0,536,.LM178-.LFBB15
 1208               	.LM178:
 1209 046a 8091 0000 		lds r24,franchieGauche
 1210 046e 8111      		cpse r24,__zero_reg__
 1211 0470 00C0      		rjmp .L145
 537:robot_chat.cpp **** 		{	
 538:robot_chat.cpp **** 			droiteExiste = true;
 1212               		.stabn	68,0,538,.LM179-.LFBB15
 1213               	.LM179:
 1214 0472 81E0      		ldi r24,lo8(1)
 1215 0474 8093 0000 		sts droiteExiste,r24
 539:robot_chat.cpp **** 			gaucheExiste = false;
 1216               		.stabn	68,0,539,.LM180-.LFBB15
 1217               	.LM180:
 1218 0478 1092 0000 		sts gaucheExiste,__zero_reg__
 1219 047c 0895      		ret
 1220               	.L144:
 540:robot_chat.cpp **** 		}
 541:robot_chat.cpp **** 
 542:robot_chat.cpp **** 		return true;
 543:robot_chat.cpp **** 	}
 544:robot_chat.cpp **** 
 545:robot_chat.cpp **** 	if(gaucheExiste && milieuExiste && droiteExiste)//Si tous le type d'intersection sont permis, arr
 1221               		.stabn	68,0,545,.LM181-.LFBB15
 1222               	.LM181:
 1223 047e 8091 0000 		lds r24,gaucheExiste
 1224 0482 8823      		tst r24
 1225 0484 01F0      		breq .L119
 1226               		.stabn	68,0,545,.LM182-.LFBB15
 1227               	.LM182:
 1228 0486 8091 0000 		lds r24,milieuExiste
 1229 048a 8823      		tst r24
 1230 048c 01F0      		breq .L119
 1231               		.stabn	68,0,545,.LM183-.LFBB15
 1232               	.LM183:
 1233 048e 8091 0000 		lds r24,droiteExiste
 1234 0492 8111      		cpse r24,__zero_reg__
 1235 0494 00C0      		rjmp .L145
 1236               	.L119:
 546:robot_chat.cpp **** 	{
GAS LISTING /tmp/ccfQOnsU.s 			page 34


 547:robot_chat.cpp **** 		return true;
 548:robot_chat.cpp **** 	}
 549:robot_chat.cpp **** 
 550:robot_chat.cpp **** 	ajusterFranchie();
 1237               		.stabn	68,0,550,.LM184-.LFBB15
 1238               	.LM184:
 1239 0496 0E94 0000 		call _Z15ajusterFranchiev
 551:robot_chat.cpp **** 	ajusterPossibiliteIntersection();
 1240               		.stabn	68,0,551,.LM185-.LFBB15
 1241               	.LM185:
 1242 049a 0E94 0000 		call _Z30ajusterPossibiliteIntersectionv
 552:robot_chat.cpp **** 
 553:robot_chat.cpp **** 	return false;
 1243               		.stabn	68,0,553,.LM186-.LFBB15
 1244               	.LM186:
 1245 049e 80E0      		ldi r24,0
 1246 04a0 0895      		ret
 1247               	.L113:
 507:robot_chat.cpp **** 		tomberEnModerDetecterTypeIntersection(false);		
 1248               		.stabn	68,0,507,.LM187-.LFBB15
 1249               	.LM187:
 1250 04a2 80E0      		ldi r24,0
 1251 04a4 0E94 0000 		call _Z37tomberEnModerDetecterTypeIntersectionb
 1252 04a8 00C0      		rjmp .L120
 1253               	.L116:
 528:robot_chat.cpp **** 	if(tempsIntersection >= tempsIntersectionMax) //Le temps est écoulé, prendre une decision
 1254               		.stabn	68,0,528,.LM188-.LFBB15
 1255               	.LM188:
 1256 04aa 4217      		cp r20,r18
 1257 04ac 5307      		cpc r21,r19
 1258 04ae 00F4      		brsh .L121
 1259 04b0 00C0      		rjmp .L144
 1260               	.L117:
 522:robot_chat.cpp **** 		franchieDroite = false;
 1261               		.stabn	68,0,522,.LM189-.LFBB15
 1262               	.LM189:
 1263 04b2 1092 0000 		sts franchieDroite,__zero_reg__
 523:robot_chat.cpp **** 		franchieGauche = false;
 1264               		.stabn	68,0,523,.LM190-.LFBB15
 1265               	.LM190:
 1266 04b6 1092 0000 		sts franchieGauche,__zero_reg__
 524:robot_chat.cpp **** 		franchieMilieu = false;
 1267               		.stabn	68,0,524,.LM191-.LFBB15
 1268               	.LM191:
 1269 04ba 1092 0000 		sts franchieMilieu,__zero_reg__
 1270               	.L145:
 525:robot_chat.cpp **** 		return true;
 1271               		.stabn	68,0,525,.LM192-.LFBB15
 1272               	.LM192:
 1273 04be 81E0      		ldi r24,lo8(1)
 554:robot_chat.cpp **** }
 1274               		.stabn	68,0,554,.LM193-.LFBB15
 1275               	.LM193:
 1276 04c0 0895      		ret
 1277               		.size	_Z26determinerTypeIntersectionv, .-_Z26determinerTypeIntersectionv
 1278               	.Lscope15:
 1279               		.stabs	"",36,0,0,.Lscope15-.LFBB15
GAS LISTING /tmp/ccfQOnsU.s 			page 35


 1280               		.stabd	78,0,0
 1281               		.stabs	"_Z21ajusterDernierCapteurv:F(0,4)",36,0,556,_Z21ajusterDernierCapteurv
 1282               	.global	_Z21ajusterDernierCapteurv
 1283               		.type	_Z21ajusterDernierCapteurv, @function
 1284               	_Z21ajusterDernierCapteurv:
 1285               		.stabd	46,0,0
 555:robot_chat.cpp **** 
 556:robot_chat.cpp **** void ajusterDernierCapteur()
 557:robot_chat.cpp **** {
 1286               		.stabn	68,0,557,.LM194-.LFBB16
 1287               	.LM194:
 1288               	.LFBB16:
 1289               	/* prologue: function */
 1290               	/* frame size = 0 */
 1291               	/* stack size = 0 */
 1292               	.L__stack_usage = 0
 558:robot_chat.cpp **** 	if(capteurDroit())
 1293               		.stabn	68,0,558,.LM195-.LFBB16
 1294               	.LM195:
 1295 04c2 0E94 0000 		call _Z12capteurDroitv
 1296 04c6 8823      		tst r24
 1297 04c8 01F0      		breq .L147
 559:robot_chat.cpp **** 		dernierCapteur = 3;
 1298               		.stabn	68,0,559,.LM196-.LFBB16
 1299               	.LM196:
 1300 04ca 83E0      		ldi r24,lo8(3)
 1301 04cc 8093 0000 		sts dernierCapteur,r24
 1302               	.L147:
 560:robot_chat.cpp **** 	if(capteurMilieu())
 1303               		.stabn	68,0,560,.LM197-.LFBB16
 1304               	.LM197:
 1305 04d0 0E94 0000 		call _Z13capteurMilieuv
 1306 04d4 8823      		tst r24
 1307 04d6 01F0      		breq .L148
 561:robot_chat.cpp **** 		dernierCapteur = 2;
 1308               		.stabn	68,0,561,.LM198-.LFBB16
 1309               	.LM198:
 1310 04d8 82E0      		ldi r24,lo8(2)
 1311 04da 8093 0000 		sts dernierCapteur,r24
 1312               	.L148:
 562:robot_chat.cpp **** 	if(capteurGauche())
 1313               		.stabn	68,0,562,.LM199-.LFBB16
 1314               	.LM199:
 1315 04de 0E94 0000 		call _Z13capteurGauchev
 1316 04e2 8823      		tst r24
 1317 04e4 01F0      		breq .L146
 563:robot_chat.cpp **** 		dernierCapteur = 1;	
 1318               		.stabn	68,0,563,.LM200-.LFBB16
 1319               	.LM200:
 1320 04e6 81E0      		ldi r24,lo8(1)
 1321 04e8 8093 0000 		sts dernierCapteur,r24
 1322               	.L146:
 1323 04ec 0895      		ret
 1324               		.size	_Z21ajusterDernierCapteurv, .-_Z21ajusterDernierCapteurv
 1325               	.Lscope16:
 1326               		.stabs	"",36,0,0,.Lscope16-.LFBB16
 1327               		.stabd	78,0,0
GAS LISTING /tmp/ccfQOnsU.s 			page 36


 1328               		.stabs	"_Z17limiterAjustementv:F(0,4)",36,0,566,_Z17limiterAjustementv
 1329               	.global	_Z17limiterAjustementv
 1330               		.type	_Z17limiterAjustementv, @function
 1331               	_Z17limiterAjustementv:
 1332               		.stabd	46,0,0
 564:robot_chat.cpp **** }
 565:robot_chat.cpp **** 
 566:robot_chat.cpp **** void limiterAjustement()
 567:robot_chat.cpp **** {
 1333               		.stabn	68,0,567,.LM201-.LFBB17
 1334               	.LM201:
 1335               	.LFBB17:
 1336               	/* prologue: function */
 1337               	/* frame size = 0 */
 1338               	/* stack size = 0 */
 1339               	.L__stack_usage = 0
 568:robot_chat.cpp **** 	if(ajustementGauche > ajustementMax)
 1340               		.stabn	68,0,568,.LM202-.LFBB17
 1341               	.LM202:
 1342 04ee 8091 0000 		lds r24,ajustementMax
 1343 04f2 9091 0000 		lds r25,ajustementGauche
 1344 04f6 8917      		cp r24,r25
 1345 04f8 04F4      		brge .L160
 569:robot_chat.cpp **** 		ajustementGauche = ajustementMax;
 1346               		.stabn	68,0,569,.LM203-.LFBB17
 1347               	.LM203:
 1348 04fa 8093 0000 		sts ajustementGauche,r24
 1349               	.L160:
 570:robot_chat.cpp **** 	if(ajustementDroit > ajustementMax)
 1350               		.stabn	68,0,570,.LM204-.LFBB17
 1351               	.LM204:
 1352 04fe 9091 0000 		lds r25,ajustementDroit
 1353 0502 8917      		cp r24,r25
 1354 0504 04F4      		brge .L161
 571:robot_chat.cpp **** 		ajustementDroit = ajustementMax;
 1355               		.stabn	68,0,571,.LM205-.LFBB17
 1356               	.LM205:
 1357 0506 8093 0000 		sts ajustementDroit,r24
 1358               	.L161:
 572:robot_chat.cpp **** 
 573:robot_chat.cpp **** 	if(ajustementGauche < ajustementMin)
 1359               		.stabn	68,0,573,.LM206-.LFBB17
 1360               	.LM206:
 1361 050a 8091 0000 		lds r24,ajustementMin
 1362 050e 9091 0000 		lds r25,ajustementGauche
 1363 0512 9817      		cp r25,r24
 1364 0514 04F4      		brge .L162
 574:robot_chat.cpp **** 		ajustementGauche = ajustementMin;
 1365               		.stabn	68,0,574,.LM207-.LFBB17
 1366               	.LM207:
 1367 0516 8093 0000 		sts ajustementGauche,r24
 1368               	.L162:
 575:robot_chat.cpp **** 	if(ajustementDroit < ajustementMin)
 1369               		.stabn	68,0,575,.LM208-.LFBB17
 1370               	.LM208:
 1371 051a 9091 0000 		lds r25,ajustementDroit
 1372 051e 9817      		cp r25,r24
GAS LISTING /tmp/ccfQOnsU.s 			page 37


 1373 0520 04F4      		brge .L159
 576:robot_chat.cpp **** 		ajustementDroit = ajustementMin;
 1374               		.stabn	68,0,576,.LM209-.LFBB17
 1375               	.LM209:
 1376 0522 8093 0000 		sts ajustementDroit,r24
 1377               	.L159:
 1378 0526 0895      		ret
 1379               		.size	_Z17limiterAjustementv, .-_Z17limiterAjustementv
 1380               	.Lscope17:
 1381               		.stabs	"",36,0,0,.Lscope17-.LFBB17
 1382               		.stabd	78,0,0
 1383               		.stabs	"_Z17ajustementVitesseb:F(0,4)",36,0,579,_Z17ajustementVitesseb
 1384               		.stabs	"sens:P(0,24)",64,0,579,24
 1385               	.global	_Z17ajustementVitesseb
 1386               		.type	_Z17ajustementVitesseb, @function
 1387               	_Z17ajustementVitesseb:
 1388               		.stabd	46,0,0
 577:robot_chat.cpp **** }
 578:robot_chat.cpp **** 
 579:robot_chat.cpp **** void ajustementVitesse(bool sens)
 580:robot_chat.cpp **** {
 1389               		.stabn	68,0,580,.LM210-.LFBB18
 1390               	.LM210:
 1391               	.LFBB18:
 1392               	/* prologue: function */
 1393               	/* frame size = 0 */
 1394               	/* stack size = 0 */
 1395               	.L__stack_usage = 0
 581:robot_chat.cpp **** 	delaisLigneDroite++;
 1396               		.stabn	68,0,581,.LM211-.LFBB18
 1397               	.LM211:
 1398 0528 2091 0000 		lds r18,delaisLigneDroite
 1399 052c 3091 0000 		lds r19,delaisLigneDroite+1
 1400 0530 2F5F      		subi r18,-1
 1401 0532 3F4F      		sbci r19,-1
 1402 0534 3093 0000 		sts delaisLigneDroite+1,r19
 1403 0538 2093 0000 		sts delaisLigneDroite,r18
 582:robot_chat.cpp **** 	if(delaisLigneDroite >= delaisMaxLigneDroite)
 1404               		.stabn	68,0,582,.LM212-.LFBB18
 1405               	.LM212:
 1406 053c 4091 0000 		lds r20,delaisMaxLigneDroite
 1407 0540 5091 0000 		lds r21,delaisMaxLigneDroite+1
 1408 0544 2417      		cp r18,r20
 1409 0546 3507      		cpc r19,r21
 1410 0548 00F0      		brlo .L164
 583:robot_chat.cpp **** 	{
 584:robot_chat.cpp **** 		delaisLigneDroite = 0;
 1411               		.stabn	68,0,584,.LM213-.LFBB18
 1412               	.LM213:
 1413 054a 1092 0000 		sts delaisLigneDroite+1,__zero_reg__
 1414 054e 1092 0000 		sts delaisLigneDroite,__zero_reg__
 1415 0552 2091 0000 		lds r18,ajustementGauche
 1416 0556 9091 0000 		lds r25,ajustementDroit
 585:robot_chat.cpp **** 		if(sens)
 1417               		.stabn	68,0,585,.LM214-.LFBB18
 1418               	.LM214:
 1419 055a 8823      		tst r24
GAS LISTING /tmp/ccfQOnsU.s 			page 38


 1420 055c 01F0      		breq .L166
 1421               	.LBB42:
 1422               	.LBB43:
 586:robot_chat.cpp **** 		{
 587:robot_chat.cpp **** 			ajustementGauche++;
 1423               		.stabn	68,0,587,.LM215-.LFBB18
 1424               	.LM215:
 1425 055e 2F5F      		subi r18,lo8(-(1))
 1426 0560 2093 0000 		sts ajustementGauche,r18
 588:robot_chat.cpp **** 			ajustementDroit--;
 1427               		.stabn	68,0,588,.LM216-.LFBB18
 1428               	.LM216:
 1429 0564 9150      		subi r25,lo8(-(-1))
 1430 0566 00C0      		rjmp .L167
 1431               	.L166:
 1432               	.LBE43:
 1433               	.LBE42:
 589:robot_chat.cpp **** 			limiterAjustement();
 590:robot_chat.cpp **** 		}
 591:robot_chat.cpp **** 		else
 592:robot_chat.cpp **** 		{
 593:robot_chat.cpp **** 			ajustementGauche--;
 1434               		.stabn	68,0,593,.LM217-.LFBB18
 1435               	.LM217:
 1436 0568 2150      		subi r18,lo8(-(-1))
 1437 056a 2093 0000 		sts ajustementGauche,r18
 594:robot_chat.cpp **** 			ajustementDroit++;
 1438               		.stabn	68,0,594,.LM218-.LFBB18
 1439               	.LM218:
 1440 056e 9F5F      		subi r25,lo8(-(1))
 1441               	.L167:
 1442 0570 9093 0000 		sts ajustementDroit,r25
 595:robot_chat.cpp **** 			limiterAjustement();
 1443               		.stabn	68,0,595,.LM219-.LFBB18
 1444               	.LM219:
 1445 0574 0C94 0000 		jmp _Z17limiterAjustementv
 1446               	.L164:
 1447 0578 0895      		ret
 1448               		.size	_Z17ajustementVitesseb, .-_Z17ajustementVitesseb
 1449               	.Lscope18:
 1450               		.stabs	"",36,0,0,.Lscope18-.LFBB18
 1451               		.stabd	78,0,0
 1452               		.stabs	"_Z21avancerAvecAjustementii:F(0,4)",36,0,600,_Z21avancerAvecAjustementii
 1453               	.global	_Z21avancerAvecAjustementii
 1454               		.type	_Z21avancerAvecAjustementii, @function
 1455               	_Z21avancerAvecAjustementii:
 1456               		.stabd	46,0,0
 596:robot_chat.cpp **** 		}
 597:robot_chat.cpp **** 	}
 598:robot_chat.cpp **** }
 599:robot_chat.cpp **** 
 600:robot_chat.cpp **** void avancerAvecAjustement(int16_t vG, int16_t vD)
 601:robot_chat.cpp **** {
 1457               		.stabn	68,0,601,.LM220-.LFBB19
 1458               	.LM220:
 1459               	.LFBB19:
 1460               	/* prologue: function */
GAS LISTING /tmp/ccfQOnsU.s 			page 39


 1461               	/* frame size = 0 */
 1462               	/* stack size = 0 */
 1463               	.L__stack_usage = 0
 602:robot_chat.cpp **** 	if(delaisAjustementTemporaire > 0)
 1464               		.stabn	68,0,602,.LM221-.LFBB19
 1465               	.LM221:
 1466 057a 2091 0000 		lds r18,delaisAjustementTemporaire
 1467 057e 3091 0000 		lds r19,delaisAjustementTemporaire+1
 1468 0582 1216      		cp __zero_reg__,r18
 1469 0584 1306      		cpc __zero_reg__,r19
 1470 0586 04F4      		brge .L169
 603:robot_chat.cpp **** 	{
 604:robot_chat.cpp **** 		r.avancer(vG,vD,ajustementGauche+ajustementTemporaireG, ajustementDroit+ajustementTemporaireD);
 1471               		.stabn	68,0,604,.LM222-.LFBB19
 1472               	.LM222:
 1473 0588 2091 0000 		lds r18,ajustementTemporaireD
 1474 058c 9091 0000 		lds r25,ajustementDroit
 1475 0590 290F      		add r18,r25
 1476 0592 4091 0000 		lds r20,ajustementTemporaireG
 1477 0596 9091 0000 		lds r25,ajustementGauche
 1478 059a 490F      		add r20,r25
 1479 059c 00C0      		rjmp .L170
 1480               	.L169:
 1481               	.LBB46:
 1482               	.LBB47:
 605:robot_chat.cpp **** 	}
 606:robot_chat.cpp **** 	else
 607:robot_chat.cpp **** 	{
 608:robot_chat.cpp **** 		r.avancer(vG,vD,ajustementGauche, ajustementDroit);
 1483               		.stabn	68,0,608,.LM223-.LFBB19
 1484               	.LM223:
 1485 059e 2091 0000 		lds r18,ajustementDroit
 1486 05a2 4091 0000 		lds r20,ajustementGauche
 1487               	.L170:
 1488 05a6 0C94 0000 		jmp _ZN8LibRobot7avancerEhhaa
 1489               	.LBE47:
 1490               	.LBE46:
 1491               		.size	_Z21avancerAvecAjustementii, .-_Z21avancerAvecAjustementii
 1492               	.Lscope19:
 1493               		.stabs	"",36,0,0,.Lscope19-.LFBB19
 1494               		.stabd	78,0,0
 1495               		.stabs	"_Z21reculerAvecAjustementii:F(0,4)",36,0,612,_Z21reculerAvecAjustementii
 1496               	.global	_Z21reculerAvecAjustementii
 1497               		.type	_Z21reculerAvecAjustementii, @function
 1498               	_Z21reculerAvecAjustementii:
 1499               		.stabd	46,0,0
 609:robot_chat.cpp **** 	}
 610:robot_chat.cpp **** }
 611:robot_chat.cpp **** 
 612:robot_chat.cpp **** void reculerAvecAjustement(int16_t vG, int16_t vD)
 613:robot_chat.cpp **** {
 1500               		.stabn	68,0,613,.LM224-.LFBB20
 1501               	.LM224:
 1502               	.LFBB20:
 1503               	/* prologue: function */
 1504               	/* frame size = 0 */
 1505               	/* stack size = 0 */
GAS LISTING /tmp/ccfQOnsU.s 			page 40


 1506               	.L__stack_usage = 0
 614:robot_chat.cpp **** 	if(dernierCapteur == 1) 					//gauche, donc on tourne vers la gauche en reculant
 1507               		.stabn	68,0,614,.LM225-.LFBB20
 1508               	.LM225:
 1509 05aa 9091 0000 		lds r25,dernierCapteur
 615:robot_chat.cpp **** 		r.reculer(vG,0,ajustementGauche, ajustementDroit);
 1510               		.stabn	68,0,615,.LM226-.LFBB20
 1511               	.LM226:
 1512 05ae 2091 0000 		lds r18,ajustementDroit
 1513 05b2 4091 0000 		lds r20,ajustementGauche
 614:robot_chat.cpp **** 	if(dernierCapteur == 1) 					//gauche, donc on tourne vers la gauche en reculant
 1514               		.stabn	68,0,614,.LM227-.LFBB20
 1515               	.LM227:
 1516 05b6 9130      		cpi r25,lo8(1)
 1517 05b8 01F4      		brne .L172
 1518               	.L173:
 1519               		.stabn	68,0,615,.LM228-.LFBB20
 1520               	.LM228:
 1521 05ba 60E0      		ldi r22,0
 1522 05bc 00C0      		rjmp .L177
 1523               	.L172:
 616:robot_chat.cpp **** 	else if(dernierCapteur == 3) 					//droite
 1524               		.stabn	68,0,616,.LM229-.LFBB20
 1525               	.LM229:
 1526 05be 9330      		cpi r25,lo8(3)
 1527 05c0 01F0      		breq .L173
 1528               	.L177:
 617:robot_chat.cpp **** 		r.reculer(vG,0,ajustementGauche, ajustementDroit);
 618:robot_chat.cpp **** 	else								//milieu
 619:robot_chat.cpp **** 		r.reculer(vG,vD,ajustementGauche, ajustementDroit);
 1529               		.stabn	68,0,619,.LM230-.LFBB20
 1530               	.LM230:
 1531 05c2 0C94 0000 		jmp _ZN8LibRobot7reculerEhhaa
 1532               		.size	_Z21reculerAvecAjustementii, .-_Z21reculerAvecAjustementii
 1533               	.Lscope20:
 1534               		.stabs	"",36,0,0,.Lscope20-.LFBB20
 1535               		.stabd	78,0,0
 1536               		.stabs	"_Z21viragePourLigneDroiteba:F(0,4)",36,0,622,_Z21viragePourLigneDroiteba
 1537               		.stabs	"sens:P(0,24)",64,0,622,24
 1538               		.stabs	"ajustementVitesseVirage:P(0,28)",64,0,622,22
 1539               	.global	_Z21viragePourLigneDroiteba
 1540               		.type	_Z21viragePourLigneDroiteba, @function
 1541               	_Z21viragePourLigneDroiteba:
 1542               		.stabd	46,0,0
 620:robot_chat.cpp **** }
 621:robot_chat.cpp **** 
 622:robot_chat.cpp **** void viragePourLigneDroite(bool sens, int8_t ajustementVitesseVirage)//false gauche, true droite
 623:robot_chat.cpp **** {
 1543               		.stabn	68,0,623,.LM231-.LFBB21
 1544               	.LM231:
 1545               	.LFBB21:
 1546 05c6 CF93      		push r28
 1547 05c8 DF93      		push r29
 1548               	/* prologue: function */
 1549               	/* frame size = 0 */
 1550               	/* stack size = 2 */
 1551               	.L__stack_usage = 2
GAS LISTING /tmp/ccfQOnsU.s 			page 41


 1552 05ca C62F      		mov r28,r22
 1553 05cc DD27      		clr r29
 1554 05ce C7FD      		sbrc r28,7
 1555 05d0 D095      		com r29
 624:robot_chat.cpp **** 	if(sens)//Droite
 1556               		.stabn	68,0,624,.LM232-.LFBB21
 1557               	.LM232:
 1558 05d2 8823      		tst r24
 1559 05d4 01F0      		breq .L179
 625:robot_chat.cpp **** 	{
 626:robot_chat.cpp **** 		//Balancer la vitesse des moteurs pour le futur
 627:robot_chat.cpp **** 		ajustementVitesse(true);
 1560               		.stabn	68,0,627,.LM233-.LFBB21
 1561               	.LM233:
 1562 05d6 81E0      		ldi r24,lo8(1)
 1563 05d8 0E94 0000 		call _Z17ajustementVitesseb
 628:robot_chat.cpp **** 		if(modeFoncer)
 1564               		.stabn	68,0,628,.LM234-.LFBB21
 1565               	.LM234:
 1566 05dc 8091 0000 		lds r24,modeFoncer
 1567 05e0 8823      		tst r24
 1568 05e2 01F0      		breq .L180
 629:robot_chat.cpp **** 			avancerAvecAjustement(vitesseFoncer + ajustementVitesseVirage, vitesseFoncer - ajustementVitesse
 1569               		.stabn	68,0,629,.LM235-.LFBB21
 1570               	.LM235:
 1571 05e4 8091 0000 		lds r24,vitesseFoncer
 1572 05e8 00C0      		rjmp .L184
 1573               	.L180:
 630:robot_chat.cpp **** 		else
 631:robot_chat.cpp **** 			avancerAvecAjustement(vitesseBase + ajustementVitesseVirage, vitesseBase - ajustementVitesseVira
 1574               		.stabn	68,0,631,.LM236-.LFBB21
 1575               	.LM236:
 1576 05ea 8091 0000 		lds r24,vitesseBase
 1577               	.L184:
 1578 05ee 90E0      		ldi r25,0
 1579 05f0 BC01      		movw r22,r24
 1580 05f2 6C1B      		sub r22,r28
 1581 05f4 7D0B      		sbc r23,r29
 1582 05f6 8C0F      		add r24,r28
 1583 05f8 9D1F      		adc r25,r29
 1584 05fa 00C0      		rjmp .L182
 1585               	.L179:
 632:robot_chat.cpp **** 	}
 633:robot_chat.cpp **** 	else//Gauche
 634:robot_chat.cpp **** 	{
 635:robot_chat.cpp **** 		//Balancer la vitesse des moteurs pour le futur
 636:robot_chat.cpp **** 		ajustementVitesse(false);
 1586               		.stabn	68,0,636,.LM237-.LFBB21
 1587               	.LM237:
 1588 05fc 80E0      		ldi r24,0
 1589 05fe 0E94 0000 		call _Z17ajustementVitesseb
 637:robot_chat.cpp **** 		if(modeFoncer)
 1590               		.stabn	68,0,637,.LM238-.LFBB21
 1591               	.LM238:
 1592 0602 8091 0000 		lds r24,modeFoncer
 1593 0606 8823      		tst r24
 1594 0608 01F0      		breq .L181
GAS LISTING /tmp/ccfQOnsU.s 			page 42


 1595               	.LBB50:
 1596               	.LBB51:
 638:robot_chat.cpp **** 			avancerAvecAjustement(vitesseFoncer - ajustementVitesseVirage, vitesseFoncer + ajustementVitesse
 1597               		.stabn	68,0,638,.LM239-.LFBB21
 1598               	.LM239:
 1599 060a 8091 0000 		lds r24,vitesseFoncer
 1600 060e 00C0      		rjmp .L183
 1601               	.L181:
 1602               	.LBE51:
 1603               	.LBE50:
 639:robot_chat.cpp **** 		else
 640:robot_chat.cpp **** 			avancerAvecAjustement(vitesseBase - ajustementVitesseVirage, vitesseBase + ajustementVitesseVira
 1604               		.stabn	68,0,640,.LM240-.LFBB21
 1605               	.LM240:
 1606 0610 8091 0000 		lds r24,vitesseBase
 1607               	.L183:
 1608 0614 90E0      		ldi r25,0
 1609 0616 BC01      		movw r22,r24
 1610 0618 6C0F      		add r22,r28
 1611 061a 7D1F      		adc r23,r29
 1612 061c 8C1B      		sub r24,r28
 1613 061e 9D0B      		sbc r25,r29
 1614               	.L182:
 1615               	/* epilogue start */
 641:robot_chat.cpp **** 	}
 642:robot_chat.cpp **** }
 1616               		.stabn	68,0,642,.LM241-.LFBB21
 1617               	.LM241:
 1618 0620 DF91      		pop r29
 1619 0622 CF91      		pop r28
 640:robot_chat.cpp **** 			avancerAvecAjustement(vitesseBase - ajustementVitesseVirage, vitesseBase + ajustementVitesseVira
 1620               		.stabn	68,0,640,.LM242-.LFBB21
 1621               	.LM242:
 1622 0624 0C94 0000 		jmp _Z21avancerAvecAjustementii
 1623               		.size	_Z21viragePourLigneDroiteba, .-_Z21viragePourLigneDroiteba
 1624               	.Lscope21:
 1625               		.stabs	"",36,0,0,.Lscope21-.LFBB21
 1626               		.stabd	78,0,0
 1627               		.stabs	"_Z19tomberEnModeReculerv:F(0,4)",36,0,644,_Z19tomberEnModeReculerv
 1628               	.global	_Z19tomberEnModeReculerv
 1629               		.type	_Z19tomberEnModeReculerv, @function
 1630               	_Z19tomberEnModeReculerv:
 1631               		.stabd	46,0,0
 643:robot_chat.cpp **** 
 644:robot_chat.cpp **** void tomberEnModeReculer()
 645:robot_chat.cpp **** {
 1632               		.stabn	68,0,645,.LM243-.LFBB22
 1633               	.LM243:
 1634               	.LFBB22:
 1635               	/* prologue: function */
 1636               	/* frame size = 0 */
 1637               	/* stack size = 0 */
 1638               	.L__stack_usage = 0
 646:robot_chat.cpp **** 	tempsReculActif = 0;
 1639               		.stabn	68,0,646,.LM244-.LFBB22
 1640               	.LM244:
 1641 0628 1092 0000 		sts tempsReculActif,__zero_reg__
GAS LISTING /tmp/ccfQOnsU.s 			page 43


 647:robot_chat.cpp **** 	finRecul = false;
 1642               		.stabn	68,0,647,.LM245-.LFBB22
 1643               	.LM245:
 1644 062c 1092 0000 		sts finRecul,__zero_reg__
 648:robot_chat.cpp **** 	tempsReculExtra = 0;
 1645               		.stabn	68,0,648,.LM246-.LFBB22
 1646               	.LM246:
 1647 0630 1092 0000 		sts tempsReculExtra,__zero_reg__
 649:robot_chat.cpp **** 	modeReculer = true;
 1648               		.stabn	68,0,649,.LM247-.LFBB22
 1649               	.LM247:
 1650 0634 81E0      		ldi r24,lo8(1)
 1651 0636 8093 0000 		sts modeReculer,r24
 650:robot_chat.cpp **** 	r.decoincer(true, true, false);
 1652               		.stabn	68,0,650,.LM248-.LFBB22
 1653               	.LM248:
 1654 063a 40E0      		ldi r20,0
 1655 063c 61E0      		ldi r22,lo8(1)
 1656 063e 0C94 0000 		jmp _ZN8LibRobot9decoincerEbbb
 1657               		.size	_Z19tomberEnModeReculerv, .-_Z19tomberEnModeReculerv
 1658               	.Lscope22:
 1659               		.stabs	"",36,0,0,.Lscope22-.LFBB22
 1660               		.stabd	78,0,0
 1661               		.stabs	"_Z17directionConvienth:F(0,24)",36,0,653,_Z17directionConvienth
 1662               		.stabs	"choix:P(0,29)",64,0,653,25
 1663               	.global	_Z17directionConvienth
 1664               		.type	_Z17directionConvienth, @function
 1665               	_Z17directionConvienth:
 1666               		.stabd	46,0,0
 651:robot_chat.cpp **** }
 652:robot_chat.cpp **** 
 653:robot_chat.cpp **** bool directionConvient(uint8_t choix) //int choix : 1 gauche, 2 = milieu, 3 = droite
 654:robot_chat.cpp **** {
 1667               		.stabn	68,0,654,.LM249-.LFBB23
 1668               	.LM249:
 1669               	.LFBB23:
 1670               	/* prologue: function */
 1671               	/* frame size = 0 */
 1672               	/* stack size = 0 */
 1673               	.L__stack_usage = 0
 1674 0642 982F      		mov r25,r24
 655:robot_chat.cpp **** 	//True si le choix de direction convient avec la distanceAParcourir en concidérant l'orientation
 656:robot_chat.cpp **** 	if(distanceAParcourirX == 4 && distanceAParcourirY ==4)
 1675               		.stabn	68,0,656,.LM250-.LFBB23
 1676               	.LM250:
 1677 0644 8091 0000 		lds r24,distanceAParcourirX
 1678 0648 8430      		cpi r24,lo8(4)
 1679 064a 01F4      		brne .L187
 1680               		.stabn	68,0,656,.LM251-.LFBB23
 1681               	.LM251:
 1682 064c 2091 0000 		lds r18,distanceAParcourirY
 1683 0650 2430      		cpi r18,lo8(4)
 1684 0652 01F0      		breq .L211
 1685               	.L187:
 657:robot_chat.cpp **** 		return false;
 658:robot_chat.cpp **** 
 659:robot_chat.cpp **** 	if(choix == 1)//On veut aller a gauche
GAS LISTING /tmp/ccfQOnsU.s 			page 44


 1686               		.stabn	68,0,659,.LM252-.LFBB23
 1687               	.LM252:
 1688 0654 9130      		cpi r25,lo8(1)
 1689 0656 01F4      		brne .L189
 660:robot_chat.cpp **** 	{
 661:robot_chat.cpp **** 		if(directionCourrante == 1) //Nord
 1690               		.stabn	68,0,661,.LM253-.LFBB23
 1691               	.LM253:
 1692 0658 9091 0000 		lds r25,directionCourrante
 1693 065c 9130      		cpi r25,lo8(1)
 1694 065e 01F4      		brne .L190
 1695 0660 00C0      		rjmp .L218
 1696               	.L190:
 662:robot_chat.cpp **** 		{
 663:robot_chat.cpp **** 			return (distanceAParcourirX < 0);
 664:robot_chat.cpp **** 		}
 665:robot_chat.cpp **** 		if(directionCourrante == 2) //Est
 1697               		.stabn	68,0,665,.LM254-.LFBB23
 1698               	.LM254:
 1699 0662 9230      		cpi r25,lo8(2)
 1700 0664 01F4      		brne .L191
 1701               	.L223:
 666:robot_chat.cpp **** 		{
 667:robot_chat.cpp **** 			return (distanceAParcourirY > 0 && distanceAParcourirY !=4);
 1702               		.stabn	68,0,667,.LM255-.LFBB23
 1703               	.LM255:
 1704 0666 8091 0000 		lds r24,distanceAParcourirY
 1705               	.L221:
 1706 066a 1816      		cp __zero_reg__,r24
 1707 066c 04F4      		brge .L211
 1708               		.stabn	68,0,667,.LM256-.LFBB23
 1709               	.LM256:
 1710 066e 8430      		cpi r24,lo8(4)
 1711 0670 01F0      		breq .L211
 1712               		.stabn	68,0,667,.LM257-.LFBB23
 1713               	.LM257:
 1714 0672 81E0      		ldi r24,lo8(1)
 1715 0674 0895      		ret
 1716               	.L191:
 668:robot_chat.cpp **** 		}
 669:robot_chat.cpp **** 		if(directionCourrante == 3) //Sud
 1717               		.stabn	68,0,669,.LM258-.LFBB23
 1718               	.LM258:
 1719 0676 9330      		cpi r25,lo8(3)
 1720 0678 01F4      		brne .L192
 1721 067a 00C0      		rjmp .L221
 1722               	.L192:
 670:robot_chat.cpp **** 		{
 671:robot_chat.cpp **** 			return (distanceAParcourirX > 0 && distanceAParcourirX !=4);
 672:robot_chat.cpp **** 		}
 673:robot_chat.cpp **** 		if(directionCourrante == 4) //Ouest
 1723               		.stabn	68,0,673,.LM259-.LFBB23
 1724               	.LM259:
 1725 067c 9430      		cpi r25,lo8(4)
 1726 067e 01F4      		brne .L211
 1727               	.L197:
 674:robot_chat.cpp **** 		{
GAS LISTING /tmp/ccfQOnsU.s 			page 45


 675:robot_chat.cpp **** 			return (distanceAParcourirY < 0);
 1728               		.stabn	68,0,675,.LM260-.LFBB23
 1729               	.LM260:
 1730 0680 8091 0000 		lds r24,distanceAParcourirY
 1731 0684 00C0      		rjmp .L218
 1732               	.L189:
 676:robot_chat.cpp **** 		}
 677:robot_chat.cpp **** 	}
 678:robot_chat.cpp **** 	if(choix == 2)//On veut aller tout droit
 1733               		.stabn	68,0,678,.LM261-.LFBB23
 1734               	.LM261:
 1735 0686 9230      		cpi r25,lo8(2)
 1736 0688 01F4      		brne .L194
 679:robot_chat.cpp **** 	{
 680:robot_chat.cpp **** 		if(directionCourrante == 1) //Nord
 1737               		.stabn	68,0,680,.LM262-.LFBB23
 1738               	.LM262:
 1739 068a 9091 0000 		lds r25,directionCourrante
 1740 068e 9130      		cpi r25,lo8(1)
 1741 0690 01F4      		brne .L195
 1742 0692 00C0      		rjmp .L223
 1743               	.L195:
 681:robot_chat.cpp **** 		{
 682:robot_chat.cpp **** 			return (distanceAParcourirY > 0 && distanceAParcourirY !=4);
 683:robot_chat.cpp **** 		}
 684:robot_chat.cpp **** 		if(directionCourrante == 2) //Est
 1744               		.stabn	68,0,684,.LM263-.LFBB23
 1745               	.LM263:
 1746 0694 9230      		cpi r25,lo8(2)
 1747 0696 01F4      		brne .L196
 1748 0698 00C0      		rjmp .L221
 1749               	.L196:
 685:robot_chat.cpp **** 		{
 686:robot_chat.cpp **** 			return (distanceAParcourirX > 0 && distanceAParcourirX !=4);
 687:robot_chat.cpp **** 		}
 688:robot_chat.cpp **** 		if(directionCourrante == 3) //Sud
 1750               		.stabn	68,0,688,.LM264-.LFBB23
 1751               	.LM264:
 1752 069a 9330      		cpi r25,lo8(3)
 1753 069c 01F0      		breq .L197
 689:robot_chat.cpp **** 		{
 690:robot_chat.cpp **** 			return (distanceAParcourirY < 0);
 691:robot_chat.cpp **** 		}
 692:robot_chat.cpp **** 		if(directionCourrante == 4) //Ouest
 1754               		.stabn	68,0,692,.LM265-.LFBB23
 1755               	.LM265:
 1756 069e 9430      		cpi r25,lo8(4)
 1757 06a0 01F4      		brne .L211
 1758 06a2 00C0      		rjmp .L218
 1759               	.L194:
 693:robot_chat.cpp **** 		{
 694:robot_chat.cpp **** 			return (distanceAParcourirX < 0);
 695:robot_chat.cpp **** 		}
 696:robot_chat.cpp **** 	}
 697:robot_chat.cpp **** 	if(choix == 3)//On veut aller a droite
 1760               		.stabn	68,0,697,.LM266-.LFBB23
 1761               	.LM266:
GAS LISTING /tmp/ccfQOnsU.s 			page 46


 1762 06a4 9330      		cpi r25,lo8(3)
 1763 06a6 01F4      		brne .L211
 698:robot_chat.cpp **** 	{
 699:robot_chat.cpp **** 		if(directionCourrante == 1) //Nord
 1764               		.stabn	68,0,699,.LM267-.LFBB23
 1765               	.LM267:
 1766 06a8 9091 0000 		lds r25,directionCourrante
 1767 06ac 9130      		cpi r25,lo8(1)
 1768 06ae 01F4      		brne .L198
 1769 06b0 00C0      		rjmp .L221
 1770               	.L198:
 700:robot_chat.cpp **** 		{
 701:robot_chat.cpp **** 			return (distanceAParcourirX > 0 && distanceAParcourirX !=4);
 702:robot_chat.cpp **** 		}
 703:robot_chat.cpp **** 		if(directionCourrante == 2) //Est
 1771               		.stabn	68,0,703,.LM268-.LFBB23
 1772               	.LM268:
 1773 06b2 9230      		cpi r25,lo8(2)
 1774 06b4 01F0      		breq .L197
 704:robot_chat.cpp **** 		{
 705:robot_chat.cpp **** 			return (distanceAParcourirY < 0);
 706:robot_chat.cpp **** 		}
 707:robot_chat.cpp **** 		if(directionCourrante == 3) //Sud
 1775               		.stabn	68,0,707,.LM269-.LFBB23
 1776               	.LM269:
 1777 06b6 9330      		cpi r25,lo8(3)
 1778 06b8 01F4      		brne .L199
 1779               	.L218:
 708:robot_chat.cpp **** 		{
 709:robot_chat.cpp **** 			return (distanceAParcourirX < 0);
 1780               		.stabn	68,0,709,.LM270-.LFBB23
 1781               	.LM270:
 1782 06ba 881F      		rol r24
 1783 06bc 8827      		clr r24
 1784 06be 881F      		rol r24
 1785 06c0 0895      		ret
 1786               	.L199:
 710:robot_chat.cpp **** 		}
 711:robot_chat.cpp **** 		if(directionCourrante == 4) //Ouest
 1787               		.stabn	68,0,711,.LM271-.LFBB23
 1788               	.LM271:
 1789 06c2 9430      		cpi r25,lo8(4)
 1790 06c4 01F4      		brne .L211
 1791 06c6 00C0      		rjmp .L223
 1792               	.L211:
 667:robot_chat.cpp **** 			return (distanceAParcourirY > 0 && distanceAParcourirY !=4);
 1793               		.stabn	68,0,667,.LM272-.LFBB23
 1794               	.LM272:
 1795 06c8 80E0      		ldi r24,0
 712:robot_chat.cpp **** 		{
 713:robot_chat.cpp **** 			return (distanceAParcourirY > 0 && distanceAParcourirY !=4);
 714:robot_chat.cpp **** 		}
 715:robot_chat.cpp **** 	}
 716:robot_chat.cpp **** 	return false;
 717:robot_chat.cpp **** }
 1796               		.stabn	68,0,717,.LM273-.LFBB23
 1797               	.LM273:
GAS LISTING /tmp/ccfQOnsU.s 			page 47


 1798 06ca 0895      		ret
 1799               		.size	_Z17directionConvienth, .-_Z17directionConvienth
 1800               	.Lscope23:
 1801               		.stabs	"",36,0,0,.Lscope23-.LFBB23
 1802               		.stabd	78,0,0
 1803               		.stabs	"_Z27nullifierDistanceAParcourirv:F(0,4)",36,0,719,_Z27nullifierDistanceAParcourirv
 1804               	.global	_Z27nullifierDistanceAParcourirv
 1805               		.type	_Z27nullifierDistanceAParcourirv, @function
 1806               	_Z27nullifierDistanceAParcourirv:
 1807               		.stabd	46,0,0
 718:robot_chat.cpp **** 
 719:robot_chat.cpp **** void nullifierDistanceAParcourir()
 720:robot_chat.cpp **** {
 1808               		.stabn	68,0,720,.LM274-.LFBB24
 1809               	.LM274:
 1810               	.LFBB24:
 1811               	/* prologue: function */
 1812               	/* frame size = 0 */
 1813               	/* stack size = 0 */
 1814               	.L__stack_usage = 0
 721:robot_chat.cpp **** 	distanceAParcourirX = 4;
 1815               		.stabn	68,0,721,.LM275-.LFBB24
 1816               	.LM275:
 1817 06cc 84E0      		ldi r24,lo8(4)
 1818 06ce 8093 0000 		sts distanceAParcourirX,r24
 722:robot_chat.cpp **** 	distanceAParcourirY = 4;
 1819               		.stabn	68,0,722,.LM276-.LFBB24
 1820               	.LM276:
 1821 06d2 8093 0000 		sts distanceAParcourirY,r24
 1822 06d6 0895      		ret
 1823               		.size	_Z27nullifierDistanceAParcourirv, .-_Z27nullifierDistanceAParcourirv
 1824               	.Lscope24:
 1825               		.stabs	"",36,0,0,.Lscope24-.LFBB24
 1826               		.stabd	78,0,0
 1827               		.stabs	"_Z14decisionViragebb:F(0,4)",36,0,725,_Z14decisionViragebb
 1828               		.stabs	"gaucheForce:P(0,24)",64,0,725,24
 1829               		.stabs	"droiteForce:P(0,24)",64,0,725,22
 1830               	.global	_Z14decisionViragebb
 1831               		.type	_Z14decisionViragebb, @function
 1832               	_Z14decisionViragebb:
 1833               		.stabd	46,0,0
 723:robot_chat.cpp **** }
 724:robot_chat.cpp **** 
 725:robot_chat.cpp **** void decisionVirage(bool gaucheForce, bool droiteForce) //Les propriétées détermine si la gauche
 726:robot_chat.cpp **** {
 1834               		.stabn	68,0,726,.LM277-.LFBB25
 1835               	.LM277:
 1836               	.LFBB25:
 1837               	/* prologue: function */
 1838               	/* frame size = 0 */
 1839               	/* stack size = 0 */
 1840               	.L__stack_usage = 0
 727:robot_chat.cpp **** 	//--------------------------------
 728:robot_chat.cpp **** 	//Cas évident, rien ou 1 seul choix
 729:robot_chat.cpp **** 	//--------------------------------
 730:robot_chat.cpp **** 
 731:robot_chat.cpp **** 	//Si rien n'existe, tomber en mode reculer
GAS LISTING /tmp/ccfQOnsU.s 			page 48


 732:robot_chat.cpp **** 	if(!droiteExiste && !milieuExiste && !gaucheExiste)
 1841               		.stabn	68,0,732,.LM278-.LFBB25
 1842               	.LM278:
 1843 06d8 8091 0000 		lds r24,droiteExiste
 1844 06dc 2091 0000 		lds r18,milieuExiste
 1845 06e0 8111      		cpse r24,__zero_reg__
 1846 06e2 00C0      		rjmp .L229
 1847 06e4 9091 0000 		lds r25,gaucheExiste
 1848               		.stabn	68,0,732,.LM279-.LFBB25
 1849               	.LM279:
 1850 06e8 2111      		cpse r18,__zero_reg__
 1851 06ea 00C0      		rjmp .L230
 1852               		.stabn	68,0,732,.LM280-.LFBB25
 1853               	.LM280:
 1854 06ec 9111      		cpse r25,__zero_reg__
 1855 06ee 00C0      		rjmp .L231
 733:robot_chat.cpp **** 	{
 734:robot_chat.cpp **** 		tomberEnModeReculer();
 1856               		.stabn	68,0,734,.LM281-.LFBB25
 1857               	.LM281:
 1858 06f0 0E94 0000 		call _Z19tomberEnModeReculerv
 735:robot_chat.cpp **** 		nullifierDistanceAParcourir();
 1859               		.stabn	68,0,735,.LM282-.LFBB25
 1860               	.LM282:
 1861 06f4 0C94 0000 		jmp _Z27nullifierDistanceAParcourirv
 1862               	.L231:
 736:robot_chat.cpp **** 		return;
 737:robot_chat.cpp **** 	}
 738:robot_chat.cpp **** 	if(!droiteExiste && !milieuExiste && gaucheExiste) //gauche
 739:robot_chat.cpp **** 	{
 740:robot_chat.cpp **** 		if(modeRecherche && !directionConvient(1)) //Vérifier si ce choix convient au mode recherche
 1863               		.stabn	68,0,740,.LM283-.LFBB25
 1864               	.LM283:
 1865 06f8 8091 0000 		lds r24,modeRecherche
 1866 06fc 8823      		tst r24
 1867 06fe 01F4      		brne .+2
 1868 0700 00C0      		rjmp .L252
 1869               		.stabn	68,0,740,.LM284-.LFBB25
 1870               	.LM284:
 1871 0702 81E0      		ldi r24,lo8(1)
 1872 0704 0E94 0000 		call _Z17directionConvienth
 1873 0708 8823      		tst r24
 1874 070a 01F4      		brne .+2
 1875 070c 00C0      		rjmp .L233
 1876 070e 00C0      		rjmp .L252
 1877               	.L229:
 741:robot_chat.cpp **** 			nullifierDistanceAParcourir();	//Sans quoi on nullifie la distance a parcourir (comme elle ne se
 742:robot_chat.cpp **** 
 743:robot_chat.cpp **** 		modeVirageGauche = true;
 744:robot_chat.cpp **** 		r.decoincer(false, true, true);
 745:robot_chat.cpp **** 		return;
 746:robot_chat.cpp **** 	}
 747:robot_chat.cpp **** 	if(droiteExiste && !milieuExiste && !gaucheExiste) //droite
 1878               		.stabn	68,0,747,.LM285-.LFBB25
 1879               	.LM285:
 1880 0710 2111      		cpse r18,__zero_reg__
 1881 0712 00C0      		rjmp .L234
GAS LISTING /tmp/ccfQOnsU.s 			page 49


 1882               		.stabn	68,0,747,.LM286-.LFBB25
 1883               	.LM286:
 1884 0714 9091 0000 		lds r25,gaucheExiste
 1885 0718 9111      		cpse r25,__zero_reg__
 1886 071a 00C0      		rjmp .L234
 748:robot_chat.cpp **** 	{
 749:robot_chat.cpp **** 		if(modeRecherche && !directionConvient(3))
 1887               		.stabn	68,0,749,.LM287-.LFBB25
 1888               	.LM287:
 1889 071c 8091 0000 		lds r24,modeRecherche
 1890 0720 8823      		tst r24
 1891 0722 01F4      		brne .+2
 1892 0724 00C0      		rjmp .L253
 1893               		.stabn	68,0,749,.LM288-.LFBB25
 1894               	.LM288:
 1895 0726 83E0      		ldi r24,lo8(3)
 1896 0728 0E94 0000 		call _Z17directionConvienth
 1897 072c 8823      		tst r24
 1898 072e 01F4      		brne .+2
 1899 0730 00C0      		rjmp .L236
 1900 0732 00C0      		rjmp .L253
 1901               	.L230:
 750:robot_chat.cpp **** 			nullifierDistanceAParcourir();
 751:robot_chat.cpp **** 
 752:robot_chat.cpp **** 		modeVirageDroite = true;
 753:robot_chat.cpp **** 		r.decoincer(true, false, true);
 754:robot_chat.cpp **** 		return;
 755:robot_chat.cpp **** 	}
 756:robot_chat.cpp **** 	if(!droiteExiste && milieuExiste && !gaucheExiste) //milieu
 1902               		.stabn	68,0,756,.LM289-.LFBB25
 1903               	.LM289:
 1904 0734 9111      		cpse r25,__zero_reg__
 1905 0736 00C0      		rjmp .L234
 757:robot_chat.cpp **** 	{
 758:robot_chat.cpp **** 		/*if(modeRecherche && !directionConvient(2))*/
 759:robot_chat.cpp **** 		if(!modeFoncer)
 1906               		.stabn	68,0,759,.LM290-.LFBB25
 1907               	.LM290:
 1908 0738 8091 0000 		lds r24,modeFoncer
 1909 073c 8111      		cpse r24,__zero_reg__
 1910 073e 00C0      		rjmp .L278
 760:robot_chat.cpp **** 			nullifierDistanceAParcourir();
 1911               		.stabn	68,0,760,.LM291-.LFBB25
 1912               	.LM291:
 1913 0740 0E94 0000 		call _Z27nullifierDistanceAParcourirv
 1914 0744 00C0      		rjmp .L278
 1915               	.L234:
 761:robot_chat.cpp **** 
 762:robot_chat.cpp **** 		r.decoincer(true, true, true);
 763:robot_chat.cpp **** 		modeLigneDroite = true;
 764:robot_chat.cpp **** 		return;
 765:robot_chat.cpp **** 	}
 766:robot_chat.cpp **** 
 767:robot_chat.cpp **** 	//--------------------------------
 768:robot_chat.cpp **** 	//Cas complexe
 769:robot_chat.cpp **** 	//--------------------------------
 770:robot_chat.cpp **** 
GAS LISTING /tmp/ccfQOnsU.s 			page 50


 771:robot_chat.cpp **** 		//--------------------------------
 772:robot_chat.cpp **** 		//Mode foncer
 773:robot_chat.cpp **** 		//--------------------------------
 774:robot_chat.cpp **** 		if(modeFoncer) //Si on est en mode foncer et qu'on peut aller au milieu
 1916               		.stabn	68,0,774,.LM292-.LFBB25
 1917               	.LM292:
 1918 0746 9091 0000 		lds r25,modeFoncer
 1919 074a 9923      		tst r25
 1920 074c 01F0      		breq .L239
 775:robot_chat.cpp **** 		{
 776:robot_chat.cpp **** 			if(milieuExiste)
 1921               		.stabn	68,0,776,.LM293-.LFBB25
 1922               	.LM293:
 1923 074e 9091 0000 		lds r25,milieuExiste
 1924 0752 9923      		tst r25
 1925 0754 01F0      		breq .L240
 1926               	.L278:
 777:robot_chat.cpp **** 			{
 778:robot_chat.cpp **** 				r.decoincer(true, true, true);
 1927               		.stabn	68,0,778,.LM294-.LFBB25
 1928               	.LM294:
 1929 0756 41E0      		ldi r20,lo8(1)
 1930 0758 61E0      		ldi r22,lo8(1)
 1931 075a 81E0      		ldi r24,lo8(1)
 1932 075c 0E94 0000 		call _ZN8LibRobot9decoincerEbbb
 779:robot_chat.cpp **** 				modeLigneDroite = true;
 1933               		.stabn	68,0,779,.LM295-.LFBB25
 1934               	.LM295:
 1935 0760 81E0      		ldi r24,lo8(1)
 1936 0762 8093 0000 		sts modeLigneDroite,r24
 780:robot_chat.cpp **** 				return;
 1937               		.stabn	68,0,780,.LM296-.LFBB25
 1938               	.LM296:
 1939 0766 0895      		ret
 1940               	.L240:
 781:robot_chat.cpp **** 			}
 782:robot_chat.cpp **** 		
 783:robot_chat.cpp **** 			//Si on est en mode foncer et qu'on ne peut pas aller tout droit, on tourne d'un côté ou de l'
 784:robot_chat.cpp **** 			//Prioriser le côté qui permet de ce rapprocher
 785:robot_chat.cpp **** 			if(droiteExiste && gaucheExiste)
 1941               		.stabn	68,0,785,.LM297-.LFBB25
 1942               	.LM297:
 1943 0768 8823      		tst r24
 1944 076a 01F4      		brne .+2
 1945 076c 00C0      		rjmp .L252
 1946               		.stabn	68,0,785,.LM298-.LFBB25
 1947               	.LM298:
 1948 076e 8091 0000 		lds r24,gaucheExiste
 1949 0772 8823      		tst r24
 1950 0774 01F4      		brne .+2
 1951 0776 00C0      		rjmp .L253
 786:robot_chat.cpp **** 			{
 787:robot_chat.cpp **** 				//Droite prioritaire
 788:robot_chat.cpp **** 				if(distanceAParcourirX !=4 && distanceAParcourirX != 0)
 1952               		.stabn	68,0,788,.LM299-.LFBB25
 1953               	.LM299:
 1954 0778 8091 0000 		lds r24,distanceAParcourirX
GAS LISTING /tmp/ccfQOnsU.s 			page 51


 1955 077c 8430      		cpi r24,lo8(4)
 1956 077e 01F4      		brne .+2
 1957 0780 00C0      		rjmp .L252
 1958               		.stabn	68,0,788,.LM300-.LFBB25
 1959               	.LM300:
 1960 0782 8823      		tst r24
 1961 0784 01F4      		brne .+2
 1962 0786 00C0      		rjmp .L252
 1963 0788 00C0      		rjmp .L253
 1964               	.L239:
 789:robot_chat.cpp **** 				{
 790:robot_chat.cpp **** 					if(droiteExiste)
 791:robot_chat.cpp **** 					{
 792:robot_chat.cpp **** 						modeVirageDroite = true;
 793:robot_chat.cpp **** 						r.decoincer(true, false, true);
 794:robot_chat.cpp **** 						return;
 795:robot_chat.cpp **** 					}
 796:robot_chat.cpp **** 					else
 797:robot_chat.cpp **** 					{
 798:robot_chat.cpp **** 						modeVirageGauche = true;
 799:robot_chat.cpp **** 						r.decoincer(false, true, true);
 800:robot_chat.cpp **** 						return;
 801:robot_chat.cpp **** 					}
 802:robot_chat.cpp **** 				}
 803:robot_chat.cpp **** 				else //Gauche prioritaire
 804:robot_chat.cpp **** 				{
 805:robot_chat.cpp **** 					if(gaucheExiste)
 806:robot_chat.cpp **** 					{
 807:robot_chat.cpp **** 						modeVirageGauche = true;
 808:robot_chat.cpp **** 						r.decoincer(false, true, true);
 809:robot_chat.cpp **** 						return;
 810:robot_chat.cpp **** 					}
 811:robot_chat.cpp **** 					else
 812:robot_chat.cpp **** 					{
 813:robot_chat.cpp **** 						modeVirageDroite = true;
 814:robot_chat.cpp **** 						r.decoincer(true, false, true);
 815:robot_chat.cpp **** 						return;
 816:robot_chat.cpp **** 					}
 817:robot_chat.cpp **** 				}
 818:robot_chat.cpp **** 			}
 819:robot_chat.cpp **** 
 820:robot_chat.cpp **** 			if(droiteExiste)
 821:robot_chat.cpp **** 			{
 822:robot_chat.cpp **** 				modeVirageDroite = true;
 823:robot_chat.cpp **** 				r.decoincer(true, false, true);
 824:robot_chat.cpp **** 				return;
 825:robot_chat.cpp **** 			}
 826:robot_chat.cpp **** 			else
 827:robot_chat.cpp **** 			{
 828:robot_chat.cpp **** 				modeVirageGauche = true;
 829:robot_chat.cpp **** 				r.decoincer(false, true, true);
 830:robot_chat.cpp **** 				return;
 831:robot_chat.cpp **** 			}
 832:robot_chat.cpp **** 		}
 833:robot_chat.cpp **** 
 834:robot_chat.cpp **** 		//--------------------------------
 835:robot_chat.cpp **** 		//Mode recherche
GAS LISTING /tmp/ccfQOnsU.s 			page 52


 836:robot_chat.cpp **** 		//--------------------------------
 837:robot_chat.cpp **** 		if(modeRecherche)
 1965               		.stabn	68,0,837,.LM301-.LFBB25
 1966               	.LM301:
 1967 078a 8091 0000 		lds r24,modeRecherche
 1968 078e 8823      		tst r24
 1969 0790 01F4      		brne .+2
 1970 0792 00C0      		rjmp .L228
 838:robot_chat.cpp **** 		{
 839:robot_chat.cpp **** 			//Vérifier si l'on connait la position du robot
 840:robot_chat.cpp **** 			if(nbIntersection >= nbIntersectionMax)
 1971               		.stabn	68,0,840,.LM302-.LFBB25
 1972               	.LM302:
 1973 0794 9091 0000 		lds r25,nbIntersection
 1974 0798 8091 0000 		lds r24,nbIntersectionMax
 1975 079c 9817      		cp r25,r24
 1976 079e 00F0      		brlo .L244
 841:robot_chat.cpp **** 			{
 842:robot_chat.cpp **** 				nbIntersection = 0;
 1977               		.stabn	68,0,842,.LM303-.LFBB25
 1978               	.LM303:
 1979 07a0 1092 0000 		sts nbIntersection,__zero_reg__
 843:robot_chat.cpp **** 				tomberEnModeDetection();
 1980               		.stabn	68,0,843,.LM304-.LFBB25
 1981               	.LM304:
 1982 07a4 0E94 0000 		call _Z21tomberEnModeDetectionv
 1983               	.L244:
 844:robot_chat.cpp **** 			}
 845:robot_chat.cpp **** 
 846:robot_chat.cpp **** 			if(distanceAParcourirX == 4 && distanceAParcourirY == 4)
 1984               		.stabn	68,0,846,.LM305-.LFBB25
 1985               	.LM305:
 1986 07a8 8091 0000 		lds r24,distanceAParcourirX
 1987 07ac 8430      		cpi r24,lo8(4)
 1988 07ae 01F4      		brne .L245
 1989               		.stabn	68,0,846,.LM306-.LFBB25
 1990               	.LM306:
 1991 07b0 8091 0000 		lds r24,distanceAParcourirY
 1992 07b4 8430      		cpi r24,lo8(4)
 1993 07b6 01F4      		brne .L246
 1994               	.L250:
 847:robot_chat.cpp **** 			{
 848:robot_chat.cpp **** 				//On ne connait pas la position du robot on doit donc passer en mode détection pour le trouver
 849:robot_chat.cpp **** 				tomberEnModeDetection();
 1995               		.stabn	68,0,849,.LM307-.LFBB25
 1996               	.LM307:
 1997 07b8 0C94 0000 		jmp _Z21tomberEnModeDetectionv
 1998               	.L245:
 850:robot_chat.cpp **** 			}
 851:robot_chat.cpp **** 			else //On connait la position du robot
 852:robot_chat.cpp **** 			{
 853:robot_chat.cpp **** 				//Vérifier si il est possible de se rendre a la position du robot, sans quoi on nullifie la po
 854:robot_chat.cpp **** 				//afin de retomber eventuellement en mode detection
 855:robot_chat.cpp **** 								
 856:robot_chat.cpp **** 				if(distanceAParcourirX !=4 && distanceAParcourirX > 0) //Prioriser la droite
 1999               		.stabn	68,0,856,.LM308-.LFBB25
 2000               	.LM308:
GAS LISTING /tmp/ccfQOnsU.s 			page 53


 2001 07bc 1816      		cp __zero_reg__,r24
 2002 07be 04F4      		brge .L246
 857:robot_chat.cpp **** 				{
 858:robot_chat.cpp **** 					if(droiteExiste && directionConvient(3))
 2003               		.stabn	68,0,858,.LM309-.LFBB25
 2004               	.LM309:
 2005 07c0 8091 0000 		lds r24,droiteExiste
 2006 07c4 8823      		tst r24
 2007 07c6 01F0      		breq .L247
 2008               		.stabn	68,0,858,.LM310-.LFBB25
 2009               	.LM310:
 2010 07c8 83E0      		ldi r24,lo8(3)
 2011 07ca 0E94 0000 		call _Z17directionConvienth
 2012 07ce 8111      		cpse r24,__zero_reg__
 2013 07d0 00C0      		rjmp .L253
 2014 07d2 00C0      		rjmp .L247
 2015               	.L254:
 859:robot_chat.cpp **** 					{
 860:robot_chat.cpp **** 						modeVirageDroite = true;
 861:robot_chat.cpp **** 						r.decoincer(true, false, true);
 862:robot_chat.cpp **** 						return;
 863:robot_chat.cpp **** 					}
 864:robot_chat.cpp **** 					else if(gaucheExiste && directionConvient(1))
 2016               		.stabn	68,0,864,.LM311-.LFBB25
 2017               	.LM311:
 2018 07d4 81E0      		ldi r24,lo8(1)
 2019 07d6 0E94 0000 		call _Z17directionConvienth
 2020 07da 8111      		cpse r24,__zero_reg__
 2021 07dc 00C0      		rjmp .L252
 2022 07de 00C0      		rjmp .L250
 2023               	.L246:
 865:robot_chat.cpp **** 					{
 866:robot_chat.cpp **** 						modeVirageGauche = true;
 867:robot_chat.cpp **** 						r.decoincer(false, true, true);
 868:robot_chat.cpp **** 						return;
 869:robot_chat.cpp **** 					}
 870:robot_chat.cpp **** 				}
 871:robot_chat.cpp **** 				else //Prioriser la gauche
 872:robot_chat.cpp **** 				{
 873:robot_chat.cpp **** 					if(gaucheExiste && directionConvient(1))
 2024               		.stabn	68,0,873,.LM312-.LFBB25
 2025               	.LM312:
 2026 07e0 8091 0000 		lds r24,gaucheExiste
 2027 07e4 8823      		tst r24
 2028 07e6 01F0      		breq .L251
 2029               		.stabn	68,0,873,.LM313-.LFBB25
 2030               	.LM313:
 2031 07e8 81E0      		ldi r24,lo8(1)
 2032 07ea 0E94 0000 		call _Z17directionConvienth
 2033 07ee 8111      		cpse r24,__zero_reg__
 2034 07f0 00C0      		rjmp .L252
 2035 07f2 00C0      		rjmp .L251
 2036               	.L255:
 874:robot_chat.cpp **** 					{
 875:robot_chat.cpp **** 						modeVirageGauche = true;
 876:robot_chat.cpp **** 						r.decoincer(false, true, true);
 877:robot_chat.cpp **** 						return;
GAS LISTING /tmp/ccfQOnsU.s 			page 54


 878:robot_chat.cpp **** 					}
 879:robot_chat.cpp **** 					else if(droiteExiste && directionConvient(3))
 2037               		.stabn	68,0,879,.LM314-.LFBB25
 2038               	.LM314:
 2039 07f4 83E0      		ldi r24,lo8(3)
 2040 07f6 0E94 0000 		call _Z17directionConvienth
 2041 07fa 8111      		cpse r24,__zero_reg__
 2042 07fc 00C0      		rjmp .L253
 2043 07fe 00C0      		rjmp .L250
 2044               	.L233:
 741:robot_chat.cpp **** 			nullifierDistanceAParcourir();	//Sans quoi on nullifie la distance a parcourir (comme elle ne se
 2045               		.stabn	68,0,741,.LM315-.LFBB25
 2046               	.LM315:
 2047 0800 0E94 0000 		call _Z27nullifierDistanceAParcourirv
 2048 0804 00C0      		rjmp .L252
 2049               	.L236:
 750:robot_chat.cpp **** 			nullifierDistanceAParcourir();
 2050               		.stabn	68,0,750,.LM316-.LFBB25
 2051               	.LM316:
 2052 0806 0E94 0000 		call _Z27nullifierDistanceAParcourirv
 2053 080a 00C0      		rjmp .L253
 2054               	.L247:
 864:robot_chat.cpp **** 					else if(gaucheExiste && directionConvient(1))
 2055               		.stabn	68,0,864,.LM317-.LFBB25
 2056               	.LM317:
 2057 080c 8091 0000 		lds r24,gaucheExiste
 2058 0810 8111      		cpse r24,__zero_reg__
 2059 0812 00C0      		rjmp .L254
 2060 0814 00C0      		rjmp .L250
 2061               	.L252:
 875:robot_chat.cpp **** 						modeVirageGauche = true;
 2062               		.stabn	68,0,875,.LM318-.LFBB25
 2063               	.LM318:
 2064 0816 81E0      		ldi r24,lo8(1)
 2065 0818 8093 0000 		sts modeVirageGauche,r24
 876:robot_chat.cpp **** 						r.decoincer(false, true, true);
 2066               		.stabn	68,0,876,.LM319-.LFBB25
 2067               	.LM319:
 2068 081c 41E0      		ldi r20,lo8(1)
 2069 081e 61E0      		ldi r22,lo8(1)
 2070 0820 80E0      		ldi r24,0
 2071 0822 00C0      		rjmp .L277
 2072               	.L251:
 2073               		.stabn	68,0,879,.LM320-.LFBB25
 2074               	.LM320:
 2075 0824 8091 0000 		lds r24,droiteExiste
 2076 0828 8111      		cpse r24,__zero_reg__
 2077 082a 00C0      		rjmp .L255
 2078 082c 00C0      		rjmp .L250
 2079               	.L253:
 880:robot_chat.cpp **** 					{
 881:robot_chat.cpp **** 						modeVirageDroite = true;
 2080               		.stabn	68,0,881,.LM321-.LFBB25
 2081               	.LM321:
 2082 082e 81E0      		ldi r24,lo8(1)
 2083 0830 8093 0000 		sts modeVirageDroite,r24
 882:robot_chat.cpp **** 						r.decoincer(true, false, true);
GAS LISTING /tmp/ccfQOnsU.s 			page 55


 2084               		.stabn	68,0,882,.LM322-.LFBB25
 2085               	.LM322:
 2086 0834 41E0      		ldi r20,lo8(1)
 2087 0836 60E0      		ldi r22,0
 2088               	.L277:
 2089 0838 0C94 0000 		jmp _ZN8LibRobot9decoincerEbbb
 2090               	.L228:
 2091 083c 0895      		ret
 2092               		.size	_Z14decisionViragebb, .-_Z14decisionViragebb
 2093               	.Lscope25:
 2094               		.stabs	"",36,0,0,.Lscope25-.LFBB25
 2095               		.stabd	78,0,0
 2096               		.stabs	"_Z33garderEnMemoirePositionsRelativesv:F(0,4)",36,0,919,_Z33garderEnMemoirePositionsRelati
 2097               	.global	_Z33garderEnMemoirePositionsRelativesv
 2098               		.type	_Z33garderEnMemoirePositionsRelativesv, @function
 2099               	_Z33garderEnMemoirePositionsRelativesv:
 2100               		.stabd	46,0,0
 883:robot_chat.cpp **** 						return;
 884:robot_chat.cpp **** 					}
 885:robot_chat.cpp **** 				}
 886:robot_chat.cpp **** 
 887:robot_chat.cpp **** 				//On priorise le milieu en dernier, puisque si il était au milieu on serait surment en mode fo
 888:robot_chat.cpp **** 				/*if(milieuExiste && directionConvient(2))
 889:robot_chat.cpp **** 				{
 890:robot_chat.cpp **** 					r.decoincer(true, true, true);
 891:robot_chat.cpp **** 					modeLigneDroite = true;
 892:robot_chat.cpp **** 					return;
 893:robot_chat.cpp **** 				}*/	
 894:robot_chat.cpp **** 
 895:robot_chat.cpp **** 				//Si aucun convient
 896:robot_chat.cpp **** 				tomberEnModeDetection();
 897:robot_chat.cpp **** 				/*if(droiteExiste)
 898:robot_chat.cpp **** 				{
 899:robot_chat.cpp **** 					modeVirageDroite = true;
 900:robot_chat.cpp **** 					r.decoincer(true, false, true);
 901:robot_chat.cpp **** 					return;
 902:robot_chat.cpp **** 				}
 903:robot_chat.cpp **** 				else if(gaucheExiste)
 904:robot_chat.cpp **** 				{
 905:robot_chat.cpp **** 					modeVirageGauche = true;
 906:robot_chat.cpp **** 					r.decoincer(false, true, true);
 907:robot_chat.cpp **** 					return;
 908:robot_chat.cpp **** 				}
 909:robot_chat.cpp **** 				else
 910:robot_chat.cpp **** 				{
 911:robot_chat.cpp **** 					r.decoincer(true, true, true);
 912:robot_chat.cpp **** 					modeLigneDroite = true;
 913:robot_chat.cpp **** 					return;
 914:robot_chat.cpp **** 				}*/
 915:robot_chat.cpp **** 			}		
 916:robot_chat.cpp **** 		}
 917:robot_chat.cpp **** }
 918:robot_chat.cpp **** 
 919:robot_chat.cpp **** void garderEnMemoirePositionsRelatives()
 920:robot_chat.cpp **** {
 2101               		.stabn	68,0,920,.LM323-.LFBB26
 2102               	.LM323:
GAS LISTING /tmp/ccfQOnsU.s 			page 56


 2103               	.LFBB26:
 2104               	/* prologue: function */
 2105               	/* frame size = 0 */
 2106               	/* stack size = 0 */
 2107               	.L__stack_usage = 0
 921:robot_chat.cpp **** 	if(positionRalativeX == 4 && positionRalativeY == 4)
 2108               		.stabn	68,0,921,.LM324-.LFBB26
 2109               	.LM324:
 2110 083e 9091 0000 		lds r25,positionRalativeX
 2111 0842 8091 0000 		lds r24,positionRalativeY
 2112 0846 9430      		cpi r25,lo8(4)
 2113 0848 01F4      		brne .L280
 2114               		.stabn	68,0,921,.LM325-.LFBB26
 2115               	.LM325:
 2116 084a 8430      		cpi r24,lo8(4)
 2117 084c 01F4      		brne .L281
 2118 084e 0895      		ret
 2119               	.L280:
 922:robot_chat.cpp **** 		return;
 923:robot_chat.cpp **** 
 924:robot_chat.cpp **** 	if(positionRalativeX != 4)
 925:robot_chat.cpp **** 		distanceAParcourirX = positionRalativeX;
 2120               		.stabn	68,0,925,.LM326-.LFBB26
 2121               	.LM326:
 2122 0850 9093 0000 		sts distanceAParcourirX,r25
 2123               	.L281:
 926:robot_chat.cpp **** 
 927:robot_chat.cpp **** 	if(positionRalativeY != 4)
 2124               		.stabn	68,0,927,.LM327-.LFBB26
 2125               	.LM327:
 2126 0854 8430      		cpi r24,lo8(4)
 2127 0856 01F0      		breq .L279
 928:robot_chat.cpp **** 		distanceAParcourirY = positionRalativeY;	 
 2128               		.stabn	68,0,928,.LM328-.LFBB26
 2129               	.LM328:
 2130 0858 8093 0000 		sts distanceAParcourirY,r24
 2131               	.L279:
 2132 085c 0895      		ret
 2133               		.size	_Z33garderEnMemoirePositionsRelativesv, .-_Z33garderEnMemoirePositionsRelativesv
 2134               	.Lscope26:
 2135               		.stabs	"",36,0,0,.Lscope26-.LFBB26
 2136               		.stabd	78,0,0
 2137               		.stabs	"_Z16calculerDistancev:F(0,4)",36,0,931,_Z16calculerDistancev
 2138               	.global	_Z16calculerDistancev
 2139               		.type	_Z16calculerDistancev, @function
 2140               	_Z16calculerDistancev:
 2141               		.stabd	46,0,0
 929:robot_chat.cpp **** }
 930:robot_chat.cpp **** 
 931:robot_chat.cpp **** void calculerDistance()
 932:robot_chat.cpp **** {
 2142               		.stabn	68,0,932,.LM329-.LFBB27
 2143               	.LM329:
 2144               	.LFBB27:
 2145 085e CF93      		push r28
 2146 0860 DF93      		push r29
 2147 0862 1F92      		push __zero_reg__
GAS LISTING /tmp/ccfQOnsU.s 			page 57


 2148 0864 CDB7      		in r28,__SP_L__
 2149 0866 DEB7      		in r29,__SP_H__
 2150               	/* prologue: function */
 2151               	/* frame size = 1 */
 2152               	/* stack size = 3 */
 2153               	.L__stack_usage = 3
 2154               	.LBB52:
 933:robot_chat.cpp **** 	can convertisseur=can();
 2155               		.stabn	68,0,933,.LM330-.LFBB27
 2156               	.LM330:
 2157 0868 CE01      		movw r24,r28
 2158 086a 0196      		adiw r24,1
 2159 086c 0E94 0000 		call _ZN3canC1Ev
 934:robot_chat.cpp **** 	distance16=convertisseur.lecture(VALEURANALOGIQUE);
 2160               		.stabn	68,0,934,.LM331-.LFBB27
 2161               	.LM331:
 2162 0870 60B1      		in r22,0
 2163 0872 6270      		andi r22,lo8(2)
 2164 0874 CE01      		movw r24,r28
 2165 0876 0196      		adiw r24,1
 2166 0878 0E94 0000 		call _ZN3can7lectureEh
 2167 087c 9093 0000 		sts distance16+1,r25
 2168 0880 8093 0000 		sts distance16,r24
 2169 0884 CE01      		movw r24,r28
 2170 0886 0196      		adiw r24,1
 2171 0888 0E94 0000 		call _ZN3canD1Ev
 2172               	/* epilogue start */
 2173               	.LBE52:
 935:robot_chat.cpp **** }
 2174               		.stabn	68,0,935,.LM332-.LFBB27
 2175               	.LM332:
 2176 088c 0F90      		pop __tmp_reg__
 2177 088e DF91      		pop r29
 2178 0890 CF91      		pop r28
 2179 0892 0895      		ret
 2180               		.size	_Z16calculerDistancev, .-_Z16calculerDistancev
 2181               		.stabs	"convertisseur:(0,77)",128,0,933,1
 2182               		.stabn	192,0,0,.LBB52-.LFBB27
 2183               		.stabn	224,0,0,.LBE52-.LFBB27
 2184               	.Lscope27:
 2185               		.stabs	"",36,0,0,.Lscope27-.LFBB27
 2186               		.stabd	78,0,0
 2187               		.stabs	"_Z15ajusterDistancev:F(0,4)",36,0,937,_Z15ajusterDistancev
 2188               	.global	_Z15ajusterDistancev
 2189               		.type	_Z15ajusterDistancev, @function
 2190               	_Z15ajusterDistancev:
 2191               		.stabd	46,0,0
 936:robot_chat.cpp **** 
 937:robot_chat.cpp **** void ajusterDistance()
 938:robot_chat.cpp **** {
 2192               		.stabn	68,0,938,.LM333-.LFBB28
 2193               	.LM333:
 2194               	.LFBB28:
 2195               	/* prologue: function */
 2196               	/* frame size = 0 */
 2197               	/* stack size = 0 */
 2198               	.L__stack_usage = 0
GAS LISTING /tmp/ccfQOnsU.s 			page 58


 939:robot_chat.cpp **** 	distance16=distance16>>2;
 2199               		.stabn	68,0,939,.LM334-.LFBB28
 2200               	.LM334:
 2201 0894 8091 0000 		lds r24,distance16
 2202 0898 9091 0000 		lds r25,distance16+1
 2203 089c 9695      		lsr r25
 2204 089e 8795      		ror r24
 2205 08a0 9695      		lsr r25
 2206 08a2 8795      		ror r24
 2207 08a4 9093 0000 		sts distance16+1,r25
 2208 08a8 8093 0000 		sts distance16,r24
 940:robot_chat.cpp **** 	//distance8 = (distance16 & 0x00FF);
 941:robot_chat.cpp **** 	distance8 = distance16;
 2209               		.stabn	68,0,941,.LM335-.LFBB28
 2210               	.LM335:
 2211 08ac 8093 0000 		sts distance8,r24
 2212 08b0 0895      		ret
 2213               		.size	_Z15ajusterDistancev, .-_Z15ajusterDistancev
 2214               	.Lscope28:
 2215               		.stabs	"",36,0,0,.Lscope28-.LFBB28
 2216               		.stabd	78,0,0
 2217               		.stabs	"_Z25ajusterDistanceAParcourirv:F(0,4)",36,0,944,_Z25ajusterDistanceAParcourirv
 2218               	.global	_Z25ajusterDistanceAParcourirv
 2219               		.type	_Z25ajusterDistanceAParcourirv, @function
 2220               	_Z25ajusterDistanceAParcourirv:
 2221               		.stabd	46,0,0
 942:robot_chat.cpp **** }
 943:robot_chat.cpp **** 
 944:robot_chat.cpp **** void ajusterDistanceAParcourir()
 945:robot_chat.cpp **** {
 2222               		.stabn	68,0,945,.LM336-.LFBB29
 2223               	.LM336:
 2224               	.LFBB29:
 2225               	/* prologue: function */
 2226               	/* frame size = 0 */
 2227               	/* stack size = 0 */
 2228               	.L__stack_usage = 0
 946:robot_chat.cpp **** 	if(distanceAParcourirX == 4 || distanceAParcourirY == 4)
 2229               		.stabn	68,0,946,.LM337-.LFBB29
 2230               	.LM337:
 2231 08b2 9091 0000 		lds r25,distanceAParcourirX
 2232 08b6 9430      		cpi r25,lo8(4)
 2233 08b8 01F0      		breq .L289
 2234               		.stabn	68,0,946,.LM338-.LFBB29
 2235               	.LM338:
 2236 08ba 2091 0000 		lds r18,distanceAParcourirY
 2237 08be 2430      		cpi r18,lo8(4)
 2238 08c0 01F0      		breq .L289
 947:robot_chat.cpp **** 		return;
 948:robot_chat.cpp **** 
 949:robot_chat.cpp **** 	if(directionCourrante == 1) //Nord
 2239               		.stabn	68,0,949,.LM339-.LFBB29
 2240               	.LM339:
 2241 08c2 8091 0000 		lds r24,directionCourrante
 2242 08c6 8130      		cpi r24,lo8(1)
 2243 08c8 01F4      		brne .L291
 950:robot_chat.cpp **** 	{
GAS LISTING /tmp/ccfQOnsU.s 			page 59


 951:robot_chat.cpp **** 		if(distanceAParcourirY != 4)
 952:robot_chat.cpp **** 			distanceAParcourirY--;
 2244               		.stabn	68,0,952,.LM340-.LFBB29
 2245               	.LM340:
 2246 08ca 2150      		subi r18,lo8(-(-1))
 2247 08cc 00C0      		rjmp .L300
 2248               	.L291:
 953:robot_chat.cpp **** 		return;
 954:robot_chat.cpp **** 	}
 955:robot_chat.cpp **** 
 956:robot_chat.cpp **** 	if(directionCourrante == 2) //Est
 2249               		.stabn	68,0,956,.LM341-.LFBB29
 2250               	.LM341:
 2251 08ce 8230      		cpi r24,lo8(2)
 2252 08d0 01F4      		brne .L292
 957:robot_chat.cpp **** 	{
 958:robot_chat.cpp **** 		if(distanceAParcourirX != 4)
 959:robot_chat.cpp **** 			distanceAParcourirX--;
 2253               		.stabn	68,0,959,.LM342-.LFBB29
 2254               	.LM342:
 2255 08d2 9150      		subi r25,lo8(-(-1))
 2256 08d4 00C0      		rjmp .L301
 2257               	.L292:
 960:robot_chat.cpp **** 		return;
 961:robot_chat.cpp **** 	}
 962:robot_chat.cpp **** 
 963:robot_chat.cpp **** 	if(directionCourrante == 3) //Sud
 2258               		.stabn	68,0,963,.LM343-.LFBB29
 2259               	.LM343:
 2260 08d6 8330      		cpi r24,lo8(3)
 2261 08d8 01F4      		brne .L293
 964:robot_chat.cpp **** 	{
 965:robot_chat.cpp **** 		if(distanceAParcourirY != 4)
 966:robot_chat.cpp **** 			distanceAParcourirY++;
 2262               		.stabn	68,0,966,.LM344-.LFBB29
 2263               	.LM344:
 2264 08da 2F5F      		subi r18,lo8(-(1))
 2265               	.L300:
 2266 08dc 2093 0000 		sts distanceAParcourirY,r18
 2267 08e0 0895      		ret
 2268               	.L293:
 967:robot_chat.cpp **** 		return;
 968:robot_chat.cpp **** 	}
 969:robot_chat.cpp **** 
 970:robot_chat.cpp **** 	if(directionCourrante == 4) //Ouest
 2269               		.stabn	68,0,970,.LM345-.LFBB29
 2270               	.LM345:
 2271 08e2 8430      		cpi r24,lo8(4)
 2272 08e4 01F4      		brne .L289
 971:robot_chat.cpp **** 	{
 972:robot_chat.cpp **** 		if(distanceAParcourirX != 4)
 973:robot_chat.cpp **** 			distanceAParcourirX++;
 2273               		.stabn	68,0,973,.LM346-.LFBB29
 2274               	.LM346:
 2275 08e6 9F5F      		subi r25,lo8(-(1))
 2276               	.L301:
 2277 08e8 9093 0000 		sts distanceAParcourirX,r25
GAS LISTING /tmp/ccfQOnsU.s 			page 60


 2278               	.L289:
 2279 08ec 0895      		ret
 2280               		.size	_Z25ajusterDistanceAParcourirv, .-_Z25ajusterDistanceAParcourirv
 2281               	.Lscope29:
 2282               		.stabs	"",36,0,0,.Lscope29-.LFBB29
 2283               		.stabd	78,0,0
 2284               		.stabs	"_Z20ajusterVitesseViragev:F(0,4)",36,0,978,_Z20ajusterVitesseViragev
 2285               	.global	_Z20ajusterVitesseViragev
 2286               		.type	_Z20ajusterVitesseViragev, @function
 2287               	_Z20ajusterVitesseViragev:
 2288               		.stabd	46,0,0
 974:robot_chat.cpp **** 		return;
 975:robot_chat.cpp **** 	}
 976:robot_chat.cpp **** }
 977:robot_chat.cpp **** 
 978:robot_chat.cpp **** void ajusterVitesseVirage()
 979:robot_chat.cpp **** {
 2289               		.stabn	68,0,979,.LM347-.LFBB30
 2290               	.LM347:
 2291               	.LFBB30:
 2292               	/* prologue: function */
 2293               	/* frame size = 0 */
 2294               	/* stack size = 0 */
 2295               	.L__stack_usage = 0
 980:robot_chat.cpp **** 	varianceVitesseVirage -= varianceVitesseVirageDeceleration;
 2296               		.stabn	68,0,980,.LM348-.LFBB30
 2297               	.LM348:
 2298 08ee 8091 0000 		lds r24,varianceVitesseVirage
 2299 08f2 9091 0000 		lds r25,varianceVitesseVirageDeceleration
 2300 08f6 891B      		sub r24,r25
 2301 08f8 8093 0000 		sts varianceVitesseVirage,r24
 981:robot_chat.cpp **** 	if(varianceVitesseVirage < varianceVitesseVirageMin)
 2302               		.stabn	68,0,981,.LM349-.LFBB30
 2303               	.LM349:
 2304 08fc 9091 0000 		lds r25,varianceVitesseVirageMin
 2305 0900 8917      		cp r24,r25
 2306 0902 04F4      		brge .L302
 982:robot_chat.cpp **** 		varianceVitesseVirage = varianceVitesseVirageMax;
 2307               		.stabn	68,0,982,.LM350-.LFBB30
 2308               	.LM350:
 2309 0904 8091 0000 		lds r24,varianceVitesseVirageMax
 2310 0908 8093 0000 		sts varianceVitesseVirage,r24
 2311               	.L302:
 2312 090c 0895      		ret
 2313               		.size	_Z20ajusterVitesseViragev, .-_Z20ajusterVitesseViragev
 2314               	.Lscope30:
 2315               		.stabs	"",36,0,0,.Lscope30-.LFBB30
 2316               		.stabd	78,0,0
 2317               		.stabs	"_Z29ajusterVitesseVirageDetectionv:F(0,4)",36,0,985,_Z29ajusterVitesseVirageDetectionv
 2318               	.global	_Z29ajusterVitesseVirageDetectionv
 2319               		.type	_Z29ajusterVitesseVirageDetectionv, @function
 2320               	_Z29ajusterVitesseVirageDetectionv:
 2321               		.stabd	46,0,0
 983:robot_chat.cpp **** }
 984:robot_chat.cpp **** 
 985:robot_chat.cpp **** void ajusterVitesseVirageDetection()
 986:robot_chat.cpp **** {
GAS LISTING /tmp/ccfQOnsU.s 			page 61


 2322               		.stabn	68,0,986,.LM351-.LFBB31
 2323               	.LM351:
 2324               	.LFBB31:
 2325               	/* prologue: function */
 2326               	/* frame size = 0 */
 2327               	/* stack size = 0 */
 2328               	.L__stack_usage = 0
 987:robot_chat.cpp **** 	varianceVitesseVirageDetection -= varianceVitesseVirageDetectionDeceleration;
 2329               		.stabn	68,0,987,.LM352-.LFBB31
 2330               	.LM352:
 2331 090e 8091 0000 		lds r24,varianceVitesseVirageDetection
 2332 0912 9091 0000 		lds r25,varianceVitesseVirageDetectionDeceleration
 2333 0916 891B      		sub r24,r25
 2334 0918 8093 0000 		sts varianceVitesseVirageDetection,r24
 988:robot_chat.cpp **** 	if(varianceVitesseVirageDetection < varianceVitesseVirageDetectionMin)
 2335               		.stabn	68,0,988,.LM353-.LFBB31
 2336               	.LM353:
 2337 091c 9091 0000 		lds r25,varianceVitesseVirageDetectionMin
 2338 0920 8917      		cp r24,r25
 2339 0922 04F4      		brge .L304
 989:robot_chat.cpp **** 		varianceVitesseVirageDetection = varianceVitesseVirageDetectionMax;
 2340               		.stabn	68,0,989,.LM354-.LFBB31
 2341               	.LM354:
 2342 0924 8091 0000 		lds r24,varianceVitesseVirageDetectionMax
 2343 0928 8093 0000 		sts varianceVitesseVirageDetection,r24
 2344               	.L304:
 2345 092c 0895      		ret
 2346               		.size	_Z29ajusterVitesseVirageDetectionv, .-_Z29ajusterVitesseVirageDetectionv
 2347               	.Lscope31:
 2348               		.stabs	"",36,0,0,.Lscope31-.LFBB31
 2349               		.stabd	78,0,0
 2350               		.stabs	"_Z32ajusterDelaiAjustementTemporairev:F(0,4)",36,0,992,_Z32ajusterDelaiAjustementTemporair
 2351               	.global	_Z32ajusterDelaiAjustementTemporairev
 2352               		.type	_Z32ajusterDelaiAjustementTemporairev, @function
 2353               	_Z32ajusterDelaiAjustementTemporairev:
 2354               		.stabd	46,0,0
 990:robot_chat.cpp **** }
 991:robot_chat.cpp **** 
 992:robot_chat.cpp **** void ajusterDelaiAjustementTemporaire()
 993:robot_chat.cpp **** {
 2355               		.stabn	68,0,993,.LM355-.LFBB32
 2356               	.LM355:
 2357               	.LFBB32:
 2358               	/* prologue: function */
 2359               	/* frame size = 0 */
 2360               	/* stack size = 0 */
 2361               	.L__stack_usage = 0
 994:robot_chat.cpp **** 	if(delaisAjustementTemporaire > 0)
 2362               		.stabn	68,0,994,.LM356-.LFBB32
 2363               	.LM356:
 2364 092e 8091 0000 		lds r24,delaisAjustementTemporaire
 2365 0932 9091 0000 		lds r25,delaisAjustementTemporaire+1
 2366 0936 1816      		cp __zero_reg__,r24
 2367 0938 1906      		cpc __zero_reg__,r25
 2368 093a 04F4      		brge .L306
 995:robot_chat.cpp **** 		delaisAjustementTemporaire -=10;
 2369               		.stabn	68,0,995,.LM357-.LFBB32
GAS LISTING /tmp/ccfQOnsU.s 			page 62


 2370               	.LM357:
 2371 093c 0A97      		sbiw r24,10
 2372 093e 9093 0000 		sts delaisAjustementTemporaire+1,r25
 2373 0942 8093 0000 		sts delaisAjustementTemporaire,r24
 2374               	.L306:
 2375 0946 0895      		ret
 2376               		.size	_Z32ajusterDelaiAjustementTemporairev, .-_Z32ajusterDelaiAjustementTemporairev
 2377               	.Lscope32:
 2378               		.stabs	"",36,0,0,.Lscope32-.LFBB32
 2379               		.stabd	78,0,0
 2380               		.stabs	"_Z5virerb:F(0,24)",36,0,998,_Z5virerb
 2381               		.stabs	"sens:P(0,24)",64,0,998,28
 2382               	.global	_Z5virerb
 2383               		.type	_Z5virerb, @function
 2384               	_Z5virerb:
 2385               		.stabd	46,0,0
 996:robot_chat.cpp **** }
 997:robot_chat.cpp **** 
 998:robot_chat.cpp **** bool virer(bool sens) //Retourne vrai si le virage est complet
 999:robot_chat.cpp **** {
 2386               		.stabn	68,0,999,.LM358-.LFBB33
 2387               	.LM358:
 2388               	.LFBB33:
 2389 0948 CF93      		push r28
 2390               	/* prologue: function */
 2391               	/* frame size = 0 */
 2392               	/* stack size = 1 */
 2393               	.L__stack_usage = 1
 2394 094a C82F      		mov r28,r24
1000:robot_chat.cpp **** 	ajusterDelaiAjustementTemporaire();
 2395               		.stabn	68,0,1000,.LM359-.LFBB33
 2396               	.LM359:
 2397 094c 0E94 0000 		call _Z32ajusterDelaiAjustementTemporairev
1001:robot_chat.cpp **** 	ajusterVitesseVirage();
 2398               		.stabn	68,0,1001,.LM360-.LFBB33
 2399               	.LM360:
 2400 0950 0E94 0000 		call _Z20ajusterVitesseViragev
1002:robot_chat.cpp **** 	r.virer(vitesseVirage-varianceVitesseVirage,ajustementGauche, ajustementDroit, sens);
 2401               		.stabn	68,0,1002,.LM361-.LFBB33
 2402               	.LM361:
 2403 0954 8091 0000 		lds r24,vitesseVirage
 2404 0958 9091 0000 		lds r25,varianceVitesseVirage
 2405 095c 2C2F      		mov r18,r28
 2406 095e 4091 0000 		lds r20,ajustementDroit
 2407 0962 6091 0000 		lds r22,ajustementGauche
 2408 0966 891B      		sub r24,r25
 2409 0968 0E94 0000 		call _ZN8LibRobot5virerEhaab
1003:robot_chat.cpp **** 
1004:robot_chat.cpp **** 	
1005:robot_chat.cpp **** 
1006:robot_chat.cpp **** 	if(sens) //droite
 2410               		.stabn	68,0,1006,.LM362-.LFBB33
 2411               	.LM362:
 2412 096c CC23      		tst r28
 2413 096e 01F0      		breq .L309
 2414               	.LBB57:
 2415               	.LBB58:
GAS LISTING /tmp/ccfQOnsU.s 			page 63


1007:robot_chat.cpp **** 	{	
1008:robot_chat.cpp **** 		if(!capteurDroit()) //Vérifier si le capteur droit est éteint; être certain qu'on a quitter la
 2416               		.stabn	68,0,1008,.LM363-.LFBB33
 2417               	.LM363:
 2418 0970 0E94 0000 		call _Z12capteurDroitv
 2419 0974 8111      		cpse r24,__zero_reg__
 2420 0976 00C0      		rjmp .L310
1009:robot_chat.cpp **** 			detecteurEnabled = true;
 2421               		.stabn	68,0,1009,.LM364-.LFBB33
 2422               	.LM364:
 2423 0978 81E0      		ldi r24,lo8(1)
 2424 097a 8093 0000 		sts detecteurEnabled,r24
 2425               	.L310:
1010:robot_chat.cpp **** 
1011:robot_chat.cpp **** 		if(capteurDroit() && detecteurEnabled) //Si le capteur droit est atteint et qu'il est enabled, al
 2426               		.stabn	68,0,1011,.LM365-.LFBB33
 2427               	.LM365:
 2428 097e 0E94 0000 		call _Z12capteurDroitv
 2429 0982 8823      		tst r24
 2430 0984 01F0      		breq .L317
 2431 0986 8091 0000 		lds r24,detecteurEnabled
 2432 098a 8111      		cpse r24,__zero_reg__
 2433 098c 00C0      		rjmp .L312
 2434 098e 00C0      		rjmp .L318
 2435               	.L309:
 2436               	.LBE58:
 2437               	.LBE57:
1012:robot_chat.cpp **** 		{
1013:robot_chat.cpp **** 			delaisAjustementTemporaire = dureeAjustementTournant;
1014:robot_chat.cpp **** 			ajustementTemporaireG = -ajustementTournant;
1015:robot_chat.cpp **** 			ajustementTemporaireD = ajustementTournant;
1016:robot_chat.cpp **** 
1017:robot_chat.cpp **** 			ajusterOrientation(false);
1018:robot_chat.cpp **** 			return true;
1019:robot_chat.cpp **** 		}
1020:robot_chat.cpp **** 
1021:robot_chat.cpp **** 		return false;
1022:robot_chat.cpp **** 	}
1023:robot_chat.cpp **** 	else	//gauche
1024:robot_chat.cpp **** 	{
1025:robot_chat.cpp **** 		if(!capteurGauche()) //Vérifier si le capteur gauche est éteint; être certain qu'on a quitter 
 2438               		.stabn	68,0,1025,.LM366-.LFBB33
 2439               	.LM366:
 2440 0990 0E94 0000 		call _Z13capteurGauchev
 2441 0994 8111      		cpse r24,__zero_reg__
 2442 0996 00C0      		rjmp .L314
1026:robot_chat.cpp **** 			detecteurEnabled = true;
 2443               		.stabn	68,0,1026,.LM367-.LFBB33
 2444               	.LM367:
 2445 0998 81E0      		ldi r24,lo8(1)
 2446 099a 8093 0000 		sts detecteurEnabled,r24
 2447               	.L314:
1027:robot_chat.cpp **** 
1028:robot_chat.cpp **** 		if(capteurGauche() && detecteurEnabled) //Si le capteur droit est atteint et qu'il est enabled, a
 2448               		.stabn	68,0,1028,.LM368-.LFBB33
 2449               	.LM368:
 2450 099e 0E94 0000 		call _Z13capteurGauchev
GAS LISTING /tmp/ccfQOnsU.s 			page 64


 2451 09a2 8823      		tst r24
 2452 09a4 01F0      		breq .L317
 2453               		.stabn	68,0,1028,.LM369-.LFBB33
 2454               	.LM369:
 2455 09a6 8091 0000 		lds r24,detecteurEnabled
 2456 09aa 8111      		cpse r24,__zero_reg__
 2457 09ac 00C0      		rjmp .L315
 2458 09ae 00C0      		rjmp .L318
 2459               	.L317:
1029:robot_chat.cpp **** 		{
1030:robot_chat.cpp **** 			delaisAjustementTemporaire = dureeAjustementTournant;
1031:robot_chat.cpp **** 			ajustementTemporaireG = ajustementTournant;
1032:robot_chat.cpp **** 			ajustementTemporaireD = -ajustementTournant;
1033:robot_chat.cpp **** 
1034:robot_chat.cpp **** 			ajusterOrientation(true);
1035:robot_chat.cpp **** 			return true;
1036:robot_chat.cpp **** 		}
1037:robot_chat.cpp **** 
1038:robot_chat.cpp **** 		return false;
 2460               		.stabn	68,0,1038,.LM370-.LFBB33
 2461               	.LM370:
 2462 09b0 80E0      		ldi r24,0
 2463 09b2 00C0      		rjmp .L318
 2464               	.L312:
 2465               	.LBB60:
 2466               	.LBB59:
1013:robot_chat.cpp **** 			delaisAjustementTemporaire = dureeAjustementTournant;
 2467               		.stabn	68,0,1013,.LM371-.LFBB33
 2468               	.LM371:
 2469 09b4 8091 0000 		lds r24,dureeAjustementTournant
 2470 09b8 8093 0000 		sts delaisAjustementTemporaire,r24
 2471 09bc 1092 0000 		sts delaisAjustementTemporaire+1,__zero_reg__
1014:robot_chat.cpp **** 			ajustementTemporaireG = -ajustementTournant;
 2472               		.stabn	68,0,1014,.LM372-.LFBB33
 2473               	.LM372:
 2474 09c0 8091 0000 		lds r24,ajustementTournant
 2475 09c4 982F      		mov r25,r24
 2476 09c6 9195      		neg r25
 2477 09c8 9093 0000 		sts ajustementTemporaireG,r25
1015:robot_chat.cpp **** 			ajustementTemporaireD = ajustementTournant;
 2478               		.stabn	68,0,1015,.LM373-.LFBB33
 2479               	.LM373:
 2480 09cc 8093 0000 		sts ajustementTemporaireD,r24
1017:robot_chat.cpp **** 			ajusterOrientation(false);
 2481               		.stabn	68,0,1017,.LM374-.LFBB33
 2482               	.LM374:
 2483 09d0 80E0      		ldi r24,0
 2484 09d2 0E94 0000 		call _Z18ajusterOrientationb
 2485 09d6 00C0      		rjmp .L319
 2486               	.L315:
 2487               	.LBE59:
 2488               	.LBE60:
1030:robot_chat.cpp **** 			delaisAjustementTemporaire = dureeAjustementTournant;
 2489               		.stabn	68,0,1030,.LM375-.LFBB33
 2490               	.LM375:
 2491 09d8 8091 0000 		lds r24,dureeAjustementTournant
 2492 09dc 8093 0000 		sts delaisAjustementTemporaire,r24
GAS LISTING /tmp/ccfQOnsU.s 			page 65


 2493 09e0 1092 0000 		sts delaisAjustementTemporaire+1,__zero_reg__
1031:robot_chat.cpp **** 			ajustementTemporaireG = ajustementTournant;
 2494               		.stabn	68,0,1031,.LM376-.LFBB33
 2495               	.LM376:
 2496 09e4 8091 0000 		lds r24,ajustementTournant
 2497 09e8 8093 0000 		sts ajustementTemporaireG,r24
1032:robot_chat.cpp **** 			ajustementTemporaireD = -ajustementTournant;
 2498               		.stabn	68,0,1032,.LM377-.LFBB33
 2499               	.LM377:
 2500 09ec 8195      		neg r24
 2501 09ee 8093 0000 		sts ajustementTemporaireD,r24
 2502 09f2 0E94 0000 		call _Z18ajusterOrientationb.part.2
 2503               	.L319:
 2504               	.LBB61:
 2505               	.LBB62:
1035:robot_chat.cpp **** 			return true;
 2506               		.stabn	68,0,1035,.LM378-.LFBB33
 2507               	.LM378:
 2508 09f6 81E0      		ldi r24,lo8(1)
 2509               	.L318:
 2510               	/* epilogue start */
 2511               	.LBE62:
 2512               	.LBE61:
1039:robot_chat.cpp **** 	}
1040:robot_chat.cpp **** }
 2513               		.stabn	68,0,1040,.LM379-.LFBB33
 2514               	.LM379:
 2515 09f8 CF91      		pop r28
 2516 09fa 0895      		ret
 2517               		.size	_Z5virerb, .-_Z5virerb
 2518               	.Lscope33:
 2519               		.stabs	"",36,0,0,.Lscope33-.LFBB33
 2520               		.stabd	78,0,0
 2521               		.stabs	"_Z16gestionDetectionv:F(0,24)",36,0,1042,_Z16gestionDetectionv
 2522               	.global	_Z16gestionDetectionv
 2523               		.type	_Z16gestionDetectionv, @function
 2524               	_Z16gestionDetectionv:
 2525               		.stabd	46,0,0
1041:robot_chat.cpp **** 
1042:robot_chat.cpp **** bool gestionDetection() //Retourne vrai si la detection doit prendre fin (on a fait un tour complet
1043:robot_chat.cpp **** {
 2526               		.stabn	68,0,1043,.LM380-.LFBB34
 2527               	.LM380:
 2528               	.LFBB34:
 2529               	/* prologue: function */
 2530               	/* frame size = 0 */
 2531               	/* stack size = 0 */
 2532               	.L__stack_usage = 0
1044:robot_chat.cpp **** 	
1045:robot_chat.cpp **** 	if(delaiMemeOrientation < delaiMemeOrientationMax)
 2533               		.stabn	68,0,1045,.LM381-.LFBB34
 2534               	.LM381:
 2535 09fc 8091 0000 		lds r24,delaiMemeOrientation
 2536 0a00 9091 0000 		lds r25,delaiMemeOrientation+1
 2537 0a04 2091 0000 		lds r18,delaiMemeOrientationMax
 2538 0a08 3091 0000 		lds r19,delaiMemeOrientationMax+1
 2539 0a0c 8217      		cp r24,r18
GAS LISTING /tmp/ccfQOnsU.s 			page 66


 2540 0a0e 9307      		cpc r25,r19
 2541 0a10 00F4      		brsh .L321
1046:robot_chat.cpp **** 		delaiMemeOrientation += 10;
 2542               		.stabn	68,0,1046,.LM382-.LFBB34
 2543               	.LM382:
 2544 0a12 0A96      		adiw r24,10
 2545 0a14 9093 0000 		sts delaiMemeOrientation+1,r25
 2546 0a18 8093 0000 		sts delaiMemeOrientation,r24
 2547               	.L321:
1047:robot_chat.cpp **** 
1048:robot_chat.cpp **** 	ajusterDelaiAjustementTemporaire();
 2548               		.stabn	68,0,1048,.LM383-.LFBB34
 2549               	.LM383:
 2550 0a1c 0E94 0000 		call _Z32ajusterDelaiAjustementTemporairev
1049:robot_chat.cpp **** 	ajusterVitesseVirageDetection();
 2551               		.stabn	68,0,1049,.LM384-.LFBB34
 2552               	.LM384:
 2553 0a20 0E94 0000 		call _Z29ajusterVitesseVirageDetectionv
1050:robot_chat.cpp **** 	r.virer(vitesseVirageDetection-varianceVitesseVirageDetection,ajustementGauche, ajustementDroit, t
 2554               		.stabn	68,0,1050,.LM385-.LFBB34
 2555               	.LM385:
 2556 0a24 8091 0000 		lds r24,vitesseVirageDetection
 2557 0a28 9091 0000 		lds r25,varianceVitesseVirageDetection
 2558 0a2c 21E0      		ldi r18,lo8(1)
 2559 0a2e 4091 0000 		lds r20,ajustementDroit
 2560 0a32 6091 0000 		lds r22,ajustementGauche
 2561 0a36 891B      		sub r24,r25
 2562 0a38 0E94 0000 		call _ZN8LibRobot5virerEhaab
1051:robot_chat.cpp **** 
1052:robot_chat.cpp **** 	if(delaiMemeOrientation < delaiMemeOrientationMax) //Orientation exact
 2563               		.stabn	68,0,1052,.LM386-.LFBB34
 2564               	.LM386:
 2565 0a3c 2091 0000 		lds r18,delaiMemeOrientation
 2566 0a40 3091 0000 		lds r19,delaiMemeOrientation+1
 2567 0a44 8091 0000 		lds r24,delaiMemeOrientationMax
 2568 0a48 9091 0000 		lds r25,delaiMemeOrientationMax+1
 2569 0a4c 2817      		cp r18,r24
 2570 0a4e 3907      		cpc r19,r25
 2571 0a50 00F4      		brsh .L322
1053:robot_chat.cpp **** 	{
1054:robot_chat.cpp **** 		ajusterPositionRelative(directionCourrante);
 2572               		.stabn	68,0,1054,.LM387-.LFBB34
 2573               	.LM387:
 2574 0a52 8091 0000 		lds r24,directionCourrante
 2575 0a56 00C0      		rjmp .L333
 2576               	.L322:
1055:robot_chat.cpp **** 	}
1056:robot_chat.cpp **** 	else //Orientation entre deux
1057:robot_chat.cpp **** 	{
1058:robot_chat.cpp **** 		ajusterPositionRelative(directionCourrante+4);
 2577               		.stabn	68,0,1058,.LM388-.LFBB34
 2578               	.LM388:
 2579 0a58 8091 0000 		lds r24,directionCourrante
 2580 0a5c 8C5F      		subi r24,lo8(-(4))
 2581               	.L333:
 2582 0a5e 0E94 0000 		call _Z23ajusterPositionRelativeh
1059:robot_chat.cpp **** 	}
GAS LISTING /tmp/ccfQOnsU.s 			page 67


1060:robot_chat.cpp **** 
1061:robot_chat.cpp **** 	garderEnMemoirePositionsRelatives();
 2583               		.stabn	68,0,1061,.LM389-.LFBB34
 2584               	.LM389:
 2585 0a62 0E94 0000 		call _Z33garderEnMemoirePositionsRelativesv
1062:robot_chat.cpp **** 
1063:robot_chat.cpp **** 	if(distanceAParcourirX != 4 ||  distanceAParcourirY != 4) //On a trouvé la souris
 2586               		.stabn	68,0,1063,.LM390-.LFBB34
 2587               	.LM390:
 2588 0a66 8091 0000 		lds r24,distanceAParcourirX
 2589 0a6a 8430      		cpi r24,lo8(4)
 2590 0a6c 01F4      		brne .L324
 2591               		.stabn	68,0,1063,.LM391-.LFBB34
 2592               	.LM391:
 2593 0a6e 8091 0000 		lds r24,distanceAParcourirY
 2594 0a72 8430      		cpi r24,lo8(4)
 2595 0a74 01F0      		breq .L325
 2596               	.L324:
1064:robot_chat.cpp **** 	{
1065:robot_chat.cpp **** 		//Finir de virer a droite
1066:robot_chat.cpp **** 		modeVirageDroite = true;
 2597               		.stabn	68,0,1066,.LM392-.LFBB34
 2598               	.LM392:
 2599 0a76 81E0      		ldi r24,lo8(1)
 2600 0a78 8093 0000 		sts modeVirageDroite,r24
1067:robot_chat.cpp **** 		return true;
 2601               		.stabn	68,0,1067,.LM393-.LFBB34
 2602               	.LM393:
 2603 0a7c 0895      		ret
 2604               	.L325:
1068:robot_chat.cpp **** 	}
1069:robot_chat.cpp **** 
1070:robot_chat.cpp **** 	if(true) //on force la droite lors de la détection
1071:robot_chat.cpp **** 	{	
1072:robot_chat.cpp **** 		if(!capteurDroit()) //Vérifier si le capteur droit est éteint; être certain qu'on a quitter la
 2605               		.stabn	68,0,1072,.LM394-.LFBB34
 2606               	.LM394:
 2607 0a7e 0E94 0000 		call _Z12capteurDroitv
 2608 0a82 8111      		cpse r24,__zero_reg__
 2609 0a84 00C0      		rjmp .L327
1073:robot_chat.cpp **** 			detecteurEnabled = true;
 2610               		.stabn	68,0,1073,.LM395-.LFBB34
 2611               	.LM395:
 2612 0a86 81E0      		ldi r24,lo8(1)
 2613 0a88 8093 0000 		sts detecteurEnabled,r24
 2614               	.L327:
1074:robot_chat.cpp **** 
1075:robot_chat.cpp **** 		if(capteurDroit() && detecteurEnabled) //Si le capteur droit est atteint et qu'il est enabled, al
 2615               		.stabn	68,0,1075,.LM396-.LFBB34
 2616               	.LM396:
 2617 0a8c 0E94 0000 		call _Z12capteurDroitv
 2618 0a90 8111      		cpse r24,__zero_reg__
 2619 0a92 00C0      		rjmp .L328
 2620               	.L330:
1076:robot_chat.cpp **** 		{
1077:robot_chat.cpp **** 			detecteurEnabled = false;
1078:robot_chat.cpp **** 			ajusterOrientation(false);
GAS LISTING /tmp/ccfQOnsU.s 			page 68


1079:robot_chat.cpp **** 
1080:robot_chat.cpp **** 			if(directionCourrante == directionInitialeDetection) //On a fait un tour complet
1081:robot_chat.cpp **** 			{
1082:robot_chat.cpp **** 				modeVirageGauche = true;
1083:robot_chat.cpp **** 				return true;
1084:robot_chat.cpp **** 			}
1085:robot_chat.cpp **** 		}
1086:robot_chat.cpp **** 		return false;
 2621               		.stabn	68,0,1086,.LM397-.LFBB34
 2622               	.LM397:
 2623 0a94 80E0      		ldi r24,0
 2624 0a96 0895      		ret
 2625               	.L328:
1075:robot_chat.cpp **** 		if(capteurDroit() && detecteurEnabled) //Si le capteur droit est atteint et qu'il est enabled, al
 2626               		.stabn	68,0,1075,.LM398-.LFBB34
 2627               	.LM398:
 2628 0a98 8091 0000 		lds r24,detecteurEnabled
 2629 0a9c 8111      		cpse r24,__zero_reg__
 2630 0a9e 00C0      		rjmp .L329
 2631 0aa0 00C0      		rjmp .L330
 2632               	.L331:
1082:robot_chat.cpp **** 				modeVirageGauche = true;
 2633               		.stabn	68,0,1082,.LM399-.LFBB34
 2634               	.LM399:
 2635 0aa2 81E0      		ldi r24,lo8(1)
 2636 0aa4 8093 0000 		sts modeVirageGauche,r24
1083:robot_chat.cpp **** 				return true;
 2637               		.stabn	68,0,1083,.LM400-.LFBB34
 2638               	.LM400:
 2639 0aa8 0895      		ret
 2640               	.L329:
1077:robot_chat.cpp **** 			detecteurEnabled = false;
 2641               		.stabn	68,0,1077,.LM401-.LFBB34
 2642               	.LM401:
 2643 0aaa 1092 0000 		sts detecteurEnabled,__zero_reg__
1078:robot_chat.cpp **** 			ajusterOrientation(false);
 2644               		.stabn	68,0,1078,.LM402-.LFBB34
 2645               	.LM402:
 2646 0aae 80E0      		ldi r24,0
 2647 0ab0 0E94 0000 		call _Z18ajusterOrientationb
1080:robot_chat.cpp **** 			if(directionCourrante == directionInitialeDetection) //On a fait un tour complet
 2648               		.stabn	68,0,1080,.LM403-.LFBB34
 2649               	.LM403:
 2650 0ab4 9091 0000 		lds r25,directionCourrante
 2651 0ab8 8091 0000 		lds r24,directionInitialeDetection
 2652 0abc 9813      		cpse r25,r24
 2653 0abe 00C0      		rjmp .L330
 2654 0ac0 00C0      		rjmp .L331
 2655               		.size	_Z16gestionDetectionv, .-_Z16gestionDetectionv
 2656               	.Lscope34:
 2657               		.stabs	"",36,0,0,.Lscope34-.LFBB34
 2658               		.stabd	78,0,0
 2659               		.stabs	"_Z18avancerLigneDroitev:F(0,4)",36,0,1091,_Z18avancerLigneDroitev
 2660               	.global	_Z18avancerLigneDroitev
 2661               		.type	_Z18avancerLigneDroitev, @function
 2662               	_Z18avancerLigneDroitev:
 2663               		.stabd	46,0,0
GAS LISTING /tmp/ccfQOnsU.s 			page 69


1087:robot_chat.cpp **** 	}
1088:robot_chat.cpp **** 
1089:robot_chat.cpp **** }
1090:robot_chat.cpp **** 
1091:robot_chat.cpp **** void avancerLigneDroite()
1092:robot_chat.cpp **** {	
 2664               		.stabn	68,0,1092,.LM404-.LFBB35
 2665               	.LM404:
 2666               	.LFBB35:
 2667               	/* prologue: function */
 2668               	/* frame size = 0 */
 2669               	/* stack size = 0 */
 2670               	.L__stack_usage = 0
1093:robot_chat.cpp **** 	if(perdue())
 2671               		.stabn	68,0,1093,.LM405-.LFBB35
 2672               	.LM405:
 2673 0ac2 0E94 0000 		call _Z6perduev
 2674 0ac6 8823      		tst r24
 2675 0ac8 01F0      		breq .L335
1094:robot_chat.cpp **** 	{
1095:robot_chat.cpp **** 		 //On sait de quel coté on est partie, on essaie de retrouver la ligne
1096:robot_chat.cpp **** 		if(dernierCapteur == 2) //Dernier capteur atteint est le millieu, continuer tout droit
 2676               		.stabn	68,0,1096,.LM406-.LFBB35
 2677               	.LM406:
 2678 0aca 8091 0000 		lds r24,dernierCapteur
 2679 0ace 8230      		cpi r24,lo8(2)
 2680 0ad0 01F4      		brne .L336
1097:robot_chat.cpp **** 		{
1098:robot_chat.cpp **** 			if(modeFoncer)
 2681               		.stabn	68,0,1098,.LM407-.LFBB35
 2682               	.LM407:
 2683 0ad2 8091 0000 		lds r24,modeFoncer
 2684 0ad6 8823      		tst r24
 2685 0ad8 01F0      		breq .L337
1099:robot_chat.cpp **** 				avancerAvecAjustement(vitesseFoncer,vitesseFoncer);
 2686               		.stabn	68,0,1099,.LM408-.LFBB35
 2687               	.LM408:
 2688 0ada 8091 0000 		lds r24,vitesseFoncer
 2689 0ade 00C0      		rjmp .L350
 2690               	.L337:
1100:robot_chat.cpp **** 			else
1101:robot_chat.cpp **** 				avancerAvecAjustement(vitesseBase,vitesseBase);
 2691               		.stabn	68,0,1101,.LM409-.LFBB35
 2692               	.LM409:
 2693 0ae0 8091 0000 		lds r24,vitesseBase
 2694               	.L350:
 2695 0ae4 682F      		mov r22,r24
 2696 0ae6 70E0      		ldi r23,0
 2697 0ae8 90E0      		ldi r25,0
 2698 0aea 0E94 0000 		call _Z21avancerAvecAjustementii
 2699 0aee 00C0      		rjmp .L338
 2700               	.L336:
1102:robot_chat.cpp **** 		}
1103:robot_chat.cpp **** 		else if(dernierCapteur == 1)  //gauche
 2701               		.stabn	68,0,1103,.LM410-.LFBB35
 2702               	.LM410:
 2703 0af0 8130      		cpi r24,lo8(1)
GAS LISTING /tmp/ccfQOnsU.s 			page 70


 2704 0af2 01F4      		brne .L339
1104:robot_chat.cpp **** 			viragePourLigneDroite(false,ajustementVirageMoyen);
 2705               		.stabn	68,0,1104,.LM411-.LFBB35
 2706               	.LM411:
 2707 0af4 6091 0000 		lds r22,ajustementVirageMoyen
 2708 0af8 00C0      		rjmp .L355
 2709               	.L339:
1105:robot_chat.cpp **** 		else if(dernierCapteur == 3) 
 2710               		.stabn	68,0,1105,.LM412-.LFBB35
 2711               	.LM412:
 2712 0afa 8330      		cpi r24,lo8(3)
 2713 0afc 01F4      		brne .L338
1106:robot_chat.cpp **** 			viragePourLigneDroite(true,ajustementVirageMoyen);
 2714               		.stabn	68,0,1106,.LM413-.LFBB35
 2715               	.LM413:
 2716 0afe 6091 0000 		lds r22,ajustementVirageMoyen
 2717               	.L351:
 2718 0b02 81E0      		ldi r24,lo8(1)
 2719               	.L352:
 2720 0b04 0E94 0000 		call _Z21viragePourLigneDroiteba
 2721               	.L338:
1107:robot_chat.cpp **** 
1108:robot_chat.cpp **** 		ajusterDernierCapteur();	
 2722               		.stabn	68,0,1108,.LM414-.LFBB35
 2723               	.LM414:
 2724 0b08 0C94 0000 		jmp _Z21ajusterDernierCapteurv
 2725               	.L335:
 2726               	.LBB65:
 2727               	.LBB66:
1109:robot_chat.cpp **** 
1110:robot_chat.cpp **** 	}
1111:robot_chat.cpp **** 	else	//Au moins 1 capteur est actif
1112:robot_chat.cpp **** 	{
1113:robot_chat.cpp **** 		//Recentrer le robot si nécessaire
1114:robot_chat.cpp **** 		if(capteurMilieu()) //Continuer tout droit
 2728               		.stabn	68,0,1114,.LM415-.LFBB35
 2729               	.LM415:
 2730 0b0c 0E94 0000 		call _Z13capteurMilieuv
 2731 0b10 8823      		tst r24
 2732 0b12 01F0      		breq .L341
1115:robot_chat.cpp **** 		{
1116:robot_chat.cpp **** 			delaisLigneDroite = 0;
 2733               		.stabn	68,0,1116,.LM416-.LFBB35
 2734               	.LM416:
 2735 0b14 1092 0000 		sts delaisLigneDroite+1,__zero_reg__
 2736 0b18 1092 0000 		sts delaisLigneDroite,__zero_reg__
1117:robot_chat.cpp **** 			if(modeFoncer)
 2737               		.stabn	68,0,1117,.LM417-.LFBB35
 2738               	.LM417:
 2739 0b1c 8091 0000 		lds r24,modeFoncer
 2740 0b20 8823      		tst r24
 2741 0b22 01F0      		breq .L342
1118:robot_chat.cpp **** 				avancerAvecAjustement(vitesseFoncer,vitesseFoncer);
 2742               		.stabn	68,0,1118,.LM418-.LFBB35
 2743               	.LM418:
 2744 0b24 8091 0000 		lds r24,vitesseFoncer
 2745 0b28 00C0      		rjmp .L354
GAS LISTING /tmp/ccfQOnsU.s 			page 71


 2746               	.L342:
1119:robot_chat.cpp **** 			else
1120:robot_chat.cpp **** 				avancerAvecAjustement(vitesseBase,vitesseBase);
 2747               		.stabn	68,0,1120,.LM419-.LFBB35
 2748               	.LM419:
 2749 0b2a 8091 0000 		lds r24,vitesseBase
 2750               	.L354:
 2751 0b2e 682F      		mov r22,r24
 2752 0b30 70E0      		ldi r23,0
 2753 0b32 90E0      		ldi r25,0
 2754 0b34 0E94 0000 		call _Z21avancerAvecAjustementii
1121:robot_chat.cpp **** 
1122:robot_chat.cpp **** 			//On a retrouver le milieu, mais est-t-on droit?
1123:robot_chat.cpp **** 
1124:robot_chat.cpp **** 			//On vient de la droite, puisque le dernier capteur était a gauche
1125:robot_chat.cpp **** 			//On doit donc restabiliser le rebot, en tournant légerement vers la droite
1126:robot_chat.cpp **** 			if(dernierCapteur == 1)
 2755               		.stabn	68,0,1126,.LM420-.LFBB35
 2756               	.LM420:
 2757 0b38 8091 0000 		lds r24,dernierCapteur
 2758 0b3c 8130      		cpi r24,lo8(1)
 2759 0b3e 01F4      		brne .L344
1127:robot_chat.cpp **** 			{
1128:robot_chat.cpp **** 				delaisAjustementTemporaire = dureeAjustementLigneDroite;
 2760               		.stabn	68,0,1128,.LM421-.LFBB35
 2761               	.LM421:
 2762 0b40 8091 0000 		lds r24,dureeAjustementLigneDroite
 2763 0b44 8093 0000 		sts delaisAjustementTemporaire,r24
 2764 0b48 1092 0000 		sts delaisAjustementTemporaire+1,__zero_reg__
1129:robot_chat.cpp **** 				ajustementTemporaireG = ajustementLigneDroite;
 2765               		.stabn	68,0,1129,.LM422-.LFBB35
 2766               	.LM422:
 2767 0b4c 8091 0000 		lds r24,ajustementLigneDroite
 2768 0b50 8093 0000 		sts ajustementTemporaireG,r24
1130:robot_chat.cpp **** 				ajustementTemporaireD = -ajustementLigneDroite;
 2769               		.stabn	68,0,1130,.LM423-.LFBB35
 2770               	.LM423:
 2771 0b54 8195      		neg r24
 2772 0b56 00C0      		rjmp .L353
 2773               	.L344:
1131:robot_chat.cpp **** 			}
1132:robot_chat.cpp **** 			else if(dernierCapteur == 3) //On vient de la gauche
 2774               		.stabn	68,0,1132,.LM424-.LFBB35
 2775               	.LM424:
 2776 0b58 8330      		cpi r24,lo8(3)
 2777 0b5a 01F4      		brne .L338
1133:robot_chat.cpp **** 			{
1134:robot_chat.cpp **** 				delaisAjustementTemporaire = dureeAjustementLigneDroite;
 2778               		.stabn	68,0,1134,.LM425-.LFBB35
 2779               	.LM425:
 2780 0b5c 8091 0000 		lds r24,dureeAjustementLigneDroite
 2781 0b60 8093 0000 		sts delaisAjustementTemporaire,r24
 2782 0b64 1092 0000 		sts delaisAjustementTemporaire+1,__zero_reg__
1135:robot_chat.cpp **** 				ajustementTemporaireG = -ajustementLigneDroite;
 2783               		.stabn	68,0,1135,.LM426-.LFBB35
 2784               	.LM426:
 2785 0b68 8091 0000 		lds r24,ajustementLigneDroite
GAS LISTING /tmp/ccfQOnsU.s 			page 72


 2786 0b6c 982F      		mov r25,r24
 2787 0b6e 9195      		neg r25
 2788 0b70 9093 0000 		sts ajustementTemporaireG,r25
 2789               	.L353:
1136:robot_chat.cpp **** 				ajustementTemporaireD = ajustementLigneDroite;
 2790               		.stabn	68,0,1136,.LM427-.LFBB35
 2791               	.LM427:
 2792 0b74 8093 0000 		sts ajustementTemporaireD,r24
 2793 0b78 00C0      		rjmp .L338
 2794               	.L341:
1137:robot_chat.cpp **** 			}
1138:robot_chat.cpp **** 
1139:robot_chat.cpp **** 		}
1140:robot_chat.cpp **** 		else if(capteurGauche())//On doit avancer tout droit et le capteur Gauche est allumé, le rebot e
 2795               		.stabn	68,0,1140,.LM428-.LFBB35
 2796               	.LM428:
 2797 0b7a 0E94 0000 		call _Z13capteurGauchev
 2798 0b7e 8823      		tst r24
 2799 0b80 01F0      		breq .L346
1141:robot_chat.cpp **** 		{
1142:robot_chat.cpp **** 			//virer legerement a gauche
1143:robot_chat.cpp **** 			viragePourLigneDroite(false,ajustementVirageLeger);
 2800               		.stabn	68,0,1143,.LM429-.LFBB35
 2801               	.LM429:
 2802 0b82 6091 0000 		lds r22,ajustementVirageLeger
 2803               	.L355:
 2804 0b86 80E0      		ldi r24,0
 2805 0b88 00C0      		rjmp .L352
 2806               	.L346:
1144:robot_chat.cpp **** 		}
1145:robot_chat.cpp **** 		else if(capteurDroit())
 2807               		.stabn	68,0,1145,.LM430-.LFBB35
 2808               	.LM430:
 2809 0b8a 0E94 0000 		call _Z12capteurDroitv
 2810 0b8e 8823      		tst r24
 2811 0b90 01F4      		brne .+2
 2812 0b92 00C0      		rjmp .L338
1146:robot_chat.cpp **** 		{
1147:robot_chat.cpp **** 			//virer legerement a droite
1148:robot_chat.cpp **** 			viragePourLigneDroite(true,ajustementVirageLeger);
 2813               		.stabn	68,0,1148,.LM431-.LFBB35
 2814               	.LM431:
 2815 0b94 6091 0000 		lds r22,ajustementVirageLeger
 2816 0b98 00C0      		rjmp .L351
 2817               	.LBE66:
 2818               	.LBE65:
 2819               		.size	_Z18avancerLigneDroitev, .-_Z18avancerLigneDroitev
 2820               	.Lscope35:
 2821               		.stabs	"",36,0,0,.Lscope35-.LFBB35
 2822               		.stabd	78,0,0
 2823               		.stabs	"_Z7reculerv:F(0,24)",36,0,1155,_Z7reculerv
 2824               	.global	_Z7reculerv
 2825               		.type	_Z7reculerv, @function
 2826               	_Z7reculerv:
 2827               		.stabd	46,0,0
1149:robot_chat.cpp **** 		}
1150:robot_chat.cpp **** 
GAS LISTING /tmp/ccfQOnsU.s 			page 73


1151:robot_chat.cpp **** 		ajusterDernierCapteur();//Se souvenir du dernier capteur actif
1152:robot_chat.cpp **** 	}
1153:robot_chat.cpp **** }
1154:robot_chat.cpp **** 
1155:robot_chat.cpp **** bool reculer()
1156:robot_chat.cpp **** {
 2828               		.stabn	68,0,1156,.LM432-.LFBB36
 2829               	.LM432:
 2830               	.LFBB36:
 2831               	/* prologue: function */
 2832               	/* frame size = 0 */
 2833               	/* stack size = 0 */
 2834               	.L__stack_usage = 0
1157:robot_chat.cpp **** 	//Reculer jusqu'à ce qu'on détecte une intersection ou que le temps actif soit suffisaemment él
1158:robot_chat.cpp **** 	ajusterDernierCapteur();//Se souvenir du dernier capteur actif
 2835               		.stabn	68,0,1158,.LM433-.LFBB36
 2836               	.LM433:
 2837 0b9a 0E94 0000 		call _Z21ajusterDernierCapteurv
1159:robot_chat.cpp **** 	
1160:robot_chat.cpp **** 	if(finRecul)
 2838               		.stabn	68,0,1160,.LM434-.LFBB36
 2839               	.LM434:
 2840 0b9e 8091 0000 		lds r24,finRecul
 2841 0ba2 8823      		tst r24
 2842 0ba4 01F0      		breq .L357
1161:robot_chat.cpp **** 	{
1162:robot_chat.cpp **** 		tempsReculExtra +=10;
 2843               		.stabn	68,0,1162,.LM435-.LFBB36
 2844               	.LM435:
 2845 0ba6 8091 0000 		lds r24,tempsReculExtra
 2846 0baa 865F      		subi r24,lo8(-(10))
 2847 0bac 8093 0000 		sts tempsReculExtra,r24
1163:robot_chat.cpp **** 		if(tempsReculExtra>= tempsReculExtraMax)
 2848               		.stabn	68,0,1163,.LM436-.LFBB36
 2849               	.LM436:
 2850 0bb0 9091 0000 		lds r25,tempsReculExtraMax
 2851 0bb4 8917      		cp r24,r25
 2852 0bb6 04F0      		brlt .L359
 2853 0bb8 00C0      		rjmp .L363
 2854               	.L357:
1164:robot_chat.cpp **** 			return true;
1165:robot_chat.cpp **** 	}
1166:robot_chat.cpp **** 	else
1167:robot_chat.cpp **** 	{
1168:robot_chat.cpp **** 		if(!perdue())
 2855               		.stabn	68,0,1168,.LM437-.LFBB36
 2856               	.LM437:
 2857 0bba 0E94 0000 		call _Z6perduev
 2858 0bbe 8111      		cpse r24,__zero_reg__
 2859 0bc0 00C0      		rjmp .L360
1169:robot_chat.cpp **** 			tempsReculActif +=10;
 2860               		.stabn	68,0,1169,.LM438-.LFBB36
 2861               	.LM438:
 2862 0bc2 8091 0000 		lds r24,tempsReculActif
 2863 0bc6 865F      		subi r24,lo8(-(10))
 2864 0bc8 8093 0000 		sts tempsReculActif,r24
 2865               	.L360:
GAS LISTING /tmp/ccfQOnsU.s 			page 74


1170:robot_chat.cpp **** 		if(tempsReculActif >= tempsReculActifMax)
 2866               		.stabn	68,0,1170,.LM439-.LFBB36
 2867               	.LM439:
 2868 0bcc 9091 0000 		lds r25,tempsReculActif
 2869 0bd0 8091 0000 		lds r24,tempsReculActifMax
 2870 0bd4 9817      		cp r25,r24
 2871 0bd6 04F0      		brlt .L361
1171:robot_chat.cpp **** 			finRecul = true;
 2872               		.stabn	68,0,1171,.LM440-.LFBB36
 2873               	.LM440:
 2874 0bd8 81E0      		ldi r24,lo8(1)
 2875 0bda 8093 0000 		sts finRecul,r24
 2876               	.L361:
1172:robot_chat.cpp **** 	
1173:robot_chat.cpp **** 
1174:robot_chat.cpp **** 		if(detecterIntersection())
 2877               		.stabn	68,0,1174,.LM441-.LFBB36
 2878               	.LM441:
 2879 0bde 0E94 0000 		call _Z20detecterIntersectionv
 2880 0be2 8823      		tst r24
 2881 0be4 01F0      		breq .L359
1175:robot_chat.cpp **** 			finRecul = true;
 2882               		.stabn	68,0,1175,.LM442-.LFBB36
 2883               	.LM442:
 2884 0be6 81E0      		ldi r24,lo8(1)
 2885 0be8 8093 0000 		sts finRecul,r24
 2886               	.L359:
1176:robot_chat.cpp **** 	}
1177:robot_chat.cpp **** 	
1178:robot_chat.cpp **** 	reculerAvecAjustement(vitesseReculer,vitesseReculer);
 2887               		.stabn	68,0,1178,.LM443-.LFBB36
 2888               	.LM443:
 2889 0bec 8091 0000 		lds r24,vitesseReculer
 2890 0bf0 682F      		mov r22,r24
 2891 0bf2 70E0      		ldi r23,0
 2892 0bf4 90E0      		ldi r25,0
 2893 0bf6 0E94 0000 		call _Z21reculerAvecAjustementii
1179:robot_chat.cpp **** 	return false;
 2894               		.stabn	68,0,1179,.LM444-.LFBB36
 2895               	.LM444:
 2896 0bfa 80E0      		ldi r24,0
 2897 0bfc 0895      		ret
 2898               	.L363:
1164:robot_chat.cpp **** 			return true;
 2899               		.stabn	68,0,1164,.LM445-.LFBB36
 2900               	.LM445:
 2901 0bfe 81E0      		ldi r24,lo8(1)
1180:robot_chat.cpp **** }
 2902               		.stabn	68,0,1180,.LM446-.LFBB36
 2903               	.LM446:
 2904 0c00 0895      		ret
 2905               		.size	_Z7reculerv, .-_Z7reculerv
 2906               	.Lscope36:
 2907               		.stabs	"",36,0,0,.Lscope36-.LFBB36
 2908               		.stabd	78,0,0
 2909               		.stabs	"_Z23ajusterTempsActifRecentv:F(0,4)",36,0,1182,_Z23ajusterTempsActifRecentv
 2910               	.global	_Z23ajusterTempsActifRecentv
GAS LISTING /tmp/ccfQOnsU.s 			page 75


 2911               		.type	_Z23ajusterTempsActifRecentv, @function
 2912               	_Z23ajusterTempsActifRecentv:
 2913               		.stabd	46,0,0
1181:robot_chat.cpp **** 
1182:robot_chat.cpp **** void ajusterTempsActifRecent()
1183:robot_chat.cpp **** {
 2914               		.stabn	68,0,1183,.LM447-.LFBB37
 2915               	.LM447:
 2916               	.LFBB37:
 2917               	/* prologue: function */
 2918               	/* frame size = 0 */
 2919               	/* stack size = 0 */
 2920               	.L__stack_usage = 0
1184:robot_chat.cpp **** 	if(tempsLigneDroiteDepuisIntersection < tempsLigneDroiteActiveMax)
 2921               		.stabn	68,0,1184,.LM448-.LFBB37
 2922               	.LM448:
 2923 0c02 2091 0000 		lds r18,tempsLigneDroiteDepuisIntersection
 2924 0c06 3091 0000 		lds r19,tempsLigneDroiteDepuisIntersection+1
 2925 0c0a 8091 0000 		lds r24,tempsLigneDroiteActiveMax
 2926 0c0e 9091 0000 		lds r25,tempsLigneDroiteActiveMax+1
 2927 0c12 2817      		cp r18,r24
 2928 0c14 3907      		cpc r19,r25
 2929 0c16 00F4      		brsh .L368
1185:robot_chat.cpp **** 	{
1186:robot_chat.cpp **** 		if(!perdue())	
 2930               		.stabn	68,0,1186,.LM449-.LFBB37
 2931               	.LM449:
 2932 0c18 0E94 0000 		call _Z6perduev
 2933 0c1c 8111      		cpse r24,__zero_reg__
 2934 0c1e 00C0      		rjmp .L369
1187:robot_chat.cpp **** 			tempsLigneDroiteActive += 10;
 2935               		.stabn	68,0,1187,.LM450-.LFBB37
 2936               	.LM450:
 2937 0c20 8091 0000 		lds r24,tempsLigneDroiteActive
 2938 0c24 9091 0000 		lds r25,tempsLigneDroiteActive+1
 2939 0c28 0A96      		adiw r24,10
 2940 0c2a 9093 0000 		sts tempsLigneDroiteActive+1,r25
 2941 0c2e 8093 0000 		sts tempsLigneDroiteActive,r24
 2942               	.L369:
1188:robot_chat.cpp **** 		tempsLigneDroiteDepuisIntersection += 10;
 2943               		.stabn	68,0,1188,.LM451-.LFBB37
 2944               	.LM451:
 2945 0c32 8091 0000 		lds r24,tempsLigneDroiteDepuisIntersection
 2946 0c36 9091 0000 		lds r25,tempsLigneDroiteDepuisIntersection+1
 2947 0c3a 0A96      		adiw r24,10
 2948 0c3c 9093 0000 		sts tempsLigneDroiteDepuisIntersection+1,r25
 2949 0c40 8093 0000 		sts tempsLigneDroiteDepuisIntersection,r24
 2950 0c44 0895      		ret
 2951               	.L368:
1189:robot_chat.cpp **** 	}
1190:robot_chat.cpp **** 	else
1191:robot_chat.cpp **** 	{	
1192:robot_chat.cpp **** 		if(!perdue())
 2952               		.stabn	68,0,1192,.LM452-.LFBB37
 2953               	.LM452:
 2954 0c46 0E94 0000 		call _Z6perduev
 2955 0c4a 2091 0000 		lds r18,tempsLigneDroiteActive
GAS LISTING /tmp/ccfQOnsU.s 			page 76


 2956 0c4e 3091 0000 		lds r19,tempsLigneDroiteActive+1
 2957 0c52 8111      		cpse r24,__zero_reg__
 2958 0c54 00C0      		rjmp .L371
1193:robot_chat.cpp **** 		{
1194:robot_chat.cpp **** 			tempsLigneDroiteActive += 10;
 2959               		.stabn	68,0,1194,.LM453-.LFBB37
 2960               	.LM453:
 2961 0c56 265F      		subi r18,-10
 2962 0c58 3F4F      		sbci r19,-1
 2963 0c5a 3093 0000 		sts tempsLigneDroiteActive+1,r19
 2964 0c5e 2093 0000 		sts tempsLigneDroiteActive,r18
1195:robot_chat.cpp **** 			if(tempsLigneDroiteActive > tempsLigneDroiteActiveMax)
 2965               		.stabn	68,0,1195,.LM454-.LFBB37
 2966               	.LM454:
 2967 0c62 8091 0000 		lds r24,tempsLigneDroiteActiveMax
 2968 0c66 9091 0000 		lds r25,tempsLigneDroiteActiveMax+1
 2969 0c6a 8217      		cp r24,r18
 2970 0c6c 9307      		cpc r25,r19
 2971 0c6e 00F4      		brsh .L367
1196:robot_chat.cpp **** 				tempsLigneDroiteActive = tempsLigneDroiteActiveMax;
 2972               		.stabn	68,0,1196,.LM455-.LFBB37
 2973               	.LM455:
 2974 0c70 9093 0000 		sts tempsLigneDroiteActive+1,r25
 2975 0c74 8093 0000 		sts tempsLigneDroiteActive,r24
 2976 0c78 0895      		ret
 2977               	.L371:
1197:robot_chat.cpp **** 		}
1198:robot_chat.cpp **** 		else
1199:robot_chat.cpp **** 		{
1200:robot_chat.cpp **** 			if(tempsLigneDroiteActive <= 20)
 2978               		.stabn	68,0,1200,.LM456-.LFBB37
 2979               	.LM456:
 2980 0c7a 2531      		cpi r18,21
 2981 0c7c 3105      		cpc r19,__zero_reg__
 2982 0c7e 00F4      		brsh .L372
1201:robot_chat.cpp **** 				tempsLigneDroiteActive = 0;
 2983               		.stabn	68,0,1201,.LM457-.LFBB37
 2984               	.LM457:
 2985 0c80 1092 0000 		sts tempsLigneDroiteActive+1,__zero_reg__
 2986 0c84 1092 0000 		sts tempsLigneDroiteActive,__zero_reg__
 2987 0c88 0895      		ret
 2988               	.L372:
1202:robot_chat.cpp **** 			else
1203:robot_chat.cpp **** 				tempsLigneDroiteActive -= 20;
 2989               		.stabn	68,0,1203,.LM458-.LFBB37
 2990               	.LM458:
 2991 0c8a 2451      		subi r18,20
 2992 0c8c 3109      		sbc r19,__zero_reg__
 2993 0c8e 3093 0000 		sts tempsLigneDroiteActive+1,r19
 2994 0c92 2093 0000 		sts tempsLigneDroiteActive,r18
 2995               	.L367:
 2996 0c96 0895      		ret
 2997               		.size	_Z23ajusterTempsActifRecentv, .-_Z23ajusterTempsActifRecentv
 2998               	.Lscope37:
 2999               		.stabs	"",36,0,0,.Lscope37-.LFBB37
 3000               		.stabd	78,0,0
 3001               		.stabs	"_Z28ajusterTempsActifSansCapteurv:F(0,4)",36,0,1208,_Z28ajusterTempsActifSansCapteurv
GAS LISTING /tmp/ccfQOnsU.s 			page 77


 3002               	.global	_Z28ajusterTempsActifSansCapteurv
 3003               		.type	_Z28ajusterTempsActifSansCapteurv, @function
 3004               	_Z28ajusterTempsActifSansCapteurv:
 3005               		.stabd	46,0,0
1204:robot_chat.cpp **** 		}
1205:robot_chat.cpp **** 	}
1206:robot_chat.cpp **** }
1207:robot_chat.cpp **** 
1208:robot_chat.cpp **** void ajusterTempsActifSansCapteur()
1209:robot_chat.cpp **** {
 3006               		.stabn	68,0,1209,.LM459-.LFBB38
 3007               	.LM459:
 3008               	.LFBB38:
 3009               	/* prologue: function */
 3010               	/* frame size = 0 */
 3011               	/* stack size = 0 */
 3012               	.L__stack_usage = 0
1210:robot_chat.cpp **** 	if(delaisAjustementTemporaire <= 0) //Ne pas ajuster le temps hors piste lors d'ajustements
 3013               		.stabn	68,0,1210,.LM460-.LFBB38
 3014               	.LM460:
 3015 0c98 8091 0000 		lds r24,delaisAjustementTemporaire
 3016 0c9c 9091 0000 		lds r25,delaisAjustementTemporaire+1
 3017 0ca0 1816      		cp __zero_reg__,r24
 3018 0ca2 1906      		cpc __zero_reg__,r25
 3019 0ca4 04F0      		brlt .L373
1211:robot_chat.cpp **** 	{
1212:robot_chat.cpp **** 		if(perdue())
 3020               		.stabn	68,0,1212,.LM461-.LFBB38
 3021               	.LM461:
 3022 0ca6 0E94 0000 		call _Z6perduev
 3023 0caa 8823      		tst r24
 3024 0cac 01F0      		breq .L376
1213:robot_chat.cpp **** 		{
1214:robot_chat.cpp **** 			tempsActifSansCapteur += 10;
 3025               		.stabn	68,0,1214,.LM462-.LFBB38
 3026               	.LM462:
 3027 0cae 8091 0000 		lds r24,tempsActifSansCapteur
 3028 0cb2 9091 0000 		lds r25,tempsActifSansCapteur+1
 3029 0cb6 0A96      		adiw r24,10
 3030 0cb8 9093 0000 		sts tempsActifSansCapteur+1,r25
 3031 0cbc 8093 0000 		sts tempsActifSansCapteur,r24
1215:robot_chat.cpp **** 			if(tempsActifSansCapteur >= tempsActifSansCapteurMax)
 3032               		.stabn	68,0,1215,.LM463-.LFBB38
 3033               	.LM463:
 3034 0cc0 2091 0000 		lds r18,tempsActifSansCapteurMax
 3035 0cc4 3091 0000 		lds r19,tempsActifSansCapteurMax+1
 3036 0cc8 8217      		cp r24,r18
 3037 0cca 9307      		cpc r25,r19
 3038 0ccc 00F0      		brlo .L373
1216:robot_chat.cpp **** 			{
1217:robot_chat.cpp **** 				tempsActifSansCapteur = 0;
 3039               		.stabn	68,0,1217,.LM464-.LFBB38
 3040               	.LM464:
 3041 0cce 1092 0000 		sts tempsActifSansCapteur+1,__zero_reg__
 3042 0cd2 1092 0000 		sts tempsActifSansCapteur,__zero_reg__
1218:robot_chat.cpp **** 				modeLigneDroite = false;
 3043               		.stabn	68,0,1218,.LM465-.LFBB38
GAS LISTING /tmp/ccfQOnsU.s 			page 78


 3044               	.LM465:
 3045 0cd6 1092 0000 		sts modeLigneDroite,__zero_reg__
1219:robot_chat.cpp **** 				tomberEnModeReculer();
 3046               		.stabn	68,0,1219,.LM466-.LFBB38
 3047               	.LM466:
 3048 0cda 0C94 0000 		jmp _Z19tomberEnModeReculerv
 3049               	.L376:
1220:robot_chat.cpp **** 			}
1221:robot_chat.cpp **** 		}
1222:robot_chat.cpp **** 		else
1223:robot_chat.cpp **** 		{
1224:robot_chat.cpp **** 			tempsActifSansCapteur = 0;
 3050               		.stabn	68,0,1224,.LM467-.LFBB38
 3051               	.LM467:
 3052 0cde 1092 0000 		sts tempsActifSansCapteur+1,__zero_reg__
 3053 0ce2 1092 0000 		sts tempsActifSansCapteur,__zero_reg__
 3054               	.L373:
 3055 0ce6 0895      		ret
 3056               		.size	_Z28ajusterTempsActifSansCapteurv, .-_Z28ajusterTempsActifSansCapteurv
 3057               	.Lscope38:
 3058               		.stabs	"",36,0,0,.Lscope38-.LFBB38
 3059               		.stabd	78,0,0
 3060               		.stabs	"_Z16verifierVictoirev:F(0,24)",36,0,1229,_Z16verifierVictoirev
 3061               	.global	_Z16verifierVictoirev
 3062               		.type	_Z16verifierVictoirev, @function
 3063               	_Z16verifierVictoirev:
 3064               		.stabd	46,0,0
1225:robot_chat.cpp **** 		}
1226:robot_chat.cpp **** 	}
1227:robot_chat.cpp **** }
1228:robot_chat.cpp **** 
1229:robot_chat.cpp **** bool verifierVictoire()
1230:robot_chat.cpp **** {
 3065               		.stabn	68,0,1230,.LM468-.LFBB39
 3066               	.LM468:
 3067               	.LFBB39:
 3068               	/* prologue: function */
 3069               	/* frame size = 0 */
 3070               	/* stack size = 0 */
 3071               	.L__stack_usage = 0
1231:robot_chat.cpp **** 	if(positionRalativeX == 0)
 3072               		.stabn	68,0,1231,.LM469-.LFBB39
 3073               	.LM469:
 3074 0ce8 8091 0000 		lds r24,positionRalativeX
 3075 0cec 9091 0000 		lds r25,positionRalativeY
 3076 0cf0 8111      		cpse r24,__zero_reg__
 3077 0cf2 00C0      		rjmp .L379
1232:robot_chat.cpp **** 	{
1233:robot_chat.cpp **** 		if(positionRalativeY == 0 || positionRalativeY == 1 || positionRalativeY == -1)
 3078               		.stabn	68,0,1233,.LM470-.LFBB39
 3079               	.LM470:
 3080 0cf4 9F5F      		subi r25,lo8(-(1))
 3081 0cf6 9330      		cpi r25,lo8(3)
 3082 0cf8 00F0      		brlo .L383
 3083               	.L381:
1234:robot_chat.cpp **** 			return true;
1235:robot_chat.cpp **** 	}
GAS LISTING /tmp/ccfQOnsU.s 			page 79


1236:robot_chat.cpp **** 	else if(positionRalativeY == 0)
1237:robot_chat.cpp **** 	{
1238:robot_chat.cpp **** 		if(positionRalativeX == 1 || positionRalativeX == -1)
1239:robot_chat.cpp **** 			return true;
1240:robot_chat.cpp **** 	}
1241:robot_chat.cpp **** 
1242:robot_chat.cpp **** 	return false;
 3084               		.stabn	68,0,1242,.LM471-.LFBB39
 3085               	.LM471:
 3086 0cfa 80E0      		ldi r24,0
 3087 0cfc 0895      		ret
 3088               	.L379:
1236:robot_chat.cpp **** 	else if(positionRalativeY == 0)
 3089               		.stabn	68,0,1236,.LM472-.LFBB39
 3090               	.LM472:
 3091 0cfe 9111      		cpse r25,__zero_reg__
 3092 0d00 00C0      		rjmp .L381
1238:robot_chat.cpp **** 		if(positionRalativeX == 1 || positionRalativeX == -1)
 3093               		.stabn	68,0,1238,.LM473-.LFBB39
 3094               	.LM473:
 3095 0d02 8130      		cpi r24,lo8(1)
 3096 0d04 01F0      		breq .L383
1238:robot_chat.cpp **** 		if(positionRalativeX == 1 || positionRalativeX == -1)
 3097               		.stabn	68,0,1238,.LM474-.LFBB39
 3098               	.LM474:
 3099 0d06 8F3F      		cpi r24,lo8(-1)
 3100 0d08 01F4      		brne .L381
 3101               	.L383:
1234:robot_chat.cpp **** 			return true;
 3102               		.stabn	68,0,1234,.LM475-.LFBB39
 3103               	.LM475:
 3104 0d0a 81E0      		ldi r24,lo8(1)
1243:robot_chat.cpp **** }
 3105               		.stabn	68,0,1243,.LM476-.LFBB39
 3106               	.LM476:
 3107 0d0c 0895      		ret
 3108               		.size	_Z16verifierVictoirev, .-_Z16verifierVictoirev
 3109               	.Lscope39:
 3110               		.stabs	"",36,0,0,.Lscope39-.LFBB39
 3111               		.stabd	78,0,0
 3112               		.stabs	"_Z19gestionModeVictoirev:F(0,4)",36,0,1245,_Z19gestionModeVictoirev
 3113               	.global	_Z19gestionModeVictoirev
 3114               		.type	_Z19gestionModeVictoirev, @function
 3115               	_Z19gestionModeVictoirev:
 3116               		.stabd	46,0,0
1244:robot_chat.cpp **** 
1245:robot_chat.cpp **** void gestionModeVictoire()
1246:robot_chat.cpp **** {
 3117               		.stabn	68,0,1246,.LM477-.LFBB40
 3118               	.LM477:
 3119               	.LFBB40:
 3120               	/* prologue: function */
 3121               	/* frame size = 0 */
 3122               	/* stack size = 0 */
 3123               	.L__stack_usage = 0
1247:robot_chat.cpp **** 	r.eteindreDEL(portDEL, pinCouleur, pinCouleur2);
 3124               		.stabn	68,0,1247,.LM478-.LFBB40
GAS LISTING /tmp/ccfQOnsU.s 			page 80


 3125               	.LM478:
 3126 0d0e 4091 0000 		lds r20,pinCouleur2
 3127 0d12 6091 0000 		lds r22,pinCouleur
 3128 0d16 85E2      		ldi r24,lo8(37)
 3129 0d18 90E0      		ldi r25,0
 3130 0d1a 0E94 0000 		call _ZN8LibRobot11eteindreDELERVhhh
1248:robot_chat.cpp **** 	r.allumerDEL(portDEL, pinCouleur2);
 3131               		.stabn	68,0,1248,.LM479-.LFBB40
 3132               	.LM479:
 3133 0d1e 6091 0000 		lds r22,pinCouleur2
 3134 0d22 85E2      		ldi r24,lo8(37)
 3135 0d24 90E0      		ldi r25,0
 3136 0d26 0E94 0000 		call _ZN8LibRobot10allumerDELERVhh
1249:robot_chat.cpp **** 
1250:robot_chat.cpp **** 	if(debug)
 3137               		.stabn	68,0,1250,.LM480-.LFBB40
 3138               	.LM480:
 3139 0d2a 8091 0000 		lds r24,debug
 3140 0d2e 8823      		tst r24
 3141 0d30 01F0      		breq .L384
1251:robot_chat.cpp **** 	{
1252:robot_chat.cpp **** 		r.eteindreDEL(portDEL, pinCouleur, pinCouleur2);
 3142               		.stabn	68,0,1252,.LM481-.LFBB40
 3143               	.LM481:
 3144 0d32 4091 0000 		lds r20,pinCouleur2
 3145 0d36 6091 0000 		lds r22,pinCouleur
 3146 0d3a 85E2      		ldi r24,lo8(37)
 3147 0d3c 90E0      		ldi r25,0
 3148 0d3e 0E94 0000 		call _ZN8LibRobot11eteindreDELERVhhh
1253:robot_chat.cpp **** 		r.allumerDEL(portDEL, pinCouleur);
 3149               		.stabn	68,0,1253,.LM482-.LFBB40
 3150               	.LM482:
 3151 0d42 6091 0000 		lds r22,pinCouleur
 3152 0d46 85E2      		ldi r24,lo8(37)
 3153 0d48 90E0      		ldi r25,0
 3154 0d4a 0E94 0000 		call _ZN8LibRobot10allumerDELERVhh
 3155               	.LBB67:
 3156               	.LBB68:
 3157               		.stabs	"/usr/lib/gcc/avr/4.7.3/../../../../avr/include/util/delay.h",132,0,0,.Ltext1
 3158               	.Ltext1:
   1:/usr/lib/gcc/avr/4.7.3/../../../../avr/include/util/delay.h **** /* Copyright (c) 2002, Marek Michalkiewicz
   2:/usr/lib/gcc/avr/4.7.3/../../../../avr/include/util/delay.h ****    Copyright (c) 2004,2005,2007 Joerg Wunsch
   3:/usr/lib/gcc/avr/4.7.3/../../../../avr/include/util/delay.h ****    Copyright (c) 2007  Florin-Viorel Petrov
   4:/usr/lib/gcc/avr/4.7.3/../../../../avr/include/util/delay.h ****    All rights reserved.
   5:/usr/lib/gcc/avr/4.7.3/../../../../avr/include/util/delay.h **** 
   6:/usr/lib/gcc/avr/4.7.3/../../../../avr/include/util/delay.h ****    Redistribution and use in source and binary forms, with or without
   7:/usr/lib/gcc/avr/4.7.3/../../../../avr/include/util/delay.h ****    modification, are permitted provided that the following conditions are met:
   8:/usr/lib/gcc/avr/4.7.3/../../../../avr/include/util/delay.h **** 
   9:/usr/lib/gcc/avr/4.7.3/../../../../avr/include/util/delay.h ****    * Redistributions of source code must retain the above copyright
  10:/usr/lib/gcc/avr/4.7.3/../../../../avr/include/util/delay.h ****      notice, this list of conditions and the following disclaimer.
  11:/usr/lib/gcc/avr/4.7.3/../../../../avr/include/util/delay.h **** 
  12:/usr/lib/gcc/avr/4.7.3/../../../../avr/include/util/delay.h ****    * Redistributions in binary form must reproduce the above copyright
  13:/usr/lib/gcc/avr/4.7.3/../../../../avr/include/util/delay.h ****      notice, this list of conditions and the following disclaimer in
  14:/usr/lib/gcc/avr/4.7.3/../../../../avr/include/util/delay.h ****      the documentation and/or other materials provided with the
  15:/usr/lib/gcc/avr/4.7.3/../../../../avr/include/util/delay.h ****      distribution.
  16:/usr/lib/gcc/avr/4.7.3/../../../../avr/include/util/delay.h **** 
  17:/usr/lib/gcc/avr/4.7.3/../../../../avr/include/util/delay.h ****    * Neither the name of the copyright holders nor the names of
GAS LISTING /tmp/ccfQOnsU.s 			page 81


  18:/usr/lib/gcc/avr/4.7.3/../../../../avr/include/util/delay.h ****      contributors may be used to endorse or promote products derived
  19:/usr/lib/gcc/avr/4.7.3/../../../../avr/include/util/delay.h ****      from this software without specific prior written permission.
  20:/usr/lib/gcc/avr/4.7.3/../../../../avr/include/util/delay.h **** 
  21:/usr/lib/gcc/avr/4.7.3/../../../../avr/include/util/delay.h ****   THIS SOFTWARE IS PROVIDED BY THE COPYRIGHT HOLDERS AND CONTRIBUTORS "AS IS"
  22:/usr/lib/gcc/avr/4.7.3/../../../../avr/include/util/delay.h ****   AND ANY EXPRESS OR IMPLIED WARRANTIES, INCLUDING, BUT NOT LIMITED TO, THE
  23:/usr/lib/gcc/avr/4.7.3/../../../../avr/include/util/delay.h ****   IMPLIED WARRANTIES OF MERCHANTABILITY AND FITNESS FOR A PARTICULAR PURPOSE
  24:/usr/lib/gcc/avr/4.7.3/../../../../avr/include/util/delay.h ****   ARE DISCLAIMED. IN NO EVENT SHALL THE COPYRIGHT OWNER OR CONTRIBUTORS BE
  25:/usr/lib/gcc/avr/4.7.3/../../../../avr/include/util/delay.h ****   LIABLE FOR ANY DIRECT, INDIRECT, INCIDENTAL, SPECIAL, EXEMPLARY, OR
  26:/usr/lib/gcc/avr/4.7.3/../../../../avr/include/util/delay.h ****   CONSEQUENTIAL DAMAGES (INCLUDING, BUT NOT LIMITED TO, PROCUREMENT OF
  27:/usr/lib/gcc/avr/4.7.3/../../../../avr/include/util/delay.h ****   SUBSTITUTE GOODS OR SERVICES; LOSS OF USE, DATA, OR PROFITS; OR BUSINESS
  28:/usr/lib/gcc/avr/4.7.3/../../../../avr/include/util/delay.h ****   INTERRUPTION) HOWEVER CAUSED AND ON ANY THEORY OF LIABILITY, WHETHER IN
  29:/usr/lib/gcc/avr/4.7.3/../../../../avr/include/util/delay.h ****   CONTRACT, STRICT LIABILITY, OR TORT (INCLUDING NEGLIGENCE OR OTHERWISE)
  30:/usr/lib/gcc/avr/4.7.3/../../../../avr/include/util/delay.h ****   ARISING IN ANY WAY OUT OF THE USE OF THIS SOFTWARE, EVEN IF ADVISED OF THE
  31:/usr/lib/gcc/avr/4.7.3/../../../../avr/include/util/delay.h ****   POSSIBILITY OF SUCH DAMAGE. */
  32:/usr/lib/gcc/avr/4.7.3/../../../../avr/include/util/delay.h **** 
  33:/usr/lib/gcc/avr/4.7.3/../../../../avr/include/util/delay.h **** /* $Id: delay.h.in 2251 2011-09-14 08:20:33Z joerg_wunsch $ */
  34:/usr/lib/gcc/avr/4.7.3/../../../../avr/include/util/delay.h **** 
  35:/usr/lib/gcc/avr/4.7.3/../../../../avr/include/util/delay.h **** #ifndef _UTIL_DELAY_H_
  36:/usr/lib/gcc/avr/4.7.3/../../../../avr/include/util/delay.h **** #define _UTIL_DELAY_H_ 1
  37:/usr/lib/gcc/avr/4.7.3/../../../../avr/include/util/delay.h **** 
  38:/usr/lib/gcc/avr/4.7.3/../../../../avr/include/util/delay.h **** #ifndef __HAS_DELAY_CYCLES
  39:/usr/lib/gcc/avr/4.7.3/../../../../avr/include/util/delay.h **** #define __HAS_DELAY_CYCLES 1
  40:/usr/lib/gcc/avr/4.7.3/../../../../avr/include/util/delay.h **** #endif
  41:/usr/lib/gcc/avr/4.7.3/../../../../avr/include/util/delay.h **** 
  42:/usr/lib/gcc/avr/4.7.3/../../../../avr/include/util/delay.h **** #include <inttypes.h>
  43:/usr/lib/gcc/avr/4.7.3/../../../../avr/include/util/delay.h **** #include <util/delay_basic.h>
  44:/usr/lib/gcc/avr/4.7.3/../../../../avr/include/util/delay.h **** #include <math.h>
  45:/usr/lib/gcc/avr/4.7.3/../../../../avr/include/util/delay.h **** 
  46:/usr/lib/gcc/avr/4.7.3/../../../../avr/include/util/delay.h **** /** \file */
  47:/usr/lib/gcc/avr/4.7.3/../../../../avr/include/util/delay.h **** /** \defgroup util_delay <util/delay.h>: Convenience functions for busy-wait delay loops
  48:/usr/lib/gcc/avr/4.7.3/../../../../avr/include/util/delay.h ****     \code
  49:/usr/lib/gcc/avr/4.7.3/../../../../avr/include/util/delay.h ****     #define F_CPU 1000000UL  // 1 MHz
  50:/usr/lib/gcc/avr/4.7.3/../../../../avr/include/util/delay.h ****     //#define F_CPU 14.7456E6
  51:/usr/lib/gcc/avr/4.7.3/../../../../avr/include/util/delay.h ****     #include <util/delay.h>
  52:/usr/lib/gcc/avr/4.7.3/../../../../avr/include/util/delay.h ****     \endcode
  53:/usr/lib/gcc/avr/4.7.3/../../../../avr/include/util/delay.h **** 
  54:/usr/lib/gcc/avr/4.7.3/../../../../avr/include/util/delay.h ****     \note As an alternative method, it is possible to pass the
  55:/usr/lib/gcc/avr/4.7.3/../../../../avr/include/util/delay.h ****     F_CPU macro down to the compiler from the Makefile.
  56:/usr/lib/gcc/avr/4.7.3/../../../../avr/include/util/delay.h ****     Obviously, in that case, no \c \#define statement should be
  57:/usr/lib/gcc/avr/4.7.3/../../../../avr/include/util/delay.h ****     used.
  58:/usr/lib/gcc/avr/4.7.3/../../../../avr/include/util/delay.h **** 
  59:/usr/lib/gcc/avr/4.7.3/../../../../avr/include/util/delay.h ****     The functions in this header file are wrappers around the basic
  60:/usr/lib/gcc/avr/4.7.3/../../../../avr/include/util/delay.h ****     busy-wait functions from <util/delay_basic.h>.  They are meant as
  61:/usr/lib/gcc/avr/4.7.3/../../../../avr/include/util/delay.h ****     convenience functions where actual time values can be specified
  62:/usr/lib/gcc/avr/4.7.3/../../../../avr/include/util/delay.h ****     rather than a number of cycles to wait for.  The idea behind is
  63:/usr/lib/gcc/avr/4.7.3/../../../../avr/include/util/delay.h ****     that compile-time constant expressions will be eliminated by
  64:/usr/lib/gcc/avr/4.7.3/../../../../avr/include/util/delay.h ****     compiler optimization so floating-point expressions can be used
  65:/usr/lib/gcc/avr/4.7.3/../../../../avr/include/util/delay.h ****     to calculate the number of delay cycles needed based on the CPU
  66:/usr/lib/gcc/avr/4.7.3/../../../../avr/include/util/delay.h ****     frequency passed by the macro F_CPU.
  67:/usr/lib/gcc/avr/4.7.3/../../../../avr/include/util/delay.h **** 
  68:/usr/lib/gcc/avr/4.7.3/../../../../avr/include/util/delay.h ****     \note In order for these functions to work as intended, compiler
  69:/usr/lib/gcc/avr/4.7.3/../../../../avr/include/util/delay.h ****     optimizations <em>must</em> be enabled, and the delay time
  70:/usr/lib/gcc/avr/4.7.3/../../../../avr/include/util/delay.h ****     <em>must</em> be an expression that is a known constant at
  71:/usr/lib/gcc/avr/4.7.3/../../../../avr/include/util/delay.h ****     compile-time.  If these requirements are not met, the resulting
  72:/usr/lib/gcc/avr/4.7.3/../../../../avr/include/util/delay.h ****     delay will be much longer (and basically unpredictable), and
  73:/usr/lib/gcc/avr/4.7.3/../../../../avr/include/util/delay.h ****     applications that otherwise do not use floating-point calculations
  74:/usr/lib/gcc/avr/4.7.3/../../../../avr/include/util/delay.h ****     will experience severe code bloat by the floating-point library
GAS LISTING /tmp/ccfQOnsU.s 			page 82


  75:/usr/lib/gcc/avr/4.7.3/../../../../avr/include/util/delay.h ****     routines linked into the application.
  76:/usr/lib/gcc/avr/4.7.3/../../../../avr/include/util/delay.h **** 
  77:/usr/lib/gcc/avr/4.7.3/../../../../avr/include/util/delay.h ****     The functions available allow the specification of microsecond, and
  78:/usr/lib/gcc/avr/4.7.3/../../../../avr/include/util/delay.h ****     millisecond delays directly, using the application-supplied macro
  79:/usr/lib/gcc/avr/4.7.3/../../../../avr/include/util/delay.h ****     F_CPU as the CPU clock frequency (in Hertz).
  80:/usr/lib/gcc/avr/4.7.3/../../../../avr/include/util/delay.h **** 
  81:/usr/lib/gcc/avr/4.7.3/../../../../avr/include/util/delay.h **** */
  82:/usr/lib/gcc/avr/4.7.3/../../../../avr/include/util/delay.h **** 
  83:/usr/lib/gcc/avr/4.7.3/../../../../avr/include/util/delay.h **** #if !defined(__DOXYGEN__)
  84:/usr/lib/gcc/avr/4.7.3/../../../../avr/include/util/delay.h **** static inline void _delay_us(double __us) __attribute__((always_inline));
  85:/usr/lib/gcc/avr/4.7.3/../../../../avr/include/util/delay.h **** static inline void _delay_ms(double __ms) __attribute__((always_inline));
  86:/usr/lib/gcc/avr/4.7.3/../../../../avr/include/util/delay.h **** #endif
  87:/usr/lib/gcc/avr/4.7.3/../../../../avr/include/util/delay.h **** 
  88:/usr/lib/gcc/avr/4.7.3/../../../../avr/include/util/delay.h **** #ifndef F_CPU
  89:/usr/lib/gcc/avr/4.7.3/../../../../avr/include/util/delay.h **** /* prevent compiler error by supplying a default */
  90:/usr/lib/gcc/avr/4.7.3/../../../../avr/include/util/delay.h **** # warning "F_CPU not defined for <util/delay.h>"
  91:/usr/lib/gcc/avr/4.7.3/../../../../avr/include/util/delay.h **** # define F_CPU 1000000UL
  92:/usr/lib/gcc/avr/4.7.3/../../../../avr/include/util/delay.h **** #endif
  93:/usr/lib/gcc/avr/4.7.3/../../../../avr/include/util/delay.h **** 
  94:/usr/lib/gcc/avr/4.7.3/../../../../avr/include/util/delay.h **** #ifndef __OPTIMIZE__
  95:/usr/lib/gcc/avr/4.7.3/../../../../avr/include/util/delay.h **** # warning "Compiler optimizations disabled; functions from <util/delay.h> won't work as designed"
  96:/usr/lib/gcc/avr/4.7.3/../../../../avr/include/util/delay.h **** #endif
  97:/usr/lib/gcc/avr/4.7.3/../../../../avr/include/util/delay.h **** 
  98:/usr/lib/gcc/avr/4.7.3/../../../../avr/include/util/delay.h **** #if __HAS_DELAY_CYCLES && defined(__OPTIMIZE__) && \
  99:/usr/lib/gcc/avr/4.7.3/../../../../avr/include/util/delay.h ****   !defined(__DELAY_BACKWARD_COMPATIBLE__) &&	   \
 100:/usr/lib/gcc/avr/4.7.3/../../../../avr/include/util/delay.h ****   __STDC_HOSTED__
 101:/usr/lib/gcc/avr/4.7.3/../../../../avr/include/util/delay.h **** #  include <math.h>
 102:/usr/lib/gcc/avr/4.7.3/../../../../avr/include/util/delay.h **** #endif
 103:/usr/lib/gcc/avr/4.7.3/../../../../avr/include/util/delay.h **** 
 104:/usr/lib/gcc/avr/4.7.3/../../../../avr/include/util/delay.h **** /**
 105:/usr/lib/gcc/avr/4.7.3/../../../../avr/include/util/delay.h ****    \ingroup util_delay
 106:/usr/lib/gcc/avr/4.7.3/../../../../avr/include/util/delay.h **** 
 107:/usr/lib/gcc/avr/4.7.3/../../../../avr/include/util/delay.h ****    Perform a delay of \c __ms milliseconds, using _delay_loop_2().
 108:/usr/lib/gcc/avr/4.7.3/../../../../avr/include/util/delay.h **** 
 109:/usr/lib/gcc/avr/4.7.3/../../../../avr/include/util/delay.h ****    The macro F_CPU is supposed to be defined to a
 110:/usr/lib/gcc/avr/4.7.3/../../../../avr/include/util/delay.h ****    constant defining the CPU clock frequency (in Hertz).
 111:/usr/lib/gcc/avr/4.7.3/../../../../avr/include/util/delay.h **** 
 112:/usr/lib/gcc/avr/4.7.3/../../../../avr/include/util/delay.h ****    The maximal possible delay is 262.14 ms / F_CPU in MHz.
 113:/usr/lib/gcc/avr/4.7.3/../../../../avr/include/util/delay.h **** 
 114:/usr/lib/gcc/avr/4.7.3/../../../../avr/include/util/delay.h ****    When the user request delay which exceed the maximum possible one,
 115:/usr/lib/gcc/avr/4.7.3/../../../../avr/include/util/delay.h ****    _delay_ms() provides a decreased resolution functionality. In this
 116:/usr/lib/gcc/avr/4.7.3/../../../../avr/include/util/delay.h ****    mode _delay_ms() will work with a resolution of 1/10 ms, providing
 117:/usr/lib/gcc/avr/4.7.3/../../../../avr/include/util/delay.h ****    delays up to 6.5535 seconds (independent from CPU frequency).  The
 118:/usr/lib/gcc/avr/4.7.3/../../../../avr/include/util/delay.h ****    user will not be informed about decreased resolution.
 119:/usr/lib/gcc/avr/4.7.3/../../../../avr/include/util/delay.h **** 
 120:/usr/lib/gcc/avr/4.7.3/../../../../avr/include/util/delay.h ****    If the avr-gcc toolchain has __builtin_avr_delay_cycles(unsigned long)
 121:/usr/lib/gcc/avr/4.7.3/../../../../avr/include/util/delay.h ****    support, maximal possible delay is 4294967.295 ms/ F_CPU in MHz. For
 122:/usr/lib/gcc/avr/4.7.3/../../../../avr/include/util/delay.h ****    values greater than the maximal possible delay, overflows results in
 123:/usr/lib/gcc/avr/4.7.3/../../../../avr/include/util/delay.h ****    no delay i.e., 0ms.
 124:/usr/lib/gcc/avr/4.7.3/../../../../avr/include/util/delay.h **** 
 125:/usr/lib/gcc/avr/4.7.3/../../../../avr/include/util/delay.h ****    Conversion of __us into clock cycles may not always result in integer.
 126:/usr/lib/gcc/avr/4.7.3/../../../../avr/include/util/delay.h ****    By default, the clock cycles rounded up to next integer. This ensures that
 127:/usr/lib/gcc/avr/4.7.3/../../../../avr/include/util/delay.h ****    the user gets atleast __us microseconds of delay.
 128:/usr/lib/gcc/avr/4.7.3/../../../../avr/include/util/delay.h **** 
 129:/usr/lib/gcc/avr/4.7.3/../../../../avr/include/util/delay.h ****    Alternatively, user can define __DELAY_ROUND_DOWN__ and __DELAY_ROUND_CLOSEST__
 130:/usr/lib/gcc/avr/4.7.3/../../../../avr/include/util/delay.h ****    to round down and round to closest integer.
 131:/usr/lib/gcc/avr/4.7.3/../../../../avr/include/util/delay.h **** 
GAS LISTING /tmp/ccfQOnsU.s 			page 83


 132:/usr/lib/gcc/avr/4.7.3/../../../../avr/include/util/delay.h ****    Note: The new implementation of _delay_ms(double __ms) with 
 133:/usr/lib/gcc/avr/4.7.3/../../../../avr/include/util/delay.h ****     __builtin_avr_delay_cycles(unsigned long) support is not backward compatible. 
 134:/usr/lib/gcc/avr/4.7.3/../../../../avr/include/util/delay.h ****    User can define __DELAY_BACKWARD_COMPATIBLE__ to get a backward compatible delay.
 135:/usr/lib/gcc/avr/4.7.3/../../../../avr/include/util/delay.h ****    Also, the backward compatible
 136:/usr/lib/gcc/avr/4.7.3/../../../../avr/include/util/delay.h ****    algorithm will be chosen if the code is compiled in a <em>freestanding
 137:/usr/lib/gcc/avr/4.7.3/../../../../avr/include/util/delay.h ****    environment</em> (GCC option \c -ffreestanding), as the math functions
 138:/usr/lib/gcc/avr/4.7.3/../../../../avr/include/util/delay.h ****    required for rounding are not available to the compiler then.
 139:/usr/lib/gcc/avr/4.7.3/../../../../avr/include/util/delay.h **** 
 140:/usr/lib/gcc/avr/4.7.3/../../../../avr/include/util/delay.h ****  */
 141:/usr/lib/gcc/avr/4.7.3/../../../../avr/include/util/delay.h **** void
 142:/usr/lib/gcc/avr/4.7.3/../../../../avr/include/util/delay.h **** _delay_ms(double __ms)
 143:/usr/lib/gcc/avr/4.7.3/../../../../avr/include/util/delay.h **** {
 144:/usr/lib/gcc/avr/4.7.3/../../../../avr/include/util/delay.h **** 	uint16_t __ticks;
 145:/usr/lib/gcc/avr/4.7.3/../../../../avr/include/util/delay.h **** 	double __tmp ; 
 146:/usr/lib/gcc/avr/4.7.3/../../../../avr/include/util/delay.h **** #if __HAS_DELAY_CYCLES && defined(__OPTIMIZE__) && \
 147:/usr/lib/gcc/avr/4.7.3/../../../../avr/include/util/delay.h ****   !defined(__DELAY_BACKWARD_COMPATIBLE__) &&	   \
 148:/usr/lib/gcc/avr/4.7.3/../../../../avr/include/util/delay.h ****   __STDC_HOSTED__
 149:/usr/lib/gcc/avr/4.7.3/../../../../avr/include/util/delay.h **** 	uint32_t __ticks_dc;
 150:/usr/lib/gcc/avr/4.7.3/../../../../avr/include/util/delay.h **** 	extern void __builtin_avr_delay_cycles(unsigned long);
 151:/usr/lib/gcc/avr/4.7.3/../../../../avr/include/util/delay.h **** 	__tmp = ((F_CPU) / 1e3) * __ms;
 152:/usr/lib/gcc/avr/4.7.3/../../../../avr/include/util/delay.h **** 
 153:/usr/lib/gcc/avr/4.7.3/../../../../avr/include/util/delay.h **** 	#if defined(__DELAY_ROUND_DOWN__)
 154:/usr/lib/gcc/avr/4.7.3/../../../../avr/include/util/delay.h **** 		__ticks_dc = (uint32_t)fabs(__tmp);
 155:/usr/lib/gcc/avr/4.7.3/../../../../avr/include/util/delay.h **** 
 156:/usr/lib/gcc/avr/4.7.3/../../../../avr/include/util/delay.h **** 	#elif defined(__DELAY_ROUND_CLOSEST__)
 157:/usr/lib/gcc/avr/4.7.3/../../../../avr/include/util/delay.h **** 		__ticks_dc = (uint32_t)(fabs(__tmp)+0.5);
 158:/usr/lib/gcc/avr/4.7.3/../../../../avr/include/util/delay.h **** 
 159:/usr/lib/gcc/avr/4.7.3/../../../../avr/include/util/delay.h **** 	#else
 160:/usr/lib/gcc/avr/4.7.3/../../../../avr/include/util/delay.h **** 		//round up by default
 161:/usr/lib/gcc/avr/4.7.3/../../../../avr/include/util/delay.h **** 		__ticks_dc = (uint32_t)(ceil(fabs(__tmp)));
 162:/usr/lib/gcc/avr/4.7.3/../../../../avr/include/util/delay.h **** 	#endif
 163:/usr/lib/gcc/avr/4.7.3/../../../../avr/include/util/delay.h **** 
 164:/usr/lib/gcc/avr/4.7.3/../../../../avr/include/util/delay.h **** 	__builtin_avr_delay_cycles(__ticks_dc);
 3159               		.stabn	68,0,164,.LM483-.LFBB40
 3160               	.LM483:
 3161 0d4e 8FE0      		ldi r24,lo8(9999)
 3162 0d50 97E2      		ldi r25,hi8(9999)
 3163 0d52 0197      		1: sbiw r24,1
 3164 0d54 01F4      		brne 1b
 3165 0d56 00C0      		rjmp .
 3166 0d58 0000      		nop
 3167               	.LBE68:
 3168               	.LBE67:
 3169               		.stabs	"robot_chat.cpp",132,0,0,.Ltext2
 3170               	.Ltext2:
1254:robot_chat.cpp **** 		_delay_ms(5);
1255:robot_chat.cpp **** 		r.eteindreDEL(portDEL, pinCouleur, pinCouleur2);
 3171               		.stabn	68,0,1255,.LM484-.LFBB40
 3172               	.LM484:
 3173 0d5a 4091 0000 		lds r20,pinCouleur2
 3174 0d5e 6091 0000 		lds r22,pinCouleur
 3175 0d62 85E2      		ldi r24,lo8(37)
 3176 0d64 90E0      		ldi r25,0
 3177 0d66 0E94 0000 		call _ZN8LibRobot11eteindreDELERVhhh
1256:robot_chat.cpp **** 		r.allumerDEL(portDEL, pinCouleur2);
 3178               		.stabn	68,0,1256,.LM485-.LFBB40
 3179               	.LM485:
GAS LISTING /tmp/ccfQOnsU.s 			page 84


 3180 0d6a 6091 0000 		lds r22,pinCouleur2
 3181 0d6e 85E2      		ldi r24,lo8(37)
 3182 0d70 90E0      		ldi r25,0
 3183 0d72 0E94 0000 		call _ZN8LibRobot10allumerDELERVhh
 3184               	.LBB69:
 3185               	.LBB70:
 3186               		.stabs	"/usr/lib/gcc/avr/4.7.3/../../../../avr/include/util/delay.h",132,0,0,.Ltext3
 3187               	.Ltext3:
 3188               		.stabn	68,0,164,.LM486-.LFBB40
 3189               	.LM486:
 3190 0d76 8FE0      		ldi r24,lo8(9999)
 3191 0d78 97E2      		ldi r25,hi8(9999)
 3192 0d7a 0197      		1: sbiw r24,1
 3193 0d7c 01F4      		brne 1b
 3194 0d7e 00C0      		rjmp .
 3195 0d80 0000      		nop
 3196               	.L384:
 3197 0d82 0895      		ret
 3198               	.LBE70:
 3199               	.LBE69:
 3200               		.size	_Z19gestionModeVictoirev, .-_Z19gestionModeVictoirev
 3201               	.Lscope40:
 3202               		.stabs	"",36,0,0,.Lscope40-.LFBB40
 3203               		.stabd	78,0,0
 3204               		.stabs	"_Z25verifierPossibiliteFoncerv:F(0,4)",36,0,1261,_Z25verifierPossibiliteFoncerv
 3205               	.global	_Z25verifierPossibiliteFoncerv
 3206               		.type	_Z25verifierPossibiliteFoncerv, @function
 3207               	_Z25verifierPossibiliteFoncerv:
 3208               		.stabd	46,0,0
 3209               		.stabs	"robot_chat.cpp",132,0,0,.Ltext4
 3210               	.Ltext4:
1257:robot_chat.cpp **** 		_delay_ms(5);
1258:robot_chat.cpp **** 	}
1259:robot_chat.cpp **** }
1260:robot_chat.cpp **** 
1261:robot_chat.cpp **** void verifierPossibiliteFoncer()
1262:robot_chat.cpp **** {
 3211               		.stabn	68,0,1262,.LM487-.LFBB41
 3212               	.LM487:
 3213               	.LFBB41:
 3214               	/* prologue: function */
 3215               	/* frame size = 0 */
 3216               	/* stack size = 0 */
 3217               	.L__stack_usage = 0
 3218               	.LBB71:
1263:robot_chat.cpp **** 	uint8_t dist = getDistanceSouris();
 3219               		.stabn	68,0,1263,.LM488-.LFBB41
 3220               	.LM488:
 3221 0d84 0E94 0000 		call _Z17getDistanceSourisv
1264:robot_chat.cpp **** 
1265:robot_chat.cpp **** 	if(dist == 0)
 3222               		.stabn	68,0,1265,.LM489-.LFBB41
 3223               	.LM489:
 3224 0d88 8111      		cpse r24,__zero_reg__
 3225 0d8a 00C0      		rjmp .L390
1266:robot_chat.cpp **** 	{
1267:robot_chat.cpp **** 		modeVictoire = true;
GAS LISTING /tmp/ccfQOnsU.s 			page 85


 3226               		.stabn	68,0,1267,.LM490-.LFBB41
 3227               	.LM490:
 3228 0d8c 81E0      		ldi r24,lo8(1)
 3229 0d8e 8093 0000 		sts modeVictoire,r24
1268:robot_chat.cpp **** 		return;
 3230               		.stabn	68,0,1268,.LM491-.LFBB41
 3231               	.LM491:
 3232 0d92 0895      		ret
 3233               	.L390:
1269:robot_chat.cpp **** 	}
1270:robot_chat.cpp **** 	else if(dist != 4) //if(dist != 4)
 3234               		.stabn	68,0,1270,.LM492-.LFBB41
 3235               	.LM492:
 3236 0d94 8430      		cpi r24,lo8(4)
 3237 0d96 01F0      		breq .L392
1271:robot_chat.cpp **** 	{
1272:robot_chat.cpp **** 		nbIntersection = 0;
 3238               		.stabn	68,0,1272,.LM493-.LFBB41
 3239               	.LM493:
 3240 0d98 1092 0000 		sts nbIntersection,__zero_reg__
1273:robot_chat.cpp **** 		modeFoncerConsecutif++;
 3241               		.stabn	68,0,1273,.LM494-.LFBB41
 3242               	.LM494:
 3243 0d9c 8091 0000 		lds r24,modeFoncerConsecutif
 3244 0da0 8F5F      		subi r24,lo8(-(1))
 3245 0da2 8093 0000 		sts modeFoncerConsecutif,r24
1274:robot_chat.cpp **** 		if(modeFoncerConsecutif > modeFoncerConsecutifMax)
 3246               		.stabn	68,0,1274,.LM495-.LFBB41
 3247               	.LM495:
 3248 0da6 9091 0000 		lds r25,modeFoncerConsecutifMax
 3249 0daa 9817      		cp r25,r24
 3250 0dac 00F4      		brsh .L389
1275:robot_chat.cpp **** 		{
1276:robot_chat.cpp **** 			modeFoncer = true;
 3251               		.stabn	68,0,1276,.LM496-.LFBB41
 3252               	.LM496:
 3253 0dae 81E0      		ldi r24,lo8(1)
 3254 0db0 8093 0000 		sts modeFoncer,r24
1277:robot_chat.cpp **** 			modeRecherche = false;
 3255               		.stabn	68,0,1277,.LM497-.LFBB41
 3256               	.LM497:
 3257 0db4 1092 0000 		sts modeRecherche,__zero_reg__
 3258 0db8 0895      		ret
 3259               	.L392:
1278:robot_chat.cpp **** 		}
1279:robot_chat.cpp **** 		//La souris est en ligne droite
1280:robot_chat.cpp **** 
1281:robot_chat.cpp **** 	}
1282:robot_chat.cpp **** 	else
1283:robot_chat.cpp **** 	{
1284:robot_chat.cpp **** 		modeFoncerConsecutif = 0;
 3260               		.stabn	68,0,1284,.LM498-.LFBB41
 3261               	.LM498:
 3262 0dba 1092 0000 		sts modeFoncerConsecutif,__zero_reg__
1285:robot_chat.cpp **** 		modeFoncer = false;
 3263               		.stabn	68,0,1285,.LM499-.LFBB41
 3264               	.LM499:
GAS LISTING /tmp/ccfQOnsU.s 			page 86


 3265 0dbe 1092 0000 		sts modeFoncer,__zero_reg__
1286:robot_chat.cpp **** 		modeRecherche = true;
 3266               		.stabn	68,0,1286,.LM500-.LFBB41
 3267               	.LM500:
 3268 0dc2 81E0      		ldi r24,lo8(1)
 3269 0dc4 8093 0000 		sts modeRecherche,r24
 3270               	.L389:
 3271 0dc8 0895      		ret
 3272               	.LBE71:
 3273               		.size	_Z25verifierPossibiliteFoncerv, .-_Z25verifierPossibiliteFoncerv
 3274               		.stabs	"dist:r(0,29)",64,0,1263,24
 3275               		.stabn	192,0,0,.LBB71-.LFBB41
 3276               		.stabn	224,0,0,.LBE71-.LFBB41
 3277               	.Lscope41:
 3278               		.stabs	"",36,0,0,.Lscope41-.LFBB41
 3279               		.stabd	78,0,0
 3280               		.stabs	"_Z22gestionDeplacementChatv:F(0,4)",36,0,1290,_Z22gestionDeplacementChatv
 3281               	.global	_Z22gestionDeplacementChatv
 3282               		.type	_Z22gestionDeplacementChatv, @function
 3283               	_Z22gestionDeplacementChatv:
 3284               		.stabd	46,0,0
1287:robot_chat.cpp **** 	}
1288:robot_chat.cpp **** }
1289:robot_chat.cpp **** 
1290:robot_chat.cpp **** void gestionDeplacementChat()
1291:robot_chat.cpp **** {
 3285               		.stabn	68,0,1291,.LM501-.LFBB42
 3286               	.LM501:
 3287               	.LFBB42:
 3288               	/* prologue: function */
 3289               	/* frame size = 0 */
 3290               	/* stack size = 0 */
 3291               	.L__stack_usage = 0
1292:robot_chat.cpp **** 	ajusterPositionRelative(directionCourrante);
 3292               		.stabn	68,0,1292,.LM502-.LFBB42
 3293               	.LM502:
 3294 0dca 8091 0000 		lds r24,directionCourrante
 3295 0dce 0E94 0000 		call _Z23ajusterPositionRelativeh
1293:robot_chat.cpp **** 
1294:robot_chat.cpp **** 	//---------------------------
1295:robot_chat.cpp **** 	//Vérification de la victoire
1296:robot_chat.cpp **** 	//---------------------------
1297:robot_chat.cpp **** 	if(modeVictoire)
 3296               		.stabn	68,0,1297,.LM503-.LFBB42
 3297               	.LM503:
 3298 0dd2 8091 0000 		lds r24,modeVictoire
 3299 0dd6 8823      		tst r24
 3300 0dd8 01F0      		breq .L394
1298:robot_chat.cpp **** 	{
1299:robot_chat.cpp **** 		r.arreterMoteurs();
 3301               		.stabn	68,0,1299,.LM504-.LFBB42
 3302               	.LM504:
 3303 0dda 0E94 0000 		call _ZN8LibRobot14arreterMoteursEv
1300:robot_chat.cpp **** 		r.arreterSon();
 3304               		.stabn	68,0,1300,.LM505-.LFBB42
 3305               	.LM505:
 3306 0dde 0E94 0000 		call _ZN8LibRobot10arreterSonEv
GAS LISTING /tmp/ccfQOnsU.s 			page 87


1301:robot_chat.cpp **** 		gestionModeVictoire();
 3307               		.stabn	68,0,1301,.LM506-.LFBB42
 3308               	.LM506:
 3309 0de2 0C94 0000 		jmp _Z19gestionModeVictoirev
 3310               	.L394:
1302:robot_chat.cpp **** 		return;
1303:robot_chat.cpp **** 	}
1304:robot_chat.cpp **** 	modeVictoire = verifierVictoire();	
 3311               		.stabn	68,0,1304,.LM507-.LFBB42
 3312               	.LM507:
 3313 0de6 0E94 0000 		call _Z16verifierVictoirev
 3314 0dea 8093 0000 		sts modeVictoire,r24
1305:robot_chat.cpp **** 
1306:robot_chat.cpp **** 	//se souvenir de la position du robot
1307:robot_chat.cpp **** 	garderEnMemoirePositionsRelatives();
 3315               		.stabn	68,0,1307,.LM508-.LFBB42
 3316               	.LM508:
 3317 0dee 0E94 0000 		call _Z33garderEnMemoirePositionsRelativesv
1308:robot_chat.cpp **** 
1309:robot_chat.cpp **** 	if(debug)
 3318               		.stabn	68,0,1309,.LM509-.LFBB42
 3319               	.LM509:
 3320 0df2 8091 0000 		lds r24,debug
 3321 0df6 8823      		tst r24
 3322 0df8 01F0      		breq .L396
1310:robot_chat.cpp **** 	{
1311:robot_chat.cpp **** 		r.eteindreDEL(portDEL, pinCouleur, pinCouleur2);
 3323               		.stabn	68,0,1311,.LM510-.LFBB42
 3324               	.LM510:
 3325 0dfa 4091 0000 		lds r20,pinCouleur2
 3326 0dfe 6091 0000 		lds r22,pinCouleur
 3327 0e02 85E2      		ldi r24,lo8(37)
 3328 0e04 90E0      		ldi r25,0
 3329 0e06 0E94 0000 		call _ZN8LibRobot11eteindreDELERVhhh
1312:robot_chat.cpp **** 		if(modeFoncer)
 3330               		.stabn	68,0,1312,.LM511-.LFBB42
 3331               	.LM511:
 3332 0e0a 8091 0000 		lds r24,modeFoncer
 3333 0e0e 8823      		tst r24
 3334 0e10 01F0      		breq .L397
1313:robot_chat.cpp **** 			r.allumerDEL(portDEL, pinCouleur);
 3335               		.stabn	68,0,1313,.LM512-.LFBB42
 3336               	.LM512:
 3337 0e12 6091 0000 		lds r22,pinCouleur
 3338 0e16 85E2      		ldi r24,lo8(37)
 3339 0e18 90E0      		ldi r25,0
 3340 0e1a 0E94 0000 		call _ZN8LibRobot10allumerDELERVhh
 3341               	.L397:
1314:robot_chat.cpp **** 		if(modeRecherche)
 3342               		.stabn	68,0,1314,.LM513-.LFBB42
 3343               	.LM513:
 3344 0e1e 8091 0000 		lds r24,modeRecherche
 3345 0e22 8823      		tst r24
 3346 0e24 01F0      		breq .L396
1315:robot_chat.cpp **** 			r.allumerDEL(portDEL, pinCouleur2);
 3347               		.stabn	68,0,1315,.LM514-.LFBB42
 3348               	.LM514:
GAS LISTING /tmp/ccfQOnsU.s 			page 88


 3349 0e26 6091 0000 		lds r22,pinCouleur2
 3350 0e2a 85E2      		ldi r24,lo8(37)
 3351 0e2c 90E0      		ldi r25,0
 3352 0e2e 0E94 0000 		call _ZN8LibRobot10allumerDELERVhh
 3353               	.L396:
1316:robot_chat.cpp **** 	}
1317:robot_chat.cpp **** 
1318:robot_chat.cpp **** 	//---------------------------
1319:robot_chat.cpp **** 	//Mode de déplacement normal
1320:robot_chat.cpp **** 	//---------------------------
1321:robot_chat.cpp **** 	if(modeLigneDroite)
 3354               		.stabn	68,0,1321,.LM515-.LFBB42
 3355               	.LM515:
 3356 0e32 8091 0000 		lds r24,modeLigneDroite
 3357 0e36 8823      		tst r24
 3358 0e38 01F4      		brne .+2
 3359 0e3a 00C0      		rjmp .L399
1322:robot_chat.cpp **** 	{
1323:robot_chat.cpp **** 		//Vérifier si on doit foncer
1324:robot_chat.cpp **** 		//Donc que la sourie est droit devant
1325:robot_chat.cpp **** 		verifierPossibiliteFoncer();
 3360               		.stabn	68,0,1325,.LM516-.LFBB42
 3361               	.LM516:
 3362 0e3c 0E94 0000 		call _Z25verifierPossibiliteFoncerv
1326:robot_chat.cpp **** 		
1327:robot_chat.cpp **** 		if(detecterIntersection())
 3363               		.stabn	68,0,1327,.LM517-.LFBB42
 3364               	.LM517:
 3365 0e40 0E94 0000 		call _Z20detecterIntersectionv
 3366 0e44 8823      		tst r24
 3367 0e46 01F0      		breq .L400
1328:robot_chat.cpp **** 		{	
1329:robot_chat.cpp **** 			tomberEnModerDetecterTypeIntersection(false);
 3368               		.stabn	68,0,1329,.LM518-.LFBB42
 3369               	.LM518:
 3370 0e48 80E0      		ldi r24,0
 3371 0e4a 0E94 0000 		call _Z37tomberEnModerDetecterTypeIntersectionb
1330:robot_chat.cpp **** 			ajusterDistanceAParcourir();
 3372               		.stabn	68,0,1330,.LM519-.LFBB42
 3373               	.LM519:
 3374 0e4e 0E94 0000 		call _Z25ajusterDistanceAParcourirv
1331:robot_chat.cpp **** 			determinerTypeIntersection();
 3375               		.stabn	68,0,1331,.LM520-.LFBB42
 3376               	.LM520:
 3377 0e52 0C94 0000 		jmp _Z26determinerTypeIntersectionv
 3378               	.L400:
1332:robot_chat.cpp **** 		}
1333:robot_chat.cpp **** 		else
1334:robot_chat.cpp **** 		{
1335:robot_chat.cpp **** 			ajusterTempsActifSansCapteur();
 3379               		.stabn	68,0,1335,.LM521-.LFBB42
 3380               	.LM521:
 3381 0e56 0E94 0000 		call _Z28ajusterTempsActifSansCapteurv
1336:robot_chat.cpp **** 			ajusterTempsActifRecent();
 3382               		.stabn	68,0,1336,.LM522-.LFBB42
 3383               	.LM522:
 3384 0e5a 0E94 0000 		call _Z23ajusterTempsActifRecentv
GAS LISTING /tmp/ccfQOnsU.s 			page 89


1337:robot_chat.cpp **** 			tempsDepuisIntersection+=10;
 3385               		.stabn	68,0,1337,.LM523-.LFBB42
 3386               	.LM523:
 3387 0e5e 8091 0000 		lds r24,tempsDepuisIntersection
 3388 0e62 9091 0000 		lds r25,tempsDepuisIntersection+1
 3389 0e66 0A96      		adiw r24,10
 3390 0e68 9093 0000 		sts tempsDepuisIntersection+1,r25
 3391 0e6c 8093 0000 		sts tempsDepuisIntersection,r24
1338:robot_chat.cpp **** 			if(tempsDepuisIntersection >=tempsAttenteMaxIntersection) //Déclencher intersection manuelle
 3392               		.stabn	68,0,1338,.LM524-.LFBB42
 3393               	.LM524:
 3394 0e70 2091 0000 		lds r18,tempsAttenteMaxIntersection
 3395 0e74 3091 0000 		lds r19,tempsAttenteMaxIntersection+1
 3396 0e78 8217      		cp r24,r18
 3397 0e7a 9307      		cpc r25,r19
 3398 0e7c 00F0      		brlo .L401
1339:robot_chat.cpp **** 			{
1340:robot_chat.cpp **** 				//Intersection manuelle, donc détecter si le temps actif recent est suffisaement élevé pour
1341:robot_chat.cpp **** 				//qu'on ait le droit de continuer tout droit
1342:robot_chat.cpp **** 				if(tempsLigneDroiteActive >= tempsLigneDroiteActiveSeuil)
 3399               		.stabn	68,0,1342,.LM525-.LFBB42
 3400               	.LM525:
 3401 0e7e 2091 0000 		lds r18,tempsLigneDroiteActive
 3402 0e82 3091 0000 		lds r19,tempsLigneDroiteActive+1
 3403 0e86 8091 0000 		lds r24,tempsLigneDroiteActiveSeuil
 3404 0e8a 9091 0000 		lds r25,tempsLigneDroiteActiveSeuil+1
 3405 0e8e 2817      		cp r18,r24
 3406 0e90 3907      		cpc r19,r25
 3407 0e92 00F0      		brlo .L402
1343:robot_chat.cpp **** 				{
1344:robot_chat.cpp **** 					tempsDepuisIntersection = 0;
 3408               		.stabn	68,0,1344,.LM526-.LFBB42
 3409               	.LM526:
 3410 0e94 1092 0000 		sts tempsDepuisIntersection+1,__zero_reg__
 3411 0e98 1092 0000 		sts tempsDepuisIntersection,__zero_reg__
1345:robot_chat.cpp **** 					tempsLigneDroiteActive = 0;
 3412               		.stabn	68,0,1345,.LM527-.LFBB42
 3413               	.LM527:
 3414 0e9c 1092 0000 		sts tempsLigneDroiteActive+1,__zero_reg__
 3415 0ea0 1092 0000 		sts tempsLigneDroiteActive,__zero_reg__
1346:robot_chat.cpp **** 					tempsLigneDroiteDepuisIntersection = 0;
 3416               		.stabn	68,0,1346,.LM528-.LFBB42
 3417               	.LM528:
 3418 0ea4 1092 0000 		sts tempsLigneDroiteDepuisIntersection+1,__zero_reg__
 3419 0ea8 1092 0000 		sts tempsLigneDroiteDepuisIntersection,__zero_reg__
 3420 0eac 00C0      		rjmp .L401
 3421               	.L402:
1347:robot_chat.cpp **** 					avancerLigneDroite();
1348:robot_chat.cpp **** 				}
1349:robot_chat.cpp **** 				else
1350:robot_chat.cpp **** 				{
1351:robot_chat.cpp **** 					modeLigneDroite = false;
 3422               		.stabn	68,0,1351,.LM529-.LFBB42
 3423               	.LM529:
 3424 0eae 1092 0000 		sts modeLigneDroite,__zero_reg__
1352:robot_chat.cpp **** 					tomberEnModeReculer();
 3425               		.stabn	68,0,1352,.LM530-.LFBB42
GAS LISTING /tmp/ccfQOnsU.s 			page 90


 3426               	.LM530:
 3427 0eb2 0C94 0000 		jmp _Z19tomberEnModeReculerv
 3428               	.L401:
1353:robot_chat.cpp **** 				}
1354:robot_chat.cpp **** 			}
1355:robot_chat.cpp **** 			else
1356:robot_chat.cpp **** 			{
1357:robot_chat.cpp **** 				avancerLigneDroite();
 3429               		.stabn	68,0,1357,.LM531-.LFBB42
 3430               	.LM531:
 3431 0eb6 0C94 0000 		jmp _Z18avancerLigneDroitev
 3432               	.L399:
1358:robot_chat.cpp **** 			}
1359:robot_chat.cpp **** 		}
1360:robot_chat.cpp **** 	}
1361:robot_chat.cpp **** 	else if(modeIntersection) //Détection intersection
 3433               		.stabn	68,0,1361,.LM532-.LFBB42
 3434               	.LM532:
 3435 0eba 8091 0000 		lds r24,modeIntersection
 3436 0ebe 8823      		tst r24
 3437 0ec0 01F0      		breq .L403
1362:robot_chat.cpp **** 	{
1363:robot_chat.cpp **** 		if(determinerTypeIntersection())
 3438               		.stabn	68,0,1363,.LM533-.LFBB42
 3439               	.LM533:
 3440 0ec2 0E94 0000 		call _Z26determinerTypeIntersectionv
 3441 0ec6 8823      		tst r24
 3442 0ec8 01F0      		breq .L401
1364:robot_chat.cpp **** 		{
1365:robot_chat.cpp **** 			if(!modeFoncer && nbIntersection < nbIntersectionMax)
 3443               		.stabn	68,0,1365,.LM534-.LFBB42
 3444               	.LM534:
 3445 0eca 8091 0000 		lds r24,modeFoncer
 3446 0ece 8111      		cpse r24,__zero_reg__
 3447 0ed0 00C0      		rjmp .L404
 3448               		.stabn	68,0,1365,.LM535-.LFBB42
 3449               	.LM535:
 3450 0ed2 8091 0000 		lds r24,nbIntersection
 3451 0ed6 9091 0000 		lds r25,nbIntersectionMax
 3452 0eda 8917      		cp r24,r25
 3453 0edc 00F4      		brsh .L404
1366:robot_chat.cpp **** 				nbIntersection++;
 3454               		.stabn	68,0,1366,.LM536-.LFBB42
 3455               	.LM536:
 3456 0ede 8F5F      		subi r24,lo8(-(1))
 3457 0ee0 8093 0000 		sts nbIntersection,r24
 3458               	.L404:
1367:robot_chat.cpp **** 			
1368:robot_chat.cpp **** 			modeIntersection = false;
 3459               		.stabn	68,0,1368,.LM537-.LFBB42
 3460               	.LM537:
 3461 0ee4 1092 0000 		sts modeIntersection,__zero_reg__
1369:robot_chat.cpp **** 			decisionVirage(false, false);
 3462               		.stabn	68,0,1369,.LM538-.LFBB42
 3463               	.LM538:
 3464 0ee8 60E0      		ldi r22,0
 3465 0eea 80E0      		ldi r24,0
GAS LISTING /tmp/ccfQOnsU.s 			page 91


 3466 0eec 0C94 0000 		jmp _Z14decisionViragebb
 3467               	.L403:
1370:robot_chat.cpp **** 		}
1371:robot_chat.cpp **** 		else
1372:robot_chat.cpp **** 		{
1373:robot_chat.cpp **** 			avancerLigneDroite(); //Continuer d'ajuster le déplacement
1374:robot_chat.cpp **** 		}
1375:robot_chat.cpp **** 	}
1376:robot_chat.cpp **** 	else if(modeVirageDroite)
 3468               		.stabn	68,0,1376,.LM539-.LFBB42
 3469               	.LM539:
 3470 0ef0 8091 0000 		lds r24,modeVirageDroite
 3471 0ef4 8823      		tst r24
 3472 0ef6 01F0      		breq .L405
1377:robot_chat.cpp **** 	{
1378:robot_chat.cpp **** 		if(virer(true))
 3473               		.stabn	68,0,1378,.LM540-.LFBB42
 3474               	.LM540:
 3475 0ef8 81E0      		ldi r24,lo8(1)
 3476 0efa 0E94 0000 		call _Z5virerb
 3477 0efe 8823      		tst r24
 3478 0f00 01F4      		brne .+2
 3479 0f02 00C0      		rjmp .L393
1379:robot_chat.cpp **** 		{
1380:robot_chat.cpp **** 			if(debug)
 3480               		.stabn	68,0,1380,.LM541-.LFBB42
 3481               	.LM541:
 3482 0f04 8091 0000 		lds r24,debug
 3483 0f08 8823      		tst r24
 3484 0f0a 01F0      		breq .L408
1381:robot_chat.cpp **** 				r.eteindreDEL(portDEL, pinCouleur, pinCouleur2);
 3485               		.stabn	68,0,1381,.LM542-.LFBB42
 3486               	.LM542:
 3487 0f0c 4091 0000 		lds r20,pinCouleur2
 3488 0f10 6091 0000 		lds r22,pinCouleur
 3489 0f14 85E2      		ldi r24,lo8(37)
 3490 0f16 90E0      		ldi r25,0
 3491 0f18 0E94 0000 		call _ZN8LibRobot11eteindreDELERVhhh
 3492               	.L408:
1382:robot_chat.cpp **** 			modeVirageDroite = false;
 3493               		.stabn	68,0,1382,.LM543-.LFBB42
 3494               	.LM543:
 3495 0f1c 1092 0000 		sts modeVirageDroite,__zero_reg__
1383:robot_chat.cpp **** 			modeLigneDroite = true;
 3496               		.stabn	68,0,1383,.LM544-.LFBB42
 3497               	.LM544:
 3498 0f20 81E0      		ldi r24,lo8(1)
 3499 0f22 8093 0000 		sts modeLigneDroite,r24
1384:robot_chat.cpp **** 			dernierCapteur = 3; //Mettre le dernier virage comme étant celui de droite
 3500               		.stabn	68,0,1384,.LM545-.LFBB42
 3501               	.LM545:
 3502 0f26 83E0      		ldi r24,lo8(3)
 3503 0f28 00C0      		rjmp .L440
 3504               	.L405:
1385:robot_chat.cpp **** 		}
1386:robot_chat.cpp **** 	}
1387:robot_chat.cpp **** 	else if(modeVirageGauche)
GAS LISTING /tmp/ccfQOnsU.s 			page 92


 3505               		.stabn	68,0,1387,.LM546-.LFBB42
 3506               	.LM546:
 3507 0f2a 8091 0000 		lds r24,modeVirageGauche
 3508 0f2e 8823      		tst r24
 3509 0f30 01F0      		breq .L409
1388:robot_chat.cpp **** 	{
1389:robot_chat.cpp **** 		if(virer(false))
 3510               		.stabn	68,0,1389,.LM547-.LFBB42
 3511               	.LM547:
 3512 0f32 80E0      		ldi r24,0
 3513 0f34 0E94 0000 		call _Z5virerb
 3514 0f38 8823      		tst r24
 3515 0f3a 01F4      		brne .+2
 3516 0f3c 00C0      		rjmp .L393
1390:robot_chat.cpp **** 		{
1391:robot_chat.cpp **** 			if(debug)
 3517               		.stabn	68,0,1391,.LM548-.LFBB42
 3518               	.LM548:
 3519 0f3e 8091 0000 		lds r24,debug
 3520 0f42 8823      		tst r24
 3521 0f44 01F0      		breq .L411
1392:robot_chat.cpp **** 				r.eteindreDEL(portDEL, pinCouleur, pinCouleur2);
 3522               		.stabn	68,0,1392,.LM549-.LFBB42
 3523               	.LM549:
 3524 0f46 4091 0000 		lds r20,pinCouleur2
 3525 0f4a 6091 0000 		lds r22,pinCouleur
 3526 0f4e 85E2      		ldi r24,lo8(37)
 3527 0f50 90E0      		ldi r25,0
 3528 0f52 0E94 0000 		call _ZN8LibRobot11eteindreDELERVhhh
 3529               	.L411:
1393:robot_chat.cpp **** 			modeVirageGauche = false;
 3530               		.stabn	68,0,1393,.LM550-.LFBB42
 3531               	.LM550:
 3532 0f56 1092 0000 		sts modeVirageGauche,__zero_reg__
1394:robot_chat.cpp **** 			modeLigneDroite = true;
 3533               		.stabn	68,0,1394,.LM551-.LFBB42
 3534               	.LM551:
 3535 0f5a 81E0      		ldi r24,lo8(1)
 3536 0f5c 8093 0000 		sts modeLigneDroite,r24
 3537               	.L440:
1395:robot_chat.cpp **** 			dernierCapteur = 1; //Mettre le dernier virage comme étant celui de gauche
 3538               		.stabn	68,0,1395,.LM552-.LFBB42
 3539               	.LM552:
 3540 0f60 8093 0000 		sts dernierCapteur,r24
 3541 0f64 0895      		ret
 3542               	.L409:
1396:robot_chat.cpp **** 		}
1397:robot_chat.cpp **** 	}
1398:robot_chat.cpp **** 	else if(modeReculer)
 3543               		.stabn	68,0,1398,.LM553-.LFBB42
 3544               	.LM553:
 3545 0f66 8091 0000 		lds r24,modeReculer
 3546 0f6a 8823      		tst r24
 3547 0f6c 01F0      		breq .L412
1399:robot_chat.cpp **** 	{
1400:robot_chat.cpp **** 		if(reculer())
 3548               		.stabn	68,0,1400,.LM554-.LFBB42
GAS LISTING /tmp/ccfQOnsU.s 			page 93


 3549               	.LM554:
 3550 0f6e 0E94 0000 		call _Z7reculerv
 3551 0f72 8823      		tst r24
 3552 0f74 01F0      		breq .L393
1401:robot_chat.cpp **** 		{
1402:robot_chat.cpp **** 			tempsDepuisIntersection = 0;
 3553               		.stabn	68,0,1402,.LM555-.LFBB42
 3554               	.LM555:
 3555 0f76 1092 0000 		sts tempsDepuisIntersection+1,__zero_reg__
 3556 0f7a 1092 0000 		sts tempsDepuisIntersection,__zero_reg__
1403:robot_chat.cpp **** 			tempsLigneDroiteActive = 0;
 3557               		.stabn	68,0,1403,.LM556-.LFBB42
 3558               	.LM556:
 3559 0f7e 1092 0000 		sts tempsLigneDroiteActive+1,__zero_reg__
 3560 0f82 1092 0000 		sts tempsLigneDroiteActive,__zero_reg__
1404:robot_chat.cpp **** 			tempsLigneDroiteDepuisIntersection = 0;
 3561               		.stabn	68,0,1404,.LM557-.LFBB42
 3562               	.LM557:
 3563 0f86 1092 0000 		sts tempsLigneDroiteDepuisIntersection+1,__zero_reg__
 3564 0f8a 1092 0000 		sts tempsLigneDroiteDepuisIntersection,__zero_reg__
1405:robot_chat.cpp **** 			tempsActifSansCapteur = 0;
 3565               		.stabn	68,0,1405,.LM558-.LFBB42
 3566               	.LM558:
 3567 0f8e 1092 0000 		sts tempsActifSansCapteur+1,__zero_reg__
 3568 0f92 1092 0000 		sts tempsActifSansCapteur,__zero_reg__
1406:robot_chat.cpp **** 			modeLigneDroite = true;
 3569               		.stabn	68,0,1406,.LM559-.LFBB42
 3570               	.LM559:
 3571 0f96 81E0      		ldi r24,lo8(1)
 3572 0f98 8093 0000 		sts modeLigneDroite,r24
 3573 0f9c 0895      		ret
 3574               	.L412:
1407:robot_chat.cpp **** 		}
1408:robot_chat.cpp **** 	}
1409:robot_chat.cpp **** 	else if(modeDetection)
 3575               		.stabn	68,0,1409,.LM560-.LFBB42
 3576               	.LM560:
 3577 0f9e 8091 0000 		lds r24,modeDetection
 3578 0fa2 8823      		tst r24
 3579 0fa4 01F0      		breq .L393
1410:robot_chat.cpp **** 	{
1411:robot_chat.cpp **** 		//---------------------------
1412:robot_chat.cpp **** 		//Mode de détection de la souris
1413:robot_chat.cpp **** 		//---------------------------
1414:robot_chat.cpp **** 		if(gestionDetection())
 3580               		.stabn	68,0,1414,.LM561-.LFBB42
 3581               	.LM561:
 3582 0fa6 0E94 0000 		call _Z16gestionDetectionv
 3583 0faa 8823      		tst r24
 3584 0fac 01F0      		breq .L393
1415:robot_chat.cpp **** 		{
1416:robot_chat.cpp **** 			modeDetection = false;
 3585               		.stabn	68,0,1416,.LM562-.LFBB42
 3586               	.LM562:
 3587 0fae 1092 0000 		sts modeDetection,__zero_reg__
1417:robot_chat.cpp **** 			modeRecherche = true;
 3588               		.stabn	68,0,1417,.LM563-.LFBB42
GAS LISTING /tmp/ccfQOnsU.s 			page 94


 3589               	.LM563:
 3590 0fb2 81E0      		ldi r24,lo8(1)
 3591 0fb4 8093 0000 		sts modeRecherche,r24
1418:robot_chat.cpp **** 			modeFoncer = false;
 3592               		.stabn	68,0,1418,.LM564-.LFBB42
 3593               	.LM564:
 3594 0fb8 1092 0000 		sts modeFoncer,__zero_reg__
 3595               	.L393:
 3596 0fbc 0895      		ret
 3597               		.size	_Z22gestionDeplacementChatv, .-_Z22gestionDeplacementChatv
 3598               	.Lscope42:
 3599               		.stabs	"",36,0,0,.Lscope42-.LFBB42
 3600               		.stabd	78,0,0
 3601               		.stabs	"_Z16BoutonEstEnfoncev:F(0,29)",36,0,1423,_Z16BoutonEstEnfoncev
 3602               	.global	_Z16BoutonEstEnfoncev
 3603               		.type	_Z16BoutonEstEnfoncev, @function
 3604               	_Z16BoutonEstEnfoncev:
 3605               		.stabd	46,0,0
1419:robot_chat.cpp **** 		}
1420:robot_chat.cpp **** 	}
1421:robot_chat.cpp **** }
1422:robot_chat.cpp **** 
1423:robot_chat.cpp **** uint8_t BoutonEstEnfonce()
1424:robot_chat.cpp **** {
 3606               		.stabn	68,0,1424,.LM565-.LFBB43
 3607               	.LM565:
 3608               	.LFBB43:
 3609               	/* prologue: function */
 3610               	/* frame size = 0 */
 3611               	/* stack size = 0 */
 3612               	.L__stack_usage = 0
1425:robot_chat.cpp **** 	if(BOUTON_ENFONCE)
 3613               		.stabn	68,0,1425,.LM566-.LFBB43
 3614               	.LM566:
 3615 0fbe 4A9B      		sbis 0x9,2
 3616 0fc0 00C0      		rjmp .L443
 3617               	.LBB74:
 3618               	.LBB75:
1426:robot_chat.cpp **** 	{
1427:robot_chat.cpp **** 	  // l'operateur !! permet de transformer une valeur quelconque en 0 ou 1.
1428:robot_chat.cpp **** 	  // ie: BOUTON_ENFONCE renvoit 2, !!2 = 1.
1429:robot_chat.cpp **** 	  
1430:robot_chat.cpp **** 	  return !!BOUTON_ENFONCE;
 3619               		.stabn	68,0,1430,.LM567-.LFBB43
 3620               	.LM567:
 3621 0fc2 89B1      		in r24,0x9
 3622 0fc4 82FB      		bst r24,2
 3623 0fc6 8827      		clr r24
 3624 0fc8 80F9      		bld r24,0
 3625 0fca 0895      		ret
 3626               	.L443:
 3627               	.LBE75:
 3628               	.LBE74:
1431:robot_chat.cpp **** 	}
1432:robot_chat.cpp **** 	// Le bouton n'est pas enfoncé
1433:robot_chat.cpp **** 	return 0;
 3629               		.stabn	68,0,1433,.LM568-.LFBB43
GAS LISTING /tmp/ccfQOnsU.s 			page 95


 3630               	.LM568:
 3631 0fcc 80E0      		ldi r24,0
1434:robot_chat.cpp **** }
 3632               		.stabn	68,0,1434,.LM569-.LFBB43
 3633               	.LM569:
 3634 0fce 0895      		ret
 3635               		.size	_Z16BoutonEstEnfoncev, .-_Z16BoutonEstEnfoncev
 3636               	.Lscope43:
 3637               		.stabs	"",36,0,0,.Lscope43-.LFBB43
 3638               		.stabd	78,0,0
 3639               		.stabs	"_Z8modeTestv:F(0,4)",36,0,1436,_Z8modeTestv
 3640               	.global	_Z8modeTestv
 3641               		.type	_Z8modeTestv, @function
 3642               	_Z8modeTestv:
 3643               		.stabd	46,0,0
1435:robot_chat.cpp **** 	
1436:robot_chat.cpp **** void modeTest()
1437:robot_chat.cpp **** {
 3644               		.stabn	68,0,1437,.LM570-.LFBB44
 3645               	.LM570:
 3646               	.LFBB44:
 3647 0fd0 0F93      		push r16
 3648 0fd2 1F93      		push r17
 3649 0fd4 CF93      		push r28
 3650 0fd6 DF93      		push r29
 3651 0fd8 1F92      		push __zero_reg__
 3652 0fda CDB7      		in r28,__SP_L__
 3653 0fdc DEB7      		in r29,__SP_H__
 3654               	/* prologue: function */
 3655               	/* frame size = 1 */
 3656               	/* stack size = 5 */
 3657               	.L__stack_usage = 5
 3658               	.LBB76:
1438:robot_chat.cpp ****     uint16_t valeur;
1439:robot_chat.cpp ****       // Declaration d'un objet can.
1440:robot_chat.cpp ****      can convertisseur=can();
 3659               		.stabn	68,0,1440,.LM571-.LFBB44
 3660               	.LM571:
 3661 0fde 8E01      		movw r16,r28
 3662 0fe0 0F5F      		subi r16,-1
 3663 0fe2 1F4F      		sbci r17,-1
 3664 0fe4 C801      		movw r24,r16
 3665 0fe6 0E94 0000 		call _ZN3canC1Ev
1441:robot_chat.cpp ****     
1442:robot_chat.cpp ****       
1443:robot_chat.cpp ****       // La valeur minimale ne peut pas etre egale a 0.
1444:robot_chat.cpp ****       // La valeur 7 a ete designee comme la plus petite valeur retournee lorsque le capteur ne det
1445:robot_chat.cpp ****      while (BoutonEstEnfonce())
 3666               		.stabn	68,0,1445,.LM572-.LFBB44
 3667               	.LM572:
 3668 0fea 00C0      		rjmp .L450
 3669               	.L447:
1446:robot_chat.cpp ****      {
1447:robot_chat.cpp ****        // Variable locale qui recoit la valeur numerique apres la conversion de la valeur analogiqu
1448:robot_chat.cpp ****        valeur=convertisseur.lecture(VALEURANALOGIQUE);
 3670               		.stabn	68,0,1448,.LM573-.LFBB44
 3671               	.LM573:
GAS LISTING /tmp/ccfQOnsU.s 			page 96


 3672 0fec 60B1      		in r22,0
 3673 0fee 6270      		andi r22,lo8(2)
 3674 0ff0 C801      		movw r24,r16
 3675 0ff2 0E94 0000 		call _ZN3can7lectureEh
 3676               	.LBB77:
 3677               	.LBB78:
 3678               		.stabs	"/usr/lib/gcc/avr/4.7.3/../../../../avr/include/util/delay.h",132,0,0,.Ltext5
 3679               	.Ltext5:
 3680               		.stabn	68,0,164,.LM574-.LFBB44
 3681               	.LM574:
 3682 0ff6 EFE1      		ldi r30,lo8(19999)
 3683 0ff8 FEE4      		ldi r31,hi8(19999)
 3684 0ffa 3197      		1: sbiw r30,1
 3685 0ffc 01F4      		brne 1b
 3686 0ffe 00C0      		rjmp .
 3687 1000 0000      		nop
 3688               	.LBE78:
 3689               	.LBE77:
 3690               		.stabs	"robot_chat.cpp",132,0,0,.Ltext6
 3691               	.Ltext6:
1449:robot_chat.cpp ****       _delay_ms(10); 
1450:robot_chat.cpp ****       // Decalage de 2 bits vers la droite pour ne garder que 8 bits.
1451:robot_chat.cpp ****       valeur=valeur>>2;
1452:robot_chat.cpp ****        
1453:robot_chat.cpp **** 	jouerSonDistance(valeur);
 3692               		.stabn	68,0,1453,.LM575-.LFBB44
 3693               	.LM575:
 3694 1002 9695      		lsr r25
 3695 1004 8795      		ror r24
 3696 1006 9695      		lsr r25
 3697 1008 8795      		ror r24
 3698 100a 0E94 0000 		call _Z16jouerSonDistancej
1454:robot_chat.cpp **** 
1455:robot_chat.cpp **** 	  if(!BoutonEstEnfonce())
 3699               		.stabn	68,0,1455,.LM576-.LFBB44
 3700               	.LM576:
 3701 100e 0E94 0000 		call _Z16BoutonEstEnfoncev
 3702 1012 8111      		cpse r24,__zero_reg__
 3703 1014 00C0      		rjmp .L450
 3704               	.LBB79:
 3705               	.LBB80:
 3706               		.stabs	"/usr/lib/gcc/avr/4.7.3/../../../../avr/include/util/delay.h",132,0,0,.Ltext7
 3707               	.Ltext7:
 3708               		.stabn	68,0,164,.LM577-.LFBB44
 3709               	.LM577:
 3710 1016 8FE2      		ldi r24,lo8(29999)
 3711 1018 95E7      		ldi r25,hi8(29999)
 3712 101a 0197      		1: sbiw r24,1
 3713 101c 01F4      		brne 1b
 3714 101e 00C0      		rjmp .
 3715 1020 0000      		nop
 3716               	.LBE80:
 3717               	.LBE79:
 3718               		.stabs	"robot_chat.cpp",132,0,0,.Ltext8
 3719               	.Ltext8:
1456:robot_chat.cpp **** 	  {
1457:robot_chat.cpp **** 	    _delay_ms(15);
GAS LISTING /tmp/ccfQOnsU.s 			page 97


1458:robot_chat.cpp **** 	     r.arreterSon();
 3720               		.stabn	68,0,1458,.LM578-.LFBB44
 3721               	.LM578:
 3722 1022 0E94 0000 		call _ZN8LibRobot10arreterSonEv
 3723               	.L450:
1445:robot_chat.cpp ****      while (BoutonEstEnfonce())
 3724               		.stabn	68,0,1445,.LM579-.LFBB44
 3725               	.LM579:
 3726 1026 0E94 0000 		call _Z16BoutonEstEnfoncev
 3727 102a 8111      		cpse r24,__zero_reg__
 3728 102c 00C0      		rjmp .L447
1459:robot_chat.cpp **** 	  }
1460:robot_chat.cpp **** 	    
1461:robot_chat.cpp ****      }
 3729               		.stabn	68,0,1461,.LM580-.LFBB44
 3730               	.LM580:
 3731 102e C801      		movw r24,r16
 3732 1030 0E94 0000 		call _ZN3canD1Ev
 3733               	/* epilogue start */
 3734               	.LBE76:
1462:robot_chat.cpp ****      
1463:robot_chat.cpp **** 
1464:robot_chat.cpp **** }
 3735               		.stabn	68,0,1464,.LM581-.LFBB44
 3736               	.LM581:
 3737 1034 0F90      		pop __tmp_reg__
 3738 1036 DF91      		pop r29
 3739 1038 CF91      		pop r28
 3740 103a 1F91      		pop r17
 3741 103c 0F91      		pop r16
 3742 103e 0895      		ret
 3743               		.size	_Z8modeTestv, .-_Z8modeTestv
 3744               		.stabs	"convertisseur:(0,77)",128,0,1440,1
 3745               		.stabn	192,0,0,.LBB76-.LFBB44
 3746               		.stabn	224,0,0,.LBE76-.LFBB44
 3747               	.Lscope44:
 3748               		.stabs	"",36,0,0,.Lscope44-.LFBB44
 3749               		.stabd	78,0,0
 3750               		.stabs	"_Z23tomberEnEtatTransitoirev:F(0,4)",36,0,1466,_Z23tomberEnEtatTransitoirev
 3751               	.global	_Z23tomberEnEtatTransitoirev
 3752               		.type	_Z23tomberEnEtatTransitoirev, @function
 3753               	_Z23tomberEnEtatTransitoirev:
 3754               		.stabd	46,0,0
1465:robot_chat.cpp **** 
1466:robot_chat.cpp **** void tomberEnEtatTransitoire()
1467:robot_chat.cpp **** {
 3755               		.stabn	68,0,1467,.LM582-.LFBB45
 3756               	.LM582:
 3757               	.LFBB45:
 3758 1040 CF93      		push r28
 3759 1042 DF93      		push r29
 3760               	/* prologue: function */
 3761               	/* frame size = 0 */
 3762               	/* stack size = 2 */
 3763               	.L__stack_usage = 2
 3764               	.LBB81:
1468:robot_chat.cpp **** 	r.eteindreDEL(portDEL, pinCouleur, pinCouleur2);
GAS LISTING /tmp/ccfQOnsU.s 			page 98


 3765               		.stabn	68,0,1468,.LM583-.LFBB45
 3766               	.LM583:
 3767 1044 4091 0000 		lds r20,pinCouleur2
 3768 1048 6091 0000 		lds r22,pinCouleur
 3769 104c 85E2      		ldi r24,lo8(37)
 3770 104e 90E0      		ldi r25,0
 3771 1050 0E94 0000 		call _ZN8LibRobot11eteindreDELERVhhh
 3772 1054 D3E0      		ldi r29,lo8(3)
 3773 1056 00C0      		rjmp .L452
 3774               	.L453:
 3775               	.LBB82:
 3776               	.LBB83:
1469:robot_chat.cpp **** 
1470:robot_chat.cpp **** 	for(uint8_t i = 0; i<3; i++) //La DEL clignote pendant 3 secondes
1471:robot_chat.cpp **** 	{
1472:robot_chat.cpp **** 		for(uint8_t j = 0; j<4; j++) //La DEL clignote 4 fois par seconde
1473:robot_chat.cpp **** 		{
1474:robot_chat.cpp **** 			r.allumerDEL(portDEL,pinCouleur);
 3777               		.stabn	68,0,1474,.LM584-.LFBB45
 3778               	.LM584:
 3779 1058 6091 0000 		lds r22,pinCouleur
 3780 105c 85E2      		ldi r24,lo8(37)
 3781 105e 90E0      		ldi r25,0
 3782 1060 0E94 0000 		call _ZN8LibRobot10allumerDELERVhh
 3783               	.LBB84:
 3784               	.LBB85:
 3785               		.stabs	"/usr/lib/gcc/avr/4.7.3/../../../../avr/include/util/delay.h",132,0,0,.Ltext9
 3786               	.Ltext9:
 3787               		.stabn	68,0,164,.LM585-.LFBB45
 3788               	.LM585:
 3789 1064 2FE3      		ldi r18,lo8(199999)
 3790 1066 8DE0      		ldi r24,hi8(199999)
 3791 1068 93E0      		ldi r25,hlo8(199999)
 3792 106a 2150      		1: subi r18,1
 3793 106c 8040      		sbci r24,0
 3794 106e 9040      		sbci r25,0
 3795 1070 01F4      		brne 1b
 3796 1072 00C0      		rjmp .
 3797 1074 0000      		nop
 3798               	.LBE85:
 3799               	.LBE84:
 3800               		.stabs	"robot_chat.cpp",132,0,0,.Ltext10
 3801               	.Ltext10:
1475:robot_chat.cpp **** 			_delay_ms(125);
1476:robot_chat.cpp **** 
1477:robot_chat.cpp **** 			r.eteindreDEL(portDEL, pinCouleur, pinCouleur2);
 3802               		.stabn	68,0,1477,.LM586-.LFBB45
 3803               	.LM586:
 3804 1076 4091 0000 		lds r20,pinCouleur2
 3805 107a 6091 0000 		lds r22,pinCouleur
 3806 107e 85E2      		ldi r24,lo8(37)
 3807 1080 90E0      		ldi r25,0
 3808 1082 0E94 0000 		call _ZN8LibRobot11eteindreDELERVhhh
 3809               	.LBB86:
 3810               	.LBB87:
 3811               		.stabs	"/usr/lib/gcc/avr/4.7.3/../../../../avr/include/util/delay.h",132,0,0,.Ltext11
 3812               	.Ltext11:
GAS LISTING /tmp/ccfQOnsU.s 			page 99


 3813               		.stabn	68,0,164,.LM587-.LFBB45
 3814               	.LM587:
 3815 1086 2FE3      		ldi r18,lo8(199999)
 3816 1088 8DE0      		ldi r24,hi8(199999)
 3817 108a 93E0      		ldi r25,hlo8(199999)
 3818 108c 2150      		1: subi r18,1
 3819 108e 8040      		sbci r24,0
 3820 1090 9040      		sbci r25,0
 3821 1092 01F4      		brne 1b
 3822 1094 00C0      		rjmp .
 3823 1096 0000      		nop
 3824 1098 C150      		subi r28,lo8(-(-1))
 3825               	.LBE87:
 3826               	.LBE86:
 3827               		.stabs	"robot_chat.cpp",132,0,0,.Ltext12
 3828               	.Ltext12:
1472:robot_chat.cpp **** 		for(uint8_t j = 0; j<4; j++) //La DEL clignote 4 fois par seconde
 3829               		.stabn	68,0,1472,.LM588-.LFBB45
 3830               	.LM588:
 3831 109a 01F4      		brne .L453
 3832 109c D150      		subi r29,lo8(-(-1))
 3833               	.LBE83:
1470:robot_chat.cpp **** 	for(uint8_t i = 0; i<3; i++) //La DEL clignote pendant 3 secondes
 3834               		.stabn	68,0,1470,.LM589-.LFBB45
 3835               	.LM589:
 3836 109e 01F0      		breq .L454
 3837               	.L452:
 3838               	.LBE82:
 3839               	.LBE81:
1467:robot_chat.cpp **** {
 3840               		.stabn	68,0,1467,.LM590-.LFBB45
 3841               	.LM590:
 3842 10a0 C4E0      		ldi r28,lo8(4)
 3843 10a2 00C0      		rjmp .L453
 3844               	.L454:
 3845               	.LBB88:
1478:robot_chat.cpp **** 			_delay_ms(125);
1479:robot_chat.cpp **** 		}
1480:robot_chat.cpp **** 	}
1481:robot_chat.cpp **** 
1482:robot_chat.cpp **** 	r.eteindreDEL(portDEL, pinCouleur, pinCouleur2);
 3846               		.stabn	68,0,1482,.LM591-.LFBB45
 3847               	.LM591:
 3848 10a4 4091 0000 		lds r20,pinCouleur2
 3849 10a8 6091 0000 		lds r22,pinCouleur
 3850 10ac 85E2      		ldi r24,lo8(37)
 3851 10ae 90E0      		ldi r25,0
 3852               	/* epilogue start */
 3853               	.LBE88:
1483:robot_chat.cpp **** }
 3854               		.stabn	68,0,1483,.LM592-.LFBB45
 3855               	.LM592:
 3856 10b0 DF91      		pop r29
 3857 10b2 CF91      		pop r28
 3858               	.LBB89:
1482:robot_chat.cpp **** 	r.eteindreDEL(portDEL, pinCouleur, pinCouleur2);
 3859               		.stabn	68,0,1482,.LM593-.LFBB45
GAS LISTING /tmp/ccfQOnsU.s 			page 100


 3860               	.LM593:
 3861 10b4 0C94 0000 		jmp _ZN8LibRobot11eteindreDELERVhhh
 3862               	.LBE89:
 3863               		.size	_Z23tomberEnEtatTransitoirev, .-_Z23tomberEnEtatTransitoirev
 3864               	.Lscope45:
 3865               		.stabs	"",36,0,0,.Lscope45-.LFBB45
 3866               		.stabd	78,0,0
 3867               		.section	.text.startup,"ax",@progbits
 3868               		.stabs	"main:F(0,9)",36,0,1485,main
 3869               	.global	main
 3870               		.type	main, @function
 3871               	main:
 3872               		.stabd	46,0,0
1484:robot_chat.cpp **** 
1485:robot_chat.cpp **** int main ()
1486:robot_chat.cpp **** {
 3873               		.stabn	68,0,1486,.LM594-.LFBB46
 3874               	.LM594:
 3875               	.LFBB46:
 3876               	/* prologue: function */
 3877               	/* frame size = 0 */
 3878               	/* stack size = 0 */
 3879               	.L__stack_usage = 0
1487:robot_chat.cpp **** 
1488:robot_chat.cpp **** 	r.initialisation();
 3880               		.stabn	68,0,1488,.LM595-.LFBB46
 3881               	.LM595:
 3882 0000 0E94 0000 		call _ZN8LibRobot14initialisationEv
1489:robot_chat.cpp **** 	r.debut();
 3883               		.stabn	68,0,1489,.LM596-.LFBB46
 3884               	.LM596:
 3885 0004 0E94 0000 		call _ZN8LibRobot5debutEv
1490:robot_chat.cpp **** 	
1491:robot_chat.cpp **** 	//------------------------
1492:robot_chat.cpp **** 	//Initialisation des ports
1493:robot_chat.cpp **** 	//------------------------
1494:robot_chat.cpp **** 
1495:robot_chat.cpp **** 	DDRA = 0x00; // Capteur de distance sur A0
 3886               		.stabn	68,0,1495,.LM597-.LFBB46
 3887               	.LM597:
 3888 0008 11B8      		out 0x1,__zero_reg__
1496:robot_chat.cpp **** 
1497:robot_chat.cpp **** 	DDRB = 0xff; // sortie, del et son
 3889               		.stabn	68,0,1497,.LM598-.LFBB46
 3890               	.LM598:
 3891 000a 8FEF      		ldi r24,lo8(-1)
 3892 000c 84B9      		out 0x4,r24
1498:robot_chat.cpp **** 	
1499:robot_chat.cpp **** 	DDRC = 0x00; // Entree, capteur ligne	
 3893               		.stabn	68,0,1499,.LM599-.LFBB46
 3894               	.LM599:
 3895 000e 17B8      		out 0x7,__zero_reg__
1500:robot_chat.cpp **** 
1501:robot_chat.cpp **** 	DDRD = 0x00; // Entree bouton suivit de Sortie moteurs
 3896               		.stabn	68,0,1501,.LM600-.LFBB46
 3897               	.LM600:
 3898 0010 1AB8      		out 0xa,__zero_reg__
GAS LISTING /tmp/ccfQOnsU.s 			page 101


1502:robot_chat.cpp **** 
1503:robot_chat.cpp **** 	//------------------------
1504:robot_chat.cpp **** 	//Initialisation variables globales
1505:robot_chat.cpp **** 	//------------------------
1506:robot_chat.cpp **** 
1507:robot_chat.cpp **** 	//var virage
1508:robot_chat.cpp **** 		vitesseVirage = 110; //120, 100, 95
 3899               		.stabn	68,0,1508,.LM601-.LFBB46
 3900               	.LM601:
 3901 0012 8EE6      		ldi r24,lo8(110)
 3902 0014 8093 0000 		sts vitesseVirage,r24
1509:robot_chat.cpp **** 		detecteurEnabled = false;
 3903               		.stabn	68,0,1509,.LM602-.LFBB46
 3904               	.LM602:
 3905 0018 1092 0000 		sts detecteurEnabled,__zero_reg__
1510:robot_chat.cpp **** 
1511:robot_chat.cpp **** 		varianceVitesseVirage = 0;
 3906               		.stabn	68,0,1511,.LM603-.LFBB46
 3907               	.LM603:
 3908 001c 1092 0000 		sts varianceVitesseVirage,__zero_reg__
1512:robot_chat.cpp **** 		varianceVitesseVirageDeceleration = 2;
 3909               		.stabn	68,0,1512,.LM604-.LFBB46
 3910               	.LM604:
 3911 0020 22E0      		ldi r18,lo8(2)
 3912 0022 2093 0000 		sts varianceVitesseVirageDeceleration,r18
1513:robot_chat.cpp **** 		varianceVitesseVirageMax = 0;
 3913               		.stabn	68,0,1513,.LM605-.LFBB46
 3914               	.LM605:
 3915 0026 1092 0000 		sts varianceVitesseVirageMax,__zero_reg__
1514:robot_chat.cpp **** 		varianceVitesseVirageMin = -50;
 3916               		.stabn	68,0,1514,.LM606-.LFBB46
 3917               	.LM606:
 3918 002a 8EEC      		ldi r24,lo8(-50)
 3919 002c 8093 0000 		sts varianceVitesseVirageMin,r24
1515:robot_chat.cpp **** 
1516:robot_chat.cpp **** 		distance16 = 0;
 3920               		.stabn	68,0,1516,.LM607-.LFBB46
 3921               	.LM607:
 3922 0030 1092 0000 		sts distance16+1,__zero_reg__
 3923 0034 1092 0000 		sts distance16,__zero_reg__
1517:robot_chat.cpp **** 		distance8 = 0;
 3924               		.stabn	68,0,1517,.LM608-.LFBB46
 3925               	.LM608:
 3926 0038 1092 0000 		sts distance8,__zero_reg__
1518:robot_chat.cpp **** 
1519:robot_chat.cpp **** 	//Var intersection
1520:robot_chat.cpp **** 		modeLigneDroite = true;
 3927               		.stabn	68,0,1520,.LM609-.LFBB46
 3928               	.LM609:
 3929 003c 31E0      		ldi r19,lo8(1)
 3930 003e 3093 0000 		sts modeLigneDroite,r19
1521:robot_chat.cpp **** 		modeIntersection = false;
 3931               		.stabn	68,0,1521,.LM610-.LFBB46
 3932               	.LM610:
 3933 0042 1092 0000 		sts modeIntersection,__zero_reg__
1522:robot_chat.cpp **** 		modeVirageGauche = false;
 3934               		.stabn	68,0,1522,.LM611-.LFBB46
GAS LISTING /tmp/ccfQOnsU.s 			page 102


 3935               	.LM611:
 3936 0046 1092 0000 		sts modeVirageGauche,__zero_reg__
1523:robot_chat.cpp **** 		modeVirageDroite = false;
 3937               		.stabn	68,0,1523,.LM612-.LFBB46
 3938               	.LM612:
 3939 004a 1092 0000 		sts modeVirageDroite,__zero_reg__
1524:robot_chat.cpp **** 		modeReculer = false;
 3940               		.stabn	68,0,1524,.LM613-.LFBB46
 3941               	.LM613:
 3942 004e 1092 0000 		sts modeReculer,__zero_reg__
1525:robot_chat.cpp **** 
1526:robot_chat.cpp **** 		franchieGauche = false;
 3943               		.stabn	68,0,1526,.LM614-.LFBB46
 3944               	.LM614:
 3945 0052 1092 0000 		sts franchieGauche,__zero_reg__
1527:robot_chat.cpp **** 		franchieMilieu = false;
 3946               		.stabn	68,0,1527,.LM615-.LFBB46
 3947               	.LM615:
 3948 0056 1092 0000 		sts franchieMilieu,__zero_reg__
1528:robot_chat.cpp **** 		franchieDroite = false;
 3949               		.stabn	68,0,1528,.LM616-.LFBB46
 3950               	.LM616:
 3951 005a 1092 0000 		sts franchieDroite,__zero_reg__
1529:robot_chat.cpp **** 
1530:robot_chat.cpp **** 		tempsIntersection = 0;
 3952               		.stabn	68,0,1530,.LM617-.LFBB46
 3953               	.LM617:
 3954 005e 1092 0000 		sts tempsIntersection+1,__zero_reg__
 3955 0062 1092 0000 		sts tempsIntersection,__zero_reg__
1531:robot_chat.cpp **** 		tempsIntersectionMax = 350;
 3956               		.stabn	68,0,1531,.LM618-.LFBB46
 3957               	.LM618:
 3958 0066 8EE5      		ldi r24,lo8(94)
 3959 0068 91E0      		ldi r25,lo8(1)
 3960 006a 9093 0000 		sts tempsIntersectionMax+1,r25
 3961 006e 8093 0000 		sts tempsIntersectionMax,r24
1532:robot_chat.cpp **** 		seuilTempsActifToutDroit = 300;
 3962               		.stabn	68,0,1532,.LM619-.LFBB46
 3963               	.LM619:
 3964 0072 8CE2      		ldi r24,lo8(44)
 3965 0074 91E0      		ldi r25,lo8(1)
 3966 0076 9093 0000 		sts seuilTempsActifToutDroit+1,r25
 3967 007a 8093 0000 		sts seuilTempsActifToutDroit,r24
1533:robot_chat.cpp **** 
1534:robot_chat.cpp **** 		tempsDepuisIntersection = 0;
 3968               		.stabn	68,0,1534,.LM620-.LFBB46
 3969               	.LM620:
 3970 007e 1092 0000 		sts tempsDepuisIntersection+1,__zero_reg__
 3971 0082 1092 0000 		sts tempsDepuisIntersection,__zero_reg__
1535:robot_chat.cpp **** 		tempsAttenteMaxIntersection = 2500; //2250
 3972               		.stabn	68,0,1535,.LM621-.LFBB46
 3973               	.LM621:
 3974 0086 84EC      		ldi r24,lo8(-60)
 3975 0088 99E0      		ldi r25,lo8(9)
 3976 008a 9093 0000 		sts tempsAttenteMaxIntersection+1,r25
 3977 008e 8093 0000 		sts tempsAttenteMaxIntersection,r24
1536:robot_chat.cpp **** 
GAS LISTING /tmp/ccfQOnsU.s 			page 103


1537:robot_chat.cpp **** 		virageForce = false;
 3978               		.stabn	68,0,1537,.LM622-.LFBB46
 3979               	.LM622:
 3980 0092 1092 0000 		sts virageForce,__zero_reg__
1538:robot_chat.cpp **** 
1539:robot_chat.cpp **** 	//Var ligne droite
1540:robot_chat.cpp **** 		dernierCapteur = 2;
 3981               		.stabn	68,0,1540,.LM623-.LFBB46
 3982               	.LM623:
 3983 0096 2093 0000 		sts dernierCapteur,r18
1541:robot_chat.cpp **** 		vitesseBase = 120; //130
 3984               		.stabn	68,0,1541,.LM624-.LFBB46
 3985               	.LM624:
 3986 009a 48E7      		ldi r20,lo8(120)
 3987 009c 4093 0000 		sts vitesseBase,r20
1542:robot_chat.cpp **** 		ajustementGauche = 0;
 3988               		.stabn	68,0,1542,.LM625-.LFBB46
 3989               	.LM625:
 3990 00a0 1092 0000 		sts ajustementGauche,__zero_reg__
1543:robot_chat.cpp **** 		ajustementDroit = 0;
 3991               		.stabn	68,0,1543,.LM626-.LFBB46
 3992               	.LM626:
 3993 00a4 1092 0000 		sts ajustementDroit,__zero_reg__
1544:robot_chat.cpp **** 		ajustementVirageLeger = 20;
 3994               		.stabn	68,0,1544,.LM627-.LFBB46
 3995               	.LM627:
 3996 00a8 84E1      		ldi r24,lo8(20)
 3997 00aa 8093 0000 		sts ajustementVirageLeger,r24
1545:robot_chat.cpp **** 		ajustementVirageMoyen = 35;
 3998               		.stabn	68,0,1545,.LM628-.LFBB46
 3999               	.LM628:
 4000 00ae 83E2      		ldi r24,lo8(35)
 4001 00b0 8093 0000 		sts ajustementVirageMoyen,r24
1546:robot_chat.cpp **** 		ajustementMax = 14;
 4002               		.stabn	68,0,1546,.LM629-.LFBB46
 4003               	.LM629:
 4004 00b4 8EE0      		ldi r24,lo8(14)
 4005 00b6 8093 0000 		sts ajustementMax,r24
1547:robot_chat.cpp **** 		ajustementMin = ajustementMax * -1;
 4006               		.stabn	68,0,1547,.LM630-.LFBB46
 4007               	.LM630:
 4008 00ba 82EF      		ldi r24,lo8(-14)
 4009 00bc 8093 0000 		sts ajustementMin,r24
1548:robot_chat.cpp **** 		ajustementRetour = 1;
 4010               		.stabn	68,0,1548,.LM631-.LFBB46
 4011               	.LM631:
 4012 00c0 3093 0000 		sts ajustementRetour,r19
1549:robot_chat.cpp **** 		delaisLigneDroite = 0;
 4013               		.stabn	68,0,1549,.LM632-.LFBB46
 4014               	.LM632:
 4015 00c4 1092 0000 		sts delaisLigneDroite+1,__zero_reg__
 4016 00c8 1092 0000 		sts delaisLigneDroite,__zero_reg__
1550:robot_chat.cpp **** 		delaisMaxLigneDroite = 50;
 4017               		.stabn	68,0,1550,.LM633-.LFBB46
 4018               	.LM633:
 4019 00cc 82E3      		ldi r24,lo8(50)
 4020 00ce 90E0      		ldi r25,0
GAS LISTING /tmp/ccfQOnsU.s 			page 104


 4021 00d0 9093 0000 		sts delaisMaxLigneDroite+1,r25
 4022 00d4 8093 0000 		sts delaisMaxLigneDroite,r24
1551:robot_chat.cpp **** 
1552:robot_chat.cpp **** 	//Var ajustement
1553:robot_chat.cpp **** 		delaisAjustementTemporaire = 0;
 4023               		.stabn	68,0,1553,.LM634-.LFBB46
 4024               	.LM634:
 4025 00d8 1092 0000 		sts delaisAjustementTemporaire+1,__zero_reg__
 4026 00dc 1092 0000 		sts delaisAjustementTemporaire,__zero_reg__
1554:robot_chat.cpp **** 		ajustementTournant = 15;
 4027               		.stabn	68,0,1554,.LM635-.LFBB46
 4028               	.LM635:
 4029 00e0 8FE0      		ldi r24,lo8(15)
 4030 00e2 8093 0000 		sts ajustementTournant,r24
1555:robot_chat.cpp **** 		ajustementLigneDroite = 2;
 4031               		.stabn	68,0,1555,.LM636-.LFBB46
 4032               	.LM636:
 4033 00e6 2093 0000 		sts ajustementLigneDroite,r18
1556:robot_chat.cpp **** 		dureeAjustementTournant = 50;
 4034               		.stabn	68,0,1556,.LM637-.LFBB46
 4035               	.LM637:
 4036 00ea 82E3      		ldi r24,lo8(50)
 4037 00ec 8093 0000 		sts dureeAjustementTournant,r24
1557:robot_chat.cpp **** 		dureeAjustementLigneDroite = 10;
 4038               		.stabn	68,0,1557,.LM638-.LFBB46
 4039               	.LM638:
 4040 00f0 9AE0      		ldi r25,lo8(10)
 4041 00f2 9093 0000 		sts dureeAjustementLigneDroite,r25
1558:robot_chat.cpp **** 
1559:robot_chat.cpp **** 	//Var reculer
1560:robot_chat.cpp **** 		vitesseReculer = 140;//130, 170
 4042               		.stabn	68,0,1560,.LM639-.LFBB46
 4043               	.LM639:
 4044 00f6 9CE8      		ldi r25,lo8(-116)
 4045 00f8 9093 0000 		sts vitesseReculer,r25
1561:robot_chat.cpp **** 		tempsReculActif = 0;
 4046               		.stabn	68,0,1561,.LM640-.LFBB46
 4047               	.LM640:
 4048 00fc 1092 0000 		sts tempsReculActif,__zero_reg__
1562:robot_chat.cpp **** 		tempsReculActifMax = 100;
 4049               		.stabn	68,0,1562,.LM641-.LFBB46
 4050               	.LM641:
 4051 0100 94E6      		ldi r25,lo8(100)
 4052 0102 9093 0000 		sts tempsReculActifMax,r25
1563:robot_chat.cpp **** 		tempsReculExtra = 0;
 4053               		.stabn	68,0,1563,.LM642-.LFBB46
 4054               	.LM642:
 4055 0106 1092 0000 		sts tempsReculExtra,__zero_reg__
1564:robot_chat.cpp **** 		tempsReculExtraMax = 50;
 4056               		.stabn	68,0,1564,.LM643-.LFBB46
 4057               	.LM643:
 4058 010a 8093 0000 		sts tempsReculExtraMax,r24
1565:robot_chat.cpp **** 		
1566:robot_chat.cpp **** 	//Var tomber
1567:robot_chat.cpp **** 		tempsLigneDroiteActive = 0;
 4059               		.stabn	68,0,1567,.LM644-.LFBB46
 4060               	.LM644:
GAS LISTING /tmp/ccfQOnsU.s 			page 105


 4061 010e 1092 0000 		sts tempsLigneDroiteActive+1,__zero_reg__
 4062 0112 1092 0000 		sts tempsLigneDroiteActive,__zero_reg__
1568:robot_chat.cpp **** 		tempsLigneDroiteDepuisIntersection = 0;
 4063               		.stabn	68,0,1568,.LM645-.LFBB46
 4064               	.LM645:
 4065 0116 1092 0000 		sts tempsLigneDroiteDepuisIntersection+1,__zero_reg__
 4066 011a 1092 0000 		sts tempsLigneDroiteDepuisIntersection,__zero_reg__
1569:robot_chat.cpp **** 		tempsLigneDroiteActiveMax = 250; //On regarde le temps actif sur les dernieres 250 ms
 4067               		.stabn	68,0,1569,.LM646-.LFBB46
 4068               	.LM646:
 4069 011e 8AEF      		ldi r24,lo8(-6)
 4070 0120 90E0      		ldi r25,0
 4071 0122 9093 0000 		sts tempsLigneDroiteActiveMax+1,r25
 4072 0126 8093 0000 		sts tempsLigneDroiteActiveMax,r24
1570:robot_chat.cpp **** 		tempsLigneDroiteActiveSeuil = 120; //Seuil a atteindre pour continuer tout droit, sans quoi on re
 4073               		.stabn	68,0,1570,.LM647-.LFBB46
 4074               	.LM647:
 4075 012a 88E7      		ldi r24,lo8(120)
 4076 012c 90E0      		ldi r25,0
 4077 012e 9093 0000 		sts tempsLigneDroiteActiveSeuil+1,r25
 4078 0132 8093 0000 		sts tempsLigneDroiteActiveSeuil,r24
1571:robot_chat.cpp **** 
1572:robot_chat.cpp **** 		tempsActifSansCapteur = 0;
 4079               		.stabn	68,0,1572,.LM648-.LFBB46
 4080               	.LM648:
 4081 0136 1092 0000 		sts tempsActifSansCapteur+1,__zero_reg__
 4082 013a 1092 0000 		sts tempsActifSansCapteur,__zero_reg__
1573:robot_chat.cpp **** 		tempsActifSansCapteurMax = 100;
 4083               		.stabn	68,0,1573,.LM649-.LFBB46
 4084               	.LM649:
 4085 013e 84E6      		ldi r24,lo8(100)
 4086 0140 90E0      		ldi r25,0
 4087 0142 9093 0000 		sts tempsActifSansCapteurMax+1,r25
 4088 0146 8093 0000 		sts tempsActifSansCapteurMax,r24
1574:robot_chat.cpp **** 
1575:robot_chat.cpp **** 	//var prise de décision chat
1576:robot_chat.cpp **** 		directionCourrante = 1; //nord
 4089               		.stabn	68,0,1576,.LM650-.LFBB46
 4090               	.LM650:
 4091 014a 3093 0000 		sts directionCourrante,r19
1577:robot_chat.cpp **** 		positionRalativeX = 0;
 4092               		.stabn	68,0,1577,.LM651-.LFBB46
 4093               	.LM651:
 4094 014e 1092 0000 		sts positionRalativeX,__zero_reg__
1578:robot_chat.cpp **** 		positionRalativeY = 0;
 4095               		.stabn	68,0,1578,.LM652-.LFBB46
 4096               	.LM652:
 4097 0152 1092 0000 		sts positionRalativeY,__zero_reg__
1579:robot_chat.cpp **** 		distanceAParcourirX = 4;
 4098               		.stabn	68,0,1579,.LM653-.LFBB46
 4099               	.LM653:
 4100 0156 84E0      		ldi r24,lo8(4)
 4101 0158 8093 0000 		sts distanceAParcourirX,r24
1580:robot_chat.cpp **** 		distanceAParcourirY = 4;
 4102               		.stabn	68,0,1580,.LM654-.LFBB46
 4103               	.LM654:
 4104 015c 8093 0000 		sts distanceAParcourirY,r24
GAS LISTING /tmp/ccfQOnsU.s 			page 106


1581:robot_chat.cpp **** 
1582:robot_chat.cpp **** 		modeRecherche = true;
 4105               		.stabn	68,0,1582,.LM655-.LFBB46
 4106               	.LM655:
 4107 0160 3093 0000 		sts modeRecherche,r19
1583:robot_chat.cpp **** 		modeFoncer = false;
 4108               		.stabn	68,0,1583,.LM656-.LFBB46
 4109               	.LM656:
 4110 0164 1092 0000 		sts modeFoncer,__zero_reg__
1584:robot_chat.cpp **** 		modeVictoire = false;
 4111               		.stabn	68,0,1584,.LM657-.LFBB46
 4112               	.LM657:
 4113 0168 1092 0000 		sts modeVictoire,__zero_reg__
1585:robot_chat.cpp **** 		modeDetection = false;
 4114               		.stabn	68,0,1585,.LM658-.LFBB46
 4115               	.LM658:
 4116 016c 1092 0000 		sts modeDetection,__zero_reg__
1586:robot_chat.cpp **** 
1587:robot_chat.cpp **** 		vitesseFoncer = 160;
 4117               		.stabn	68,0,1587,.LM659-.LFBB46
 4118               	.LM659:
 4119 0170 80EA      		ldi r24,lo8(-96)
 4120 0172 8093 0000 		sts vitesseFoncer,r24
1588:robot_chat.cpp **** 		modeFoncerConsecutif = 0;
 4121               		.stabn	68,0,1588,.LM660-.LFBB46
 4122               	.LM660:
 4123 0176 1092 0000 		sts modeFoncerConsecutif,__zero_reg__
1589:robot_chat.cpp **** 		modeFoncerConsecutifMax = 0;
 4124               		.stabn	68,0,1589,.LM661-.LFBB46
 4125               	.LM661:
 4126 017a 1092 0000 		sts modeFoncerConsecutifMax,__zero_reg__
1590:robot_chat.cpp **** 
1591:robot_chat.cpp **** 		vitesseVirageDetection = 120;
 4127               		.stabn	68,0,1591,.LM662-.LFBB46
 4128               	.LM662:
 4129 017e 4093 0000 		sts vitesseVirageDetection,r20
1592:robot_chat.cpp **** 		varianceVitesseVirageDetection = 0; 			
 4130               		.stabn	68,0,1592,.LM663-.LFBB46
 4131               	.LM663:
 4132 0182 1092 0000 		sts varianceVitesseVirageDetection,__zero_reg__
1593:robot_chat.cpp **** 		varianceVitesseVirageDetectionDeceleration = 2;
 4133               		.stabn	68,0,1593,.LM664-.LFBB46
 4134               	.LM664:
 4135 0186 2093 0000 		sts varianceVitesseVirageDetectionDeceleration,r18
1594:robot_chat.cpp **** 		varianceVitesseVirageDetectionMax = 0;	
 4136               		.stabn	68,0,1594,.LM665-.LFBB46
 4137               	.LM665:
 4138 018a 1092 0000 		sts varianceVitesseVirageDetectionMax,__zero_reg__
1595:robot_chat.cpp **** 		varianceVitesseVirageDetectionMin = -60;
 4139               		.stabn	68,0,1595,.LM666-.LFBB46
 4140               	.LM666:
 4141 018e 84EC      		ldi r24,lo8(-60)
 4142 0190 8093 0000 		sts varianceVitesseVirageDetectionMin,r24
1596:robot_chat.cpp **** 		directionInitialeDetection = 1;
 4143               		.stabn	68,0,1596,.LM667-.LFBB46
 4144               	.LM667:
 4145 0194 3093 0000 		sts directionInitialeDetection,r19
GAS LISTING /tmp/ccfQOnsU.s 			page 107


1597:robot_chat.cpp **** 
1598:robot_chat.cpp **** 		delaiMemeOrientation = 0;
 4146               		.stabn	68,0,1598,.LM668-.LFBB46
 4147               	.LM668:
 4148 0198 1092 0000 		sts delaiMemeOrientation+1,__zero_reg__
 4149 019c 1092 0000 		sts delaiMemeOrientation,__zero_reg__
1599:robot_chat.cpp **** 		delaiMemeOrientationMax = 80;
 4150               		.stabn	68,0,1599,.LM669-.LFBB46
 4151               	.LM669:
 4152 01a0 80E5      		ldi r24,lo8(80)
 4153 01a2 90E0      		ldi r25,0
 4154 01a4 9093 0000 		sts delaiMemeOrientationMax+1,r25
 4155 01a8 8093 0000 		sts delaiMemeOrientationMax,r24
1600:robot_chat.cpp **** 
1601:robot_chat.cpp **** 		nbIntersection = 2;
 4156               		.stabn	68,0,1601,.LM670-.LFBB46
 4157               	.LM670:
 4158 01ac 2093 0000 		sts nbIntersection,r18
1602:robot_chat.cpp **** 		nbIntersectionMax = 2;
 4159               		.stabn	68,0,1602,.LM671-.LFBB46
 4160               	.LM671:
 4161 01b0 2093 0000 		sts nbIntersectionMax,r18
1603:robot_chat.cpp **** 
1604:robot_chat.cpp **** 	//------------------------
1605:robot_chat.cpp **** 	//Mode test et attente
1606:robot_chat.cpp **** 	//------------------------
1607:robot_chat.cpp **** 	if( BoutonEstEnfonce())
 4162               		.stabn	68,0,1607,.LM672-.LFBB46
 4163               	.LM672:
 4164 01b4 0E94 0000 		call _Z16BoutonEstEnfoncev
 4165 01b8 8111      		cpse r24,__zero_reg__
1608:robot_chat.cpp **** 		modeTest();
 4166               		.stabn	68,0,1608,.LM673-.LFBB46
 4167               	.LM673:
 4168 01ba 0E94 0000 		call _Z8modeTestv
 4169               	.L457:
1609:robot_chat.cpp **** 
1610:robot_chat.cpp **** 	DDRD = 0xff; //Sortie moteurs
 4170               		.stabn	68,0,1610,.LM674-.LFBB46
 4171               	.LM674:
 4172 01be 8FEF      		ldi r24,lo8(-1)
 4173 01c0 8AB9      		out 0xa,r24
1611:robot_chat.cpp **** 	tomberEnEtatTransitoire(); //Pendant 3 secondes
 4174               		.stabn	68,0,1611,.LM675-.LFBB46
 4175               	.LM675:
 4176 01c2 0E94 0000 		call _Z23tomberEnEtatTransitoirev
 4177               	.L469:
1612:robot_chat.cpp **** 
1613:robot_chat.cpp **** 	//------------------------
1614:robot_chat.cpp **** 	//Boucle de déplacement
1615:robot_chat.cpp **** 	//------------------------
1616:robot_chat.cpp **** 	while(true)
1617:robot_chat.cpp **** 	{	
1618:robot_chat.cpp **** 		calculerDistance();
 4178               		.stabn	68,0,1618,.LM676-.LFBB46
 4179               	.LM676:
 4180 01c6 0E94 0000 		call _Z16calculerDistancev
GAS LISTING /tmp/ccfQOnsU.s 			page 108


 4181               	.LBB90:
 4182               	.LBB91:
 4183               		.stabs	"/usr/lib/gcc/avr/4.7.3/../../../../avr/include/util/delay.h",132,0,0,.Ltext13
 4184               	.Ltext13:
 4185               		.stabn	68,0,164,.LM677-.LFBB46
 4186               	.LM677:
 4187 01ca 8FE1      		ldi r24,lo8(19999)
 4188 01cc 9EE4      		ldi r25,hi8(19999)
 4189 01ce 0197      		1: sbiw r24,1
 4190 01d0 01F4      		brne 1b
 4191 01d2 00C0      		rjmp .
 4192 01d4 0000      		nop
 4193               	.LBE91:
 4194               	.LBE90:
 4195               		.stabs	"robot_chat.cpp",132,0,0,.Ltext14
 4196               	.Ltext14:
1619:robot_chat.cpp **** 		_delay_ms(10);
1620:robot_chat.cpp **** 		ajusterDistance();
 4197               		.stabn	68,0,1620,.LM678-.LFBB46
 4198               	.LM678:
 4199 01d6 0E94 0000 		call _Z15ajusterDistancev
1621:robot_chat.cpp **** 		jouerSonDistance(distance8);
 4200               		.stabn	68,0,1621,.LM679-.LFBB46
 4201               	.LM679:
 4202 01da 8091 0000 		lds r24,distance8
 4203 01de 90E0      		ldi r25,0
 4204 01e0 0E94 0000 		call _Z16jouerSonDistancej
1622:robot_chat.cpp **** 		gestionDeplacementChat();
 4205               		.stabn	68,0,1622,.LM680-.LFBB46
 4206               	.LM680:
 4207 01e4 0E94 0000 		call _Z22gestionDeplacementChatv
1623:robot_chat.cpp **** 
1624:robot_chat.cpp **** 		if(!modeVictoire)
 4208               		.stabn	68,0,1624,.LM681-.LFBB46
 4209               	.LM681:
 4210 01e8 8091 0000 		lds r24,modeVictoire
 4211 01ec 8111      		cpse r24,__zero_reg__
 4212 01ee 00C0      		rjmp .L469
1625:robot_chat.cpp **** 		{
1626:robot_chat.cpp **** 			r.eteindreDEL(portDEL, pinCouleur, pinCouleur2);
 4213               		.stabn	68,0,1626,.LM682-.LFBB46
 4214               	.LM682:
 4215 01f0 4091 0000 		lds r20,pinCouleur2
 4216 01f4 6091 0000 		lds r22,pinCouleur
 4217 01f8 85E2      		ldi r24,lo8(37)
 4218 01fa 90E0      		ldi r25,0
 4219 01fc 0E94 0000 		call _ZN8LibRobot11eteindreDELERVhhh
1627:robot_chat.cpp **** 			if(modeFoncer)
 4220               		.stabn	68,0,1627,.LM683-.LFBB46
 4221               	.LM683:
 4222 0200 8091 0000 		lds r24,modeFoncer
 4223 0204 8823      		tst r24
 4224 0206 01F0      		breq .L469
1628:robot_chat.cpp **** 				r.allumerDEL(portDEL, pinCouleur);
 4225               		.stabn	68,0,1628,.LM684-.LFBB46
 4226               	.LM684:
 4227 0208 6091 0000 		lds r22,pinCouleur
GAS LISTING /tmp/ccfQOnsU.s 			page 109


 4228 020c 85E2      		ldi r24,lo8(37)
 4229 020e 90E0      		ldi r25,0
 4230 0210 0E94 0000 		call _ZN8LibRobot10allumerDELERVhh
 4231 0214 00C0      		rjmp .L469
 4232               		.size	main, .-main
 4233               	.Lscope46:
 4234               		.stabs	"",36,0,0,.Lscope46-.LFBB46
 4235               		.stabd	78,0,0
 4236               		.stabs	"_GLOBAL__sub_I_r:f(0,4)",36,0,1651,_GLOBAL__sub_I_r
 4237               		.type	_GLOBAL__sub_I_r, @function
 4238               	_GLOBAL__sub_I_r:
 4239               		.stabd	46,0,0
1629:robot_chat.cpp **** 
1630:robot_chat.cpp **** 			/*uint8_t dist = getDistanceSouris();
1631:robot_chat.cpp **** 			r.eteindreDEL(portDEL, pinCouleur, pinCouleur2);	
1632:robot_chat.cpp **** 			if(dist < 3 )
1633:robot_chat.cpp **** 				r.allumerDEL(portDEL, pinCouleur);*/
1634:robot_chat.cpp **** 
1635:robot_chat.cpp **** 		}
1636:robot_chat.cpp **** 		
1637:robot_chat.cpp **** 
1638:robot_chat.cpp **** 
1639:robot_chat.cpp **** 		/*r.eteindreDEL(portDEL, pinCouleur, pinCouleur2);
1640:robot_chat.cpp **** 		if(distance8 <= 50)
1641:robot_chat.cpp **** 			r.eteindreDEL(portDEL, pinCouleur, pinCouleur2);
1642:robot_chat.cpp **** 		else if(distance8 > 140)
1643:robot_chat.cpp **** 			r.allumerDEL(portDEL, pinCouleur);
1644:robot_chat.cpp **** 		else if(distance8 >80 && distance8<=140)
1645:robot_chat.cpp **** 			r.allumerDEL(portDEL, pinCouleur2);
1646:robot_chat.cpp **** 		else
1647:robot_chat.cpp **** 			r.allumerDEL(portDEL, pinCouleur);*/
1648:robot_chat.cpp **** 	}
1649:robot_chat.cpp **** 
1650:robot_chat.cpp **** 	return 0;
1651:robot_chat.cpp **** }
 4240               		.stabn	68,0,1651,.LM685-.LFBB47
 4241               	.LM685:
 4242               	.LFBB47:
 4243               	/* prologue: function */
 4244               	/* frame size = 0 */
 4245               	/* stack size = 0 */
 4246               	.L__stack_usage = 0
 4247               	.LBB96:
 4248               	.LBB97:
  38:robot_chat.cpp **** LibRobot r;
 4249               		.stabn	68,0,38,.LM686-.LFBB47
 4250               	.LM686:
 4251 0216 80E0      		ldi r24,lo8(r)
 4252 0218 90E0      		ldi r25,hi8(r)
 4253 021a 0C94 0000 		jmp _ZN8LibRobotC1Ev
 4254               	.LBE97:
 4255               	.LBE96:
 4256               		.size	_GLOBAL__sub_I_r, .-_GLOBAL__sub_I_r
 4257               	.Lscope47:
 4258               		.stabs	"",36,0,0,.Lscope47-.LFBB47
 4259               		.stabd	78,0,0
 4260               		.global __do_global_ctors
GAS LISTING /tmp/ccfQOnsU.s 			page 110


 4261               		.section .ctors,"a",@progbits
 4262               		.p2align	1
 4263 0000 0000      		.word	gs(_GLOBAL__sub_I_r)
 4264               		.section	.text.exit,"ax",@progbits
 4265               		.stabs	"_GLOBAL__sub_D_r:f(0,4)",36,0,1651,_GLOBAL__sub_D_r
 4266               		.type	_GLOBAL__sub_D_r, @function
 4267               	_GLOBAL__sub_D_r:
 4268               		.stabd	46,0,0
 4269               		.stabn	68,0,1651,.LM687-.LFBB48
 4270               	.LM687:
 4271               	.LFBB48:
 4272               	/* prologue: function */
 4273               	/* frame size = 0 */
 4274               	/* stack size = 0 */
 4275               	.L__stack_usage = 0
 4276               	.LBB102:
 4277               	.LBB103:
 4278               	.LBB104:
 4279               	.LBB105:
  38:robot_chat.cpp **** LibRobot r;
 4280               		.stabn	68,0,38,.LM688-.LFBB48
 4281               	.LM688:
 4282 0000 80E0      		ldi r24,lo8(r)
 4283 0002 90E0      		ldi r25,hi8(r)
 4284 0004 0C94 0000 		jmp _ZN8LibRobotD1Ev
 4285               	.LBE105:
 4286               	.LBE104:
 4287               	.LBE103:
 4288               	.LBE102:
 4289               		.size	_GLOBAL__sub_D_r, .-_GLOBAL__sub_D_r
 4290               	.Lscope48:
 4291               		.stabs	"",36,0,0,.Lscope48-.LFBB48
 4292               		.stabd	78,0,0
 4293               		.global __do_global_dtors
 4294               		.section .dtors,"a",@progbits
 4295               		.p2align	1
 4296 0000 0000      		.word	gs(_GLOBAL__sub_D_r)
 4297               	.global	debug
 4298               		.section .bss
 4299               		.type	debug, @object
 4300               		.size	debug, 1
 4301               	debug:
 4302 0000 00        		.zero	1
 4303               	.global	tempsActifSansCapteurMax
 4304               		.type	tempsActifSansCapteurMax, @object
 4305               		.size	tempsActifSansCapteurMax, 2
 4306               	tempsActifSansCapteurMax:
 4307 0001 0000      		.zero	2
 4308               	.global	tempsActifSansCapteur
 4309               		.type	tempsActifSansCapteur, @object
 4310               		.size	tempsActifSansCapteur, 2
 4311               	tempsActifSansCapteur:
 4312 0003 0000      		.zero	2
 4313               	.global	tempsLigneDroiteActiveSeuil
 4314               		.type	tempsLigneDroiteActiveSeuil, @object
 4315               		.size	tempsLigneDroiteActiveSeuil, 2
 4316               	tempsLigneDroiteActiveSeuil:
GAS LISTING /tmp/ccfQOnsU.s 			page 111


 4317 0005 0000      		.zero	2
 4318               	.global	tempsLigneDroiteActiveMax
 4319               		.type	tempsLigneDroiteActiveMax, @object
 4320               		.size	tempsLigneDroiteActiveMax, 2
 4321               	tempsLigneDroiteActiveMax:
 4322 0007 0000      		.zero	2
 4323               	.global	tempsLigneDroiteDepuisIntersection
 4324               		.type	tempsLigneDroiteDepuisIntersection, @object
 4325               		.size	tempsLigneDroiteDepuisIntersection, 2
 4326               	tempsLigneDroiteDepuisIntersection:
 4327 0009 0000      		.zero	2
 4328               	.global	tempsLigneDroiteActive
 4329               		.type	tempsLigneDroiteActive, @object
 4330               		.size	tempsLigneDroiteActive, 2
 4331               	tempsLigneDroiteActive:
 4332 000b 0000      		.zero	2
 4333               	.global	tempsReculExtraMax
 4334               		.type	tempsReculExtraMax, @object
 4335               		.size	tempsReculExtraMax, 1
 4336               	tempsReculExtraMax:
 4337 000d 00        		.zero	1
 4338               	.global	tempsReculExtra
 4339               		.type	tempsReculExtra, @object
 4340               		.size	tempsReculExtra, 1
 4341               	tempsReculExtra:
 4342 000e 00        		.zero	1
 4343               	.global	finRecul
 4344               		.type	finRecul, @object
 4345               		.size	finRecul, 1
 4346               	finRecul:
 4347 000f 00        		.zero	1
 4348               	.global	tempsReculActifMax
 4349               		.type	tempsReculActifMax, @object
 4350               		.size	tempsReculActifMax, 1
 4351               	tempsReculActifMax:
 4352 0010 00        		.zero	1
 4353               	.global	tempsReculActif
 4354               		.type	tempsReculActif, @object
 4355               		.size	tempsReculActif, 1
 4356               	tempsReculActif:
 4357 0011 00        		.zero	1
 4358               	.global	vitesseReculer
 4359               		.type	vitesseReculer, @object
 4360               		.size	vitesseReculer, 1
 4361               	vitesseReculer:
 4362 0012 00        		.zero	1
 4363               	.global	tempsAttenteMaxIntersection
 4364               		.type	tempsAttenteMaxIntersection, @object
 4365               		.size	tempsAttenteMaxIntersection, 2
 4366               	tempsAttenteMaxIntersection:
 4367 0013 0000      		.zero	2
 4368               	.global	tempsDepuisIntersection
 4369               		.type	tempsDepuisIntersection, @object
 4370               		.size	tempsDepuisIntersection, 2
 4371               	tempsDepuisIntersection:
 4372 0015 0000      		.zero	2
 4373               	.global	dureeAjustementLigneDroite
GAS LISTING /tmp/ccfQOnsU.s 			page 112


 4374               		.type	dureeAjustementLigneDroite, @object
 4375               		.size	dureeAjustementLigneDroite, 1
 4376               	dureeAjustementLigneDroite:
 4377 0017 00        		.zero	1
 4378               	.global	dureeAjustementTournant
 4379               		.type	dureeAjustementTournant, @object
 4380               		.size	dureeAjustementTournant, 1
 4381               	dureeAjustementTournant:
 4382 0018 00        		.zero	1
 4383               	.global	ajustementLigneDroite
 4384               		.type	ajustementLigneDroite, @object
 4385               		.size	ajustementLigneDroite, 1
 4386               	ajustementLigneDroite:
 4387 0019 00        		.zero	1
 4388               	.global	ajustementTournant
 4389               		.type	ajustementTournant, @object
 4390               		.size	ajustementTournant, 1
 4391               	ajustementTournant:
 4392 001a 00        		.zero	1
 4393               	.global	ajustementTemporaireD
 4394               		.type	ajustementTemporaireD, @object
 4395               		.size	ajustementTemporaireD, 1
 4396               	ajustementTemporaireD:
 4397 001b 00        		.zero	1
 4398               	.global	ajustementTemporaireG
 4399               		.type	ajustementTemporaireG, @object
 4400               		.size	ajustementTemporaireG, 1
 4401               	ajustementTemporaireG:
 4402 001c 00        		.zero	1
 4403               	.global	delaisAjustementTemporaire
 4404               		.type	delaisAjustementTemporaire, @object
 4405               		.size	delaisAjustementTemporaire, 2
 4406               	delaisAjustementTemporaire:
 4407 001d 0000      		.zero	2
 4408               	.global	delaisMaxLigneDroite
 4409               		.type	delaisMaxLigneDroite, @object
 4410               		.size	delaisMaxLigneDroite, 2
 4411               	delaisMaxLigneDroite:
 4412 001f 0000      		.zero	2
 4413               	.global	delaisLigneDroite
 4414               		.type	delaisLigneDroite, @object
 4415               		.size	delaisLigneDroite, 2
 4416               	delaisLigneDroite:
 4417 0021 0000      		.zero	2
 4418               	.global	ajustementVirageMoyen
 4419               		.type	ajustementVirageMoyen, @object
 4420               		.size	ajustementVirageMoyen, 1
 4421               	ajustementVirageMoyen:
 4422 0023 00        		.zero	1
 4423               	.global	ajustementVirageLeger
 4424               		.type	ajustementVirageLeger, @object
 4425               		.size	ajustementVirageLeger, 1
 4426               	ajustementVirageLeger:
 4427 0024 00        		.zero	1
 4428               	.global	ajustementRetour
 4429               		.type	ajustementRetour, @object
 4430               		.size	ajustementRetour, 1
GAS LISTING /tmp/ccfQOnsU.s 			page 113


 4431               	ajustementRetour:
 4432 0025 00        		.zero	1
 4433               	.global	ajustementMin
 4434               		.type	ajustementMin, @object
 4435               		.size	ajustementMin, 1
 4436               	ajustementMin:
 4437 0026 00        		.zero	1
 4438               	.global	ajustementMax
 4439               		.type	ajustementMax, @object
 4440               		.size	ajustementMax, 1
 4441               	ajustementMax:
 4442 0027 00        		.zero	1
 4443               	.global	ajustementDroit
 4444               		.type	ajustementDroit, @object
 4445               		.size	ajustementDroit, 1
 4446               	ajustementDroit:
 4447 0028 00        		.zero	1
 4448               	.global	ajustementGauche
 4449               		.type	ajustementGauche, @object
 4450               		.size	ajustementGauche, 1
 4451               	ajustementGauche:
 4452 0029 00        		.zero	1
 4453               	.global	vitesseBase
 4454               		.type	vitesseBase, @object
 4455               		.size	vitesseBase, 1
 4456               	vitesseBase:
 4457 002a 00        		.zero	1
 4458               	.global	dernierCapteur
 4459               		.type	dernierCapteur, @object
 4460               		.size	dernierCapteur, 1
 4461               	dernierCapteur:
 4462 002b 00        		.zero	1
 4463               	.global	dernierCapteurIntersection
 4464               		.type	dernierCapteurIntersection, @object
 4465               		.size	dernierCapteurIntersection, 1
 4466               	dernierCapteurIntersection:
 4467 002c 00        		.zero	1
 4468               	.global	seuilTempsActifToutDroit
 4469               		.type	seuilTempsActifToutDroit, @object
 4470               		.size	seuilTempsActifToutDroit, 2
 4471               	seuilTempsActifToutDroit:
 4472 002d 0000      		.zero	2
 4473               	.global	tempsActif
 4474               		.type	tempsActif, @object
 4475               		.size	tempsActif, 2
 4476               	tempsActif:
 4477 002f 0000      		.zero	2
 4478               	.global	tempsIntersectionMax
 4479               		.type	tempsIntersectionMax, @object
 4480               		.size	tempsIntersectionMax, 2
 4481               	tempsIntersectionMax:
 4482 0031 0000      		.zero	2
 4483               	.global	tempsIntersection
 4484               		.type	tempsIntersection, @object
 4485               		.size	tempsIntersection, 2
 4486               	tempsIntersection:
 4487 0033 0000      		.zero	2
GAS LISTING /tmp/ccfQOnsU.s 			page 114


 4488               	.global	milieuExiste
 4489               		.type	milieuExiste, @object
 4490               		.size	milieuExiste, 1
 4491               	milieuExiste:
 4492 0035 00        		.zero	1
 4493               	.global	droiteExiste
 4494               		.type	droiteExiste, @object
 4495               		.size	droiteExiste, 1
 4496               	droiteExiste:
 4497 0036 00        		.zero	1
 4498               	.global	gaucheExiste
 4499               		.type	gaucheExiste, @object
 4500               		.size	gaucheExiste, 1
 4501               	gaucheExiste:
 4502 0037 00        		.zero	1
 4503               	.global	franchieDroite
 4504               		.type	franchieDroite, @object
 4505               		.size	franchieDroite, 1
 4506               	franchieDroite:
 4507 0038 00        		.zero	1
 4508               	.global	franchieMilieu
 4509               		.type	franchieMilieu, @object
 4510               		.size	franchieMilieu, 1
 4511               	franchieMilieu:
 4512 0039 00        		.zero	1
 4513               	.global	franchieGauche
 4514               		.type	franchieGauche, @object
 4515               		.size	franchieGauche, 1
 4516               	franchieGauche:
 4517 003a 00        		.zero	1
 4518               	.global	varianceVitesseVirageMin
 4519               		.type	varianceVitesseVirageMin, @object
 4520               		.size	varianceVitesseVirageMin, 1
 4521               	varianceVitesseVirageMin:
 4522 003b 00        		.zero	1
 4523               	.global	varianceVitesseVirageMax
 4524               		.type	varianceVitesseVirageMax, @object
 4525               		.size	varianceVitesseVirageMax, 1
 4526               	varianceVitesseVirageMax:
 4527 003c 00        		.zero	1
 4528               	.global	varianceVitesseVirageDeceleration
 4529               		.type	varianceVitesseVirageDeceleration, @object
 4530               		.size	varianceVitesseVirageDeceleration, 1
 4531               	varianceVitesseVirageDeceleration:
 4532 003d 00        		.zero	1
 4533               	.global	varianceVitesseVirage
 4534               		.type	varianceVitesseVirage, @object
 4535               		.size	varianceVitesseVirage, 1
 4536               	varianceVitesseVirage:
 4537 003e 00        		.zero	1
 4538               	.global	detecteurEnabled
 4539               		.type	detecteurEnabled, @object
 4540               		.size	detecteurEnabled, 1
 4541               	detecteurEnabled:
 4542 003f 00        		.zero	1
 4543               	.global	virageForce
 4544               		.type	virageForce, @object
GAS LISTING /tmp/ccfQOnsU.s 			page 115


 4545               		.size	virageForce, 1
 4546               	virageForce:
 4547 0040 00        		.zero	1
 4548               	.global	vitesseVirage
 4549               		.type	vitesseVirage, @object
 4550               		.size	vitesseVirage, 1
 4551               	vitesseVirage:
 4552 0041 00        		.zero	1
 4553               	.global	nbIntersectionMax
 4554               		.type	nbIntersectionMax, @object
 4555               		.size	nbIntersectionMax, 1
 4556               	nbIntersectionMax:
 4557 0042 00        		.zero	1
 4558               	.global	nbIntersection
 4559               		.type	nbIntersection, @object
 4560               		.size	nbIntersection, 1
 4561               	nbIntersection:
 4562 0043 00        		.zero	1
 4563               	.global	delaiMemeOrientationMax
 4564               		.type	delaiMemeOrientationMax, @object
 4565               		.size	delaiMemeOrientationMax, 2
 4566               	delaiMemeOrientationMax:
 4567 0044 0000      		.zero	2
 4568               	.global	delaiMemeOrientation
 4569               		.type	delaiMemeOrientation, @object
 4570               		.size	delaiMemeOrientation, 2
 4571               	delaiMemeOrientation:
 4572 0046 0000      		.zero	2
 4573               	.global	directionInitialeDetection
 4574               		.type	directionInitialeDetection, @object
 4575               		.size	directionInitialeDetection, 1
 4576               	directionInitialeDetection:
 4577 0048 00        		.zero	1
 4578               	.global	varianceVitesseVirageDetectionMin
 4579               		.type	varianceVitesseVirageDetectionMin, @object
 4580               		.size	varianceVitesseVirageDetectionMin, 1
 4581               	varianceVitesseVirageDetectionMin:
 4582 0049 00        		.zero	1
 4583               	.global	varianceVitesseVirageDetectionMax
 4584               		.type	varianceVitesseVirageDetectionMax, @object
 4585               		.size	varianceVitesseVirageDetectionMax, 1
 4586               	varianceVitesseVirageDetectionMax:
 4587 004a 00        		.zero	1
 4588               	.global	varianceVitesseVirageDetectionDeceleration
 4589               		.type	varianceVitesseVirageDetectionDeceleration, @object
 4590               		.size	varianceVitesseVirageDetectionDeceleration, 1
 4591               	varianceVitesseVirageDetectionDeceleration:
 4592 004b 00        		.zero	1
 4593               	.global	varianceVitesseVirageDetection
 4594               		.type	varianceVitesseVirageDetection, @object
 4595               		.size	varianceVitesseVirageDetection, 1
 4596               	varianceVitesseVirageDetection:
 4597 004c 00        		.zero	1
 4598               	.global	vitesseVirageDetection
 4599               		.type	vitesseVirageDetection, @object
 4600               		.size	vitesseVirageDetection, 1
 4601               	vitesseVirageDetection:
GAS LISTING /tmp/ccfQOnsU.s 			page 116


 4602 004d 00        		.zero	1
 4603               	.global	modeFoncerConsecutifMax
 4604               		.type	modeFoncerConsecutifMax, @object
 4605               		.size	modeFoncerConsecutifMax, 1
 4606               	modeFoncerConsecutifMax:
 4607 004e 00        		.zero	1
 4608               	.global	modeFoncerConsecutif
 4609               		.type	modeFoncerConsecutif, @object
 4610               		.size	modeFoncerConsecutif, 1
 4611               	modeFoncerConsecutif:
 4612 004f 00        		.zero	1
 4613               	.global	vitesseFoncer
 4614               		.type	vitesseFoncer, @object
 4615               		.size	vitesseFoncer, 1
 4616               	vitesseFoncer:
 4617 0050 00        		.zero	1
 4618               	.global	modeDetection
 4619               		.type	modeDetection, @object
 4620               		.size	modeDetection, 1
 4621               	modeDetection:
 4622 0051 00        		.zero	1
 4623               	.global	modeVictoire
 4624               		.type	modeVictoire, @object
 4625               		.size	modeVictoire, 1
 4626               	modeVictoire:
 4627 0052 00        		.zero	1
 4628               	.global	modeFoncer
 4629               		.type	modeFoncer, @object
 4630               		.size	modeFoncer, 1
 4631               	modeFoncer:
 4632 0053 00        		.zero	1
 4633               	.global	modeRecherche
 4634               		.type	modeRecherche, @object
 4635               		.size	modeRecherche, 1
 4636               	modeRecherche:
 4637 0054 00        		.zero	1
 4638               	.global	distance8
 4639               		.type	distance8, @object
 4640               		.size	distance8, 1
 4641               	distance8:
 4642 0055 00        		.zero	1
 4643               	.global	distance16
 4644               		.type	distance16, @object
 4645               		.size	distance16, 2
 4646               	distance16:
 4647 0056 0000      		.zero	2
 4648               	.global	distanceAParcourirY
 4649               		.type	distanceAParcourirY, @object
 4650               		.size	distanceAParcourirY, 1
 4651               	distanceAParcourirY:
 4652 0058 00        		.zero	1
 4653               	.global	distanceAParcourirX
 4654               		.type	distanceAParcourirX, @object
 4655               		.size	distanceAParcourirX, 1
 4656               	distanceAParcourirX:
 4657 0059 00        		.zero	1
 4658               	.global	positionRalativeY
GAS LISTING /tmp/ccfQOnsU.s 			page 117


 4659               		.type	positionRalativeY, @object
 4660               		.size	positionRalativeY, 1
 4661               	positionRalativeY:
 4662 005a 00        		.zero	1
 4663               	.global	positionRalativeX
 4664               		.type	positionRalativeX, @object
 4665               		.size	positionRalativeX, 1
 4666               	positionRalativeX:
 4667 005b 00        		.zero	1
 4668               	.global	directionCourrante
 4669               		.type	directionCourrante, @object
 4670               		.size	directionCourrante, 1
 4671               	directionCourrante:
 4672 005c 00        		.zero	1
 4673               	.global	modeReculer
 4674               		.type	modeReculer, @object
 4675               		.size	modeReculer, 1
 4676               	modeReculer:
 4677 005d 00        		.zero	1
 4678               	.global	modeVirageDroite
 4679               		.type	modeVirageDroite, @object
 4680               		.size	modeVirageDroite, 1
 4681               	modeVirageDroite:
 4682 005e 00        		.zero	1
 4683               	.global	modeVirageGauche
 4684               		.type	modeVirageGauche, @object
 4685               		.size	modeVirageGauche, 1
 4686               	modeVirageGauche:
 4687 005f 00        		.zero	1
 4688               	.global	modeIntersection
 4689               		.type	modeIntersection, @object
 4690               		.size	modeIntersection, 1
 4691               	modeIntersection:
 4692 0060 00        		.zero	1
 4693               	.global	modeLigneDroite
 4694               		.type	modeLigneDroite, @object
 4695               		.size	modeLigneDroite, 1
 4696               	modeLigneDroite:
 4697 0061 00        		.zero	1
 4698               	.global	pinCouleur2
 4699               		.data
 4700               		.type	pinCouleur2, @object
 4701               		.size	pinCouleur2, 1
 4702               	pinCouleur2:
 4703 0000 02        		.byte	2
 4704               	.global	pinCouleur
 4705               		.type	pinCouleur, @object
 4706               		.size	pinCouleur, 1
 4707               	pinCouleur:
 4708 0001 01        		.byte	1
 4709               	.global	portDEL
 4710               		.section	.rodata
 4711               		.type	portDEL, @object
 4712               		.size	portDEL, 2
 4713               	portDEL:
 4714 0000 2500      		.word	37
 4715               	.global	r
GAS LISTING /tmp/ccfQOnsU.s 			page 118


 4716               		.section .bss
 4717               		.type	r, @object
 4718               		.size	r, 1
 4719               	r:
 4720 0062 00        		.zero	1
 4721               		.stabs	"r:G(0,59)",32,0,38,0
 4722               		.stabs	"portDEL:G(0,81)=&(0,61)",32,0,39,0
 4723               		.stabs	"pinCouleur:G(0,29)",32,0,40,0
 4724               		.stabs	"pinCouleur2:G(0,29)",32,0,41,0
 4725               		.stabs	"modeLigneDroite:G(0,24)",32,0,50,0
 4726               		.stabs	"modeIntersection:G(0,24)",32,0,51,0
 4727               		.stabs	"modeVirageGauche:G(0,24)",32,0,52,0
 4728               		.stabs	"modeVirageDroite:G(0,24)",32,0,53,0
 4729               		.stabs	"modeReculer:G(0,24)",32,0,54,0
 4730               		.stabs	"directionCourrante:G(0,29)",32,0,56,0
 4731               		.stabs	"positionRalativeX:G(0,28)",32,0,57,0
 4732               		.stabs	"positionRalativeY:G(0,28)",32,0,58,0
 4733               		.stabs	"distanceAParcourirX:G(0,28)",32,0,59,0
 4734               		.stabs	"distanceAParcourirY:G(0,28)",32,0,60,0
 4735               		.stabs	"distance16:G(0,31)",32,0,62,0
 4736               		.stabs	"distance8:G(0,29)",32,0,63,0
 4737               		.stabs	"modeRecherche:G(0,24)",32,0,65,0
 4738               		.stabs	"modeFoncer:G(0,24)",32,0,66,0
 4739               		.stabs	"modeVictoire:G(0,24)",32,0,67,0
 4740               		.stabs	"modeDetection:G(0,24)",32,0,68,0
 4741               		.stabs	"vitesseFoncer:G(0,29)",32,0,70,0
 4742               		.stabs	"modeFoncerConsecutif:G(0,29)",32,0,71,0
 4743               		.stabs	"modeFoncerConsecutifMax:G(0,29)",32,0,72,0
 4744               		.stabs	"vitesseVirageDetection:G(0,29)",32,0,74,0
 4745               		.stabs	"varianceVitesseVirageDetection:G(0,28)",32,0,76,0
 4746               		.stabs	"varianceVitesseVirageDetectionDeceleration:G(0,28)",32,0,77,0
 4747               		.stabs	"varianceVitesseVirageDetectionMax:G(0,28)",32,0,78,0
 4748               		.stabs	"varianceVitesseVirageDetectionMin:G(0,28)",32,0,79,0
 4749               		.stabs	"directionInitialeDetection:G(0,29)",32,0,80,0
 4750               		.stabs	"delaiMemeOrientation:G(0,31)",32,0,82,0
 4751               		.stabs	"delaiMemeOrientationMax:G(0,31)",32,0,83,0
 4752               		.stabs	"nbIntersection:G(0,29)",32,0,85,0
 4753               		.stabs	"nbIntersectionMax:G(0,29)",32,0,86,0
 4754               		.stabs	"vitesseVirage:G(0,28)",32,0,96,0
 4755               		.stabs	"virageForce:G(0,24)",32,0,97,0
 4756               		.stabs	"detecteurEnabled:G(0,24)",32,0,98,0
 4757               		.stabs	"varianceVitesseVirage:G(0,28)",32,0,102,0
 4758               		.stabs	"varianceVitesseVirageDeceleration:G(0,28)",32,0,103,0
 4759               		.stabs	"varianceVitesseVirageMax:G(0,28)",32,0,104,0
 4760               		.stabs	"varianceVitesseVirageMin:G(0,28)",32,0,105,0
 4761               		.stabs	"franchieGauche:G(0,24)",32,0,111,0
 4762               		.stabs	"franchieMilieu:G(0,24)",32,0,112,0
 4763               		.stabs	"franchieDroite:G(0,24)",32,0,113,0
 4764               		.stabs	"gaucheExiste:G(0,24)",32,0,115,0
 4765               		.stabs	"droiteExiste:G(0,24)",32,0,116,0
 4766               		.stabs	"milieuExiste:G(0,24)",32,0,117,0
 4767               		.stabs	"tempsIntersection:G(0,31)",32,0,119,0
 4768               		.stabs	"tempsIntersectionMax:G(0,31)",32,0,120,0
 4769               		.stabs	"tempsActif:G(0,31)",32,0,121,0
 4770               		.stabs	"seuilTempsActifToutDroit:G(0,31)",32,0,122,0
 4771               		.stabs	"dernierCapteurIntersection:G(0,29)",32,0,124,0
 4772               		.stabs	"dernierCapteur:G(0,29)",32,0,129,0
GAS LISTING /tmp/ccfQOnsU.s 			page 119


 4773               		.stabs	"vitesseBase:G(0,29)",32,0,130,0
 4774               		.stabs	"ajustementGauche:G(0,28)",32,0,131,0
 4775               		.stabs	"ajustementDroit:G(0,28)",32,0,132,0
 4776               		.stabs	"ajustementMax:G(0,28)",32,0,133,0
 4777               		.stabs	"ajustementMin:G(0,28)",32,0,134,0
 4778               		.stabs	"ajustementRetour:G(0,28)",32,0,135,0
 4779               		.stabs	"ajustementVirageLeger:G(0,28)",32,0,136,0
 4780               		.stabs	"ajustementVirageMoyen:G(0,28)",32,0,137,0
 4781               		.stabs	"delaisLigneDroite:G(0,31)",32,0,138,0
 4782               		.stabs	"delaisMaxLigneDroite:G(0,31)",32,0,139,0
 4783               		.stabs	"delaisAjustementTemporaire:G(0,30)",32,0,141,0
 4784               		.stabs	"ajustementTemporaireG:G(0,28)",32,0,142,0
 4785               		.stabs	"ajustementTemporaireD:G(0,28)",32,0,143,0
 4786               		.stabs	"ajustementTournant:G(0,28)",32,0,144,0
 4787               		.stabs	"ajustementLigneDroite:G(0,28)",32,0,145,0
 4788               		.stabs	"dureeAjustementTournant:G(0,29)",32,0,146,0
 4789               		.stabs	"dureeAjustementLigneDroite:G(0,29)",32,0,147,0
 4790               		.stabs	"tempsDepuisIntersection:G(0,31)",32,0,149,0
 4791               		.stabs	"tempsAttenteMaxIntersection:G(0,31)",32,0,150,0
 4792               		.stabs	"vitesseReculer:G(0,29)",32,0,155,0
 4793               		.stabs	"tempsReculActif:G(0,28)",32,0,156,0
 4794               		.stabs	"tempsReculActifMax:G(0,28)",32,0,157,0
 4795               		.stabs	"finRecul:G(0,24)",32,0,158,0
 4796               		.stabs	"tempsReculExtra:G(0,28)",32,0,159,0
 4797               		.stabs	"tempsReculExtraMax:G(0,28)",32,0,160,0
 4798               		.stabs	"tempsLigneDroiteActive:G(0,31)",32,0,167,0
 4799               		.stabs	"tempsLigneDroiteDepuisIntersection:G(0,31)",32,0,168,0
 4800               		.stabs	"tempsLigneDroiteActiveMax:G(0,31)",32,0,169,0
 4801               		.stabs	"tempsLigneDroiteActiveSeuil:G(0,31)",32,0,170,0
 4802               		.stabs	"tempsActifSansCapteur:G(0,31)",32,0,173,0
 4803               		.stabs	"tempsActifSansCapteurMax:G(0,31)",32,0,174,0
 4804               		.stabs	"debug:G(0,24)",32,0,176,0
 4805               		.text
 4806               		.stabs	"",100,0,0,.Letext0
 4807               	.Letext0:
 4808               		.ident	"GCC: (Fedora 4.7.3-0.1.fc19) 4.7.3 20130216 (prerelease)"
 4809               	.global __do_copy_data
 4810               	.global __do_clear_bss
GAS LISTING /tmp/ccfQOnsU.s 			page 120


DEFINED SYMBOLS
                            *ABS*:0000000000000000 robot_chat.cpp
     /tmp/ccfQOnsU.s:2      *ABS*:000000000000003e __SP_H__
     /tmp/ccfQOnsU.s:3      *ABS*:000000000000003d __SP_L__
     /tmp/ccfQOnsU.s:4      *ABS*:000000000000003f __SREG__
     /tmp/ccfQOnsU.s:5      *ABS*:0000000000000000 __tmp_reg__
     /tmp/ccfQOnsU.s:6      *ABS*:0000000000000001 __zero_reg__
     /tmp/ccfQOnsU.s:78     .text:0000000000000000 _Z18ajusterOrientationb.part.2
     /tmp/ccfQOnsU.s:4671   .bss:000000000000005c directionCourrante
     /tmp/ccfQOnsU.s:109    .text:0000000000000012 _Z12capteurDroitv
     /tmp/ccfQOnsU.s:136    .text:0000000000000020 _Z13capteurMilieuv
     /tmp/ccfQOnsU.s:162    .text:000000000000002c _Z13capteurGauchev
     /tmp/ccfQOnsU.s:190    .text:000000000000003a _Z16jouerSonDistancej
     /tmp/ccfQOnsU.s:415    .text:0000000000000136 _Z17getDistanceSourisv
     /tmp/ccfQOnsU.s:4641   .bss:0000000000000055 distance8
     /tmp/ccfQOnsU.s:457    .text:000000000000014e _Z23ajusterPositionRelativeh
     /tmp/ccfQOnsU.s:4666   .bss:000000000000005b positionRalativeX
     /tmp/ccfQOnsU.s:4661   .bss:000000000000005a positionRalativeY
     /tmp/ccfQOnsU.s:727    .text:000000000000024a _Z18ajusterOrientationb
     /tmp/ccfQOnsU.s:764    .text:0000000000000264 _Z15ajusterFranchiev
     /tmp/ccfQOnsU.s:4516   .bss:000000000000003a franchieGauche
     /tmp/ccfQOnsU.s:4511   .bss:0000000000000039 franchieMilieu
     /tmp/ccfQOnsU.s:4506   .bss:0000000000000038 franchieDroite
     /tmp/ccfQOnsU.s:811    .text:0000000000000290 _Z30ajusterPossibiliteIntersectionv
     /tmp/ccfQOnsU.s:4466   .bss:000000000000002c dernierCapteurIntersection
     /tmp/ccfQOnsU.s:4501   .bss:0000000000000037 gaucheExiste
     /tmp/ccfQOnsU.s:4496   .bss:0000000000000036 droiteExiste
     /tmp/ccfQOnsU.s:897    .text:00000000000002f0 _Z20detecterIntersectionv
     /tmp/ccfQOnsU.s:938    .text:000000000000030c _Z6perduev
     /tmp/ccfQOnsU.s:982    .text:000000000000032c _Z21tomberEnModeDetectionv
     /tmp/ccfQOnsU.s:4621   .bss:0000000000000051 modeDetection
     /tmp/ccfQOnsU.s:4696   .bss:0000000000000061 modeLigneDroite
     /tmp/ccfQOnsU.s:4596   .bss:000000000000004c varianceVitesseVirageDetection
     /tmp/ccfQOnsU.s:4576   .bss:0000000000000048 directionInitialeDetection
     /tmp/ccfQOnsU.s:1014   .text:0000000000000344 _Z37tomberEnModerDetecterTypeIntersectionb
     /tmp/ccfQOnsU.s:4546   .bss:0000000000000040 virageForce
     /tmp/ccfQOnsU.s:4371   .bss:0000000000000015 tempsDepuisIntersection
     /tmp/ccfQOnsU.s:4331   .bss:000000000000000b tempsLigneDroiteActive
     /tmp/ccfQOnsU.s:4326   .bss:0000000000000009 tempsLigneDroiteDepuisIntersection
     /tmp/ccfQOnsU.s:4311   .bss:0000000000000003 tempsActifSansCapteur
     /tmp/ccfQOnsU.s:4536   .bss:000000000000003e varianceVitesseVirage
     /tmp/ccfQOnsU.s:4691   .bss:0000000000000060 modeIntersection
     /tmp/ccfQOnsU.s:4491   .bss:0000000000000035 milieuExiste
     /tmp/ccfQOnsU.s:4486   .bss:0000000000000033 tempsIntersection
     /tmp/ccfQOnsU.s:4476   .bss:000000000000002f tempsActif
     /tmp/ccfQOnsU.s:4461   .bss:000000000000002b dernierCapteur
     /tmp/ccfQOnsU.s:1090   .text:00000000000003a8 _Z26determinerTypeIntersectionv
     /tmp/ccfQOnsU.s:4631   .bss:0000000000000053 modeFoncer
     /tmp/ccfQOnsU.s:4471   .bss:000000000000002d seuilTempsActifToutDroit
     /tmp/ccfQOnsU.s:4481   .bss:0000000000000031 tempsIntersectionMax
     /tmp/ccfQOnsU.s:1284   .text:00000000000004c2 _Z21ajusterDernierCapteurv
     /tmp/ccfQOnsU.s:1331   .text:00000000000004ee _Z17limiterAjustementv
     /tmp/ccfQOnsU.s:4441   .bss:0000000000000027 ajustementMax
     /tmp/ccfQOnsU.s:4451   .bss:0000000000000029 ajustementGauche
     /tmp/ccfQOnsU.s:4446   .bss:0000000000000028 ajustementDroit
     /tmp/ccfQOnsU.s:4436   .bss:0000000000000026 ajustementMin
     /tmp/ccfQOnsU.s:1387   .text:0000000000000528 _Z17ajustementVitesseb
GAS LISTING /tmp/ccfQOnsU.s 			page 121


     /tmp/ccfQOnsU.s:4416   .bss:0000000000000021 delaisLigneDroite
     /tmp/ccfQOnsU.s:4411   .bss:000000000000001f delaisMaxLigneDroite
     /tmp/ccfQOnsU.s:1455   .text:000000000000057a _Z21avancerAvecAjustementii
     /tmp/ccfQOnsU.s:4406   .bss:000000000000001d delaisAjustementTemporaire
     /tmp/ccfQOnsU.s:4396   .bss:000000000000001b ajustementTemporaireD
     /tmp/ccfQOnsU.s:4401   .bss:000000000000001c ajustementTemporaireG
     /tmp/ccfQOnsU.s:1498   .text:00000000000005aa _Z21reculerAvecAjustementii
     /tmp/ccfQOnsU.s:1541   .text:00000000000005c6 _Z21viragePourLigneDroiteba
     /tmp/ccfQOnsU.s:4616   .bss:0000000000000050 vitesseFoncer
     /tmp/ccfQOnsU.s:4456   .bss:000000000000002a vitesseBase
     /tmp/ccfQOnsU.s:1630   .text:0000000000000628 _Z19tomberEnModeReculerv
     /tmp/ccfQOnsU.s:4356   .bss:0000000000000011 tempsReculActif
     /tmp/ccfQOnsU.s:4346   .bss:000000000000000f finRecul
     /tmp/ccfQOnsU.s:4341   .bss:000000000000000e tempsReculExtra
     /tmp/ccfQOnsU.s:4676   .bss:000000000000005d modeReculer
     /tmp/ccfQOnsU.s:1665   .text:0000000000000642 _Z17directionConvienth
     /tmp/ccfQOnsU.s:4656   .bss:0000000000000059 distanceAParcourirX
     /tmp/ccfQOnsU.s:4651   .bss:0000000000000058 distanceAParcourirY
     /tmp/ccfQOnsU.s:1806   .text:00000000000006cc _Z27nullifierDistanceAParcourirv
     /tmp/ccfQOnsU.s:1832   .text:00000000000006d8 _Z14decisionViragebb
     /tmp/ccfQOnsU.s:4636   .bss:0000000000000054 modeRecherche
     /tmp/ccfQOnsU.s:4561   .bss:0000000000000043 nbIntersection
     /tmp/ccfQOnsU.s:4556   .bss:0000000000000042 nbIntersectionMax
     /tmp/ccfQOnsU.s:4686   .bss:000000000000005f modeVirageGauche
     /tmp/ccfQOnsU.s:4681   .bss:000000000000005e modeVirageDroite
     /tmp/ccfQOnsU.s:2099   .text:000000000000083e _Z33garderEnMemoirePositionsRelativesv
     /tmp/ccfQOnsU.s:2140   .text:000000000000085e _Z16calculerDistancev
     /tmp/ccfQOnsU.s:4646   .bss:0000000000000056 distance16
     /tmp/ccfQOnsU.s:2190   .text:0000000000000894 _Z15ajusterDistancev
     /tmp/ccfQOnsU.s:2220   .text:00000000000008b2 _Z25ajusterDistanceAParcourirv
     /tmp/ccfQOnsU.s:2287   .text:00000000000008ee _Z20ajusterVitesseViragev
     /tmp/ccfQOnsU.s:4531   .bss:000000000000003d varianceVitesseVirageDeceleration
     /tmp/ccfQOnsU.s:4521   .bss:000000000000003b varianceVitesseVirageMin
     /tmp/ccfQOnsU.s:4526   .bss:000000000000003c varianceVitesseVirageMax
     /tmp/ccfQOnsU.s:2320   .text:000000000000090e _Z29ajusterVitesseVirageDetectionv
     /tmp/ccfQOnsU.s:4591   .bss:000000000000004b varianceVitesseVirageDetectionDeceleration
     /tmp/ccfQOnsU.s:4581   .bss:0000000000000049 varianceVitesseVirageDetectionMin
     /tmp/ccfQOnsU.s:4586   .bss:000000000000004a varianceVitesseVirageDetectionMax
     /tmp/ccfQOnsU.s:2353   .text:000000000000092e _Z32ajusterDelaiAjustementTemporairev
     /tmp/ccfQOnsU.s:2384   .text:0000000000000948 _Z5virerb
     /tmp/ccfQOnsU.s:4551   .bss:0000000000000041 vitesseVirage
     /tmp/ccfQOnsU.s:4541   .bss:000000000000003f detecteurEnabled
     /tmp/ccfQOnsU.s:4381   .bss:0000000000000018 dureeAjustementTournant
     /tmp/ccfQOnsU.s:4391   .bss:000000000000001a ajustementTournant
     /tmp/ccfQOnsU.s:2524   .text:00000000000009fc _Z16gestionDetectionv
     /tmp/ccfQOnsU.s:4571   .bss:0000000000000046 delaiMemeOrientation
     /tmp/ccfQOnsU.s:4566   .bss:0000000000000044 delaiMemeOrientationMax
     /tmp/ccfQOnsU.s:4601   .bss:000000000000004d vitesseVirageDetection
     /tmp/ccfQOnsU.s:2662   .text:0000000000000ac2 _Z18avancerLigneDroitev
     /tmp/ccfQOnsU.s:4421   .bss:0000000000000023 ajustementVirageMoyen
     /tmp/ccfQOnsU.s:4376   .bss:0000000000000017 dureeAjustementLigneDroite
     /tmp/ccfQOnsU.s:4386   .bss:0000000000000019 ajustementLigneDroite
     /tmp/ccfQOnsU.s:4426   .bss:0000000000000024 ajustementVirageLeger
     /tmp/ccfQOnsU.s:2826   .text:0000000000000b9a _Z7reculerv
     /tmp/ccfQOnsU.s:4336   .bss:000000000000000d tempsReculExtraMax
     /tmp/ccfQOnsU.s:4351   .bss:0000000000000010 tempsReculActifMax
     /tmp/ccfQOnsU.s:4361   .bss:0000000000000012 vitesseReculer
GAS LISTING /tmp/ccfQOnsU.s 			page 122


     /tmp/ccfQOnsU.s:2912   .text:0000000000000c02 _Z23ajusterTempsActifRecentv
     /tmp/ccfQOnsU.s:4321   .bss:0000000000000007 tempsLigneDroiteActiveMax
     /tmp/ccfQOnsU.s:3004   .text:0000000000000c98 _Z28ajusterTempsActifSansCapteurv
     /tmp/ccfQOnsU.s:4306   .bss:0000000000000001 tempsActifSansCapteurMax
     /tmp/ccfQOnsU.s:3063   .text:0000000000000ce8 _Z16verifierVictoirev
     /tmp/ccfQOnsU.s:3115   .text:0000000000000d0e _Z19gestionModeVictoirev
     /tmp/ccfQOnsU.s:4702   .data:0000000000000000 pinCouleur2
     /tmp/ccfQOnsU.s:4707   .data:0000000000000001 pinCouleur
     /tmp/ccfQOnsU.s:4301   .bss:0000000000000000 debug
     /tmp/ccfQOnsU.s:3207   .text:0000000000000d84 _Z25verifierPossibiliteFoncerv
     /tmp/ccfQOnsU.s:4626   .bss:0000000000000052 modeVictoire
     /tmp/ccfQOnsU.s:4611   .bss:000000000000004f modeFoncerConsecutif
     /tmp/ccfQOnsU.s:4606   .bss:000000000000004e modeFoncerConsecutifMax
     /tmp/ccfQOnsU.s:3283   .text:0000000000000dca _Z22gestionDeplacementChatv
     /tmp/ccfQOnsU.s:4366   .bss:0000000000000013 tempsAttenteMaxIntersection
     /tmp/ccfQOnsU.s:4316   .bss:0000000000000005 tempsLigneDroiteActiveSeuil
     /tmp/ccfQOnsU.s:3604   .text:0000000000000fbe _Z16BoutonEstEnfoncev
     /tmp/ccfQOnsU.s:3642   .text:0000000000000fd0 _Z8modeTestv
     /tmp/ccfQOnsU.s:3753   .text:0000000000001040 _Z23tomberEnEtatTransitoirev
     /tmp/ccfQOnsU.s:3871   .text.startup:0000000000000000 main
     /tmp/ccfQOnsU.s:4431   .bss:0000000000000025 ajustementRetour
     /tmp/ccfQOnsU.s:4238   .text.startup:0000000000000216 _GLOBAL__sub_I_r
     /tmp/ccfQOnsU.s:4719   .bss:0000000000000062 r
     /tmp/ccfQOnsU.s:4267   .text.exit:0000000000000000 _GLOBAL__sub_D_r
     /tmp/ccfQOnsU.s:4713   .rodata:0000000000000000 portDEL

UNDEFINED SYMBOLS
_ZN8LibRobot8jouerSonEh
_ZN8LibRobot10arreterSonEv
_ZN8LibRobot7avancerEhhaa
_ZN8LibRobot7reculerEhhaa
_ZN8LibRobot9decoincerEbbb
_ZN3canC1Ev
_ZN3can7lectureEh
_ZN3canD1Ev
_ZN8LibRobot5virerEhaab
_ZN8LibRobot11eteindreDELERVhhh
_ZN8LibRobot10allumerDELERVhh
_ZN8LibRobot14arreterMoteursEv
_ZN8LibRobot14initialisationEv
_ZN8LibRobot5debutEv
_ZN8LibRobotC1Ev
__do_global_ctors
_ZN8LibRobotD1Ev
__do_global_dtors
__do_copy_data
__do_clear_bss
